(dp0
Vresponse
p1
(dp2
Vquery
p3
V
p4
sVzone
p5
(lp6
(dp7
Vrecords
p8
(dp9
Vwork
p10
(lp11
(dp12
Vtitle
p13
VNumerical Modelling of Transient Flow of Particles during Flash Smelting
p14
sVurl
p15
V/work/39495794
p16
sVtroveUrl
p17
Vhttp://trove.nla.gov.au/work/39495794
p18
sVversionCount
p19
I1
sVisPartOf
p20
VProcess Industries Power the Pacific Rim: Sixth Conference of the Asia Pacific Confederation of Chemical Engineering; Twenty-first Australasian Chemical Engineering Conference; Official Proceedings of Combined Conference 1993
p21
sVholdingsCount
p22
I0
sVrelevance
p23
(dp24
Vscore
p25
V1.0
p26
sVvalue
p27
Vvery relevant
p28
ssVissued
p29
V423-2012
p30
sVcontributor
p31
(lp32
VKoh, PTL
p33
asVidentifier
p34
(lp35
(dp36
Vlinktype
p37
Vrestricted
p38
sVtype
p39
Vurl
p40
sVvalue
p41
Vhttp://search.informit.com.au/fullText;dn=897232871743608;res=IELENG
p42
sasVtype
p43
(lp44
VArticle/Conference paper
p45
aVArticle
p46
asVid
p47
V39495794
p48
sa(dp49
Vtitle
p50
VProduction of High-activity Granular Biomass in a UASB Reactor
p51
sVurl
p52
V/work/39495803
p53
sVtroveUrl
p54
Vhttp://trove.nla.gov.au/work/39495803
p55
sVversionCount
p56
I1
sVisPartOf
p57
VProcess Industries Power the Pacific Rim: Sixth Conference of the Asia Pacific Confederation of Chemical Engineering; Twenty-first Australasian Chemical Engineering Conference; Official Proceedings of Combined Conference 1993
p58
sVholdingsCount
p59
I0
sVrelevance
p60
(dp61
Vscore
p62
V1.0
p63
sVvalue
p64
Vvery relevant
p65
ssVissued
p66
V423-2012
p67
sVcontributor
p68
(lp69
VFang, Herbert HP
p70
aV Chui, HK
p71
asVidentifier
p72
(lp73
(dp74
Vlinktype
p75
Vrestricted
p76
sVtype
p77
Vurl
p78
sVvalue
p79
Vhttp://search.informit.com.au/fullText;dn=897586898197514;res=IELENG
p80
sasVtype
p81
(lp82
VArticle/Conference paper
p83
aVArticle
p84
asVid
p85
V39495803
p86
sa(dp87
Vtitle
p88
VAbsorption Behaviour of Bovine Serum Albumin on Cation Exchangers
p89
sVurl
p90
V/work/39495808
p91
sVtroveUrl
p92
Vhttp://trove.nla.gov.au/work/39495808
p93
sVversionCount
p94
I1
sVisPartOf
p95
VProcess Industries Power the Pacific Rim: Sixth Conference of the Asia Pacific Confederation of Chemical Engineering; Twenty-first Australasian Chemical Engineering Conference; Official Proceedings of Combined Conference 1993
p96
sVholdingsCount
p97
I0
sVrelevance
p98
(dp99
Vscore
p100
V1.0
p101
sVvalue
p102
Vvery relevant
p103
ssVissued
p104
V423-2012
p105
sVcontributor
p106
(lp107
VHashim, MA
p108
aV Chu, KH
p109
aV Tsan, PS
p110
asVidentifier
p111
(lp112
(dp113
Vlinktype
p114
Vrestricted
p115
sVtype
p116
Vurl
p117
sVvalue
p118
Vhttp://search.informit.com.au/fullText;dn=897717328996322;res=IELENG
p119
sasVtype
p120
(lp121
VArticle/Conference paper
p122
aVArticle
p123
asVid
p124
V39495808
p125
sa(dp126
Vtitle
p127
VModel Inaccuracies in Model-based Control Methods
p128
sVurl
p129
V/work/39495820
p130
sVtroveUrl
p131
Vhttp://trove.nla.gov.au/work/39495820
p132
sVversionCount
p133
I1
sVisPartOf
p134
VProcess Industries Power the Pacific Rim: Sixth Conference of the Asia Pacific Confederation of Chemical Engineering; Twenty-first Australasian Chemical Engineering Conference; Official Proceedings of Combined Conference 1993
p135
sVholdingsCount
p136
I0
sVrelevance
p137
(dp138
Vscore
p139
V1.0
p140
sVvalue
p141
Vvery relevant
p142
ssVissued
p143
V423-2012
p144
sVcontributor
p145
(lp146
VAllen, RM
p147
aV Viggers, HE
p148
asVidentifier
p149
(lp150
(dp151
Vlinktype
p152
Vrestricted
p153
sVtype
p154
Vurl
p155
sVvalue
p156
Vhttp://search.informit.com.au/fullText;dn=898276318134068;res=IELENG
p157
sasVtype
p158
(lp159
VArticle/Conference paper
p160
aVArticle
p161
asVid
p162
V39495820
p163
sa(dp164
Vtitle
p165
VScale Up of the Rapid Sewage Treatment SIROFLOC{TM} Process
p166
sVurl
p167
V/work/39495822
p168
sVtroveUrl
p169
Vhttp://trove.nla.gov.au/work/39495822
p170
sVversionCount
p171
I1
sVisPartOf
p172
VProcess Industries Power the Pacific Rim: Sixth Conference of the Asia Pacific Confederation of Chemical Engineering; Twenty-first Australasian Chemical Engineering Conference; Official Proceedings of Combined Conference 1993
p173
sVholdingsCount
p174
I0
sVrelevance
p175
(dp176
Vscore
p177
V1.0
p178
sVvalue
p179
Vvery relevant
p180
ssVissued
p181
V423-2012
p182
sVcontributor
p183
(lp184
VBooker, NA
p185
aV Brooks, RB
p186
asVidentifier
p187
(lp188
(dp189
Vlinktype
p190
Vrestricted
p191
sVtype
p192
Vurl
p193
sVvalue
p194
Vhttp://search.informit.com.au/fullText;dn=898332217047842;res=IELENG
p195
sasVtype
p196
(lp197
VArticle/Conference paper
p198
aVArticle
p199
asVid
p200
V39495822
p201
sa(dp202
Vtitle
p203
VCathodic Characteristics of {formula} Perovskite-type Oxide Electrode in an Alkaline Fuel Cell
p204
sVurl
p205
V/work/39495835
p206
sVtroveUrl
p207
Vhttp://trove.nla.gov.au/work/39495835
p208
sVversionCount
p209
I1
sVisPartOf
p210
VProcess Industries Power the Pacific Rim: Sixth Conference of the Asia Pacific Confederation of Chemical Engineering; Twenty-first Australasian Chemical Engineering Conference; Official Proceedings of Combined Conference 1993
p211
sVholdingsCount
p212
I0
sVrelevance
p213
(dp214
Vscore
p215
V1.0
p216
sVvalue
p217
Vvery relevant
p218
ssVissued
p219
V423-2012
p220
sVcontributor
p221
(lp222
VShin, Jeong-Soon
p223
aV Lee, Ho-In
p224
asVidentifier
p225
(lp226
(dp227
Vlinktype
p228
Vrestricted
p229
sVtype
p230
Vurl
p231
sVvalue
p232
Vhttp://search.informit.com.au/fullText;dn=898835307271814;res=IELENG
p233
sasVtype
p234
(lp235
VArticle/Conference paper
p236
aVArticle
p237
asVid
p238
V39495835
p239
sa(dp240
Vtitle
p241
VEffects of Deposited Contaminants on Amorphous Chromia SCR Catalysts for NO
p242
sVurl
p243
V/work/39495837
p244
sVtroveUrl
p245
Vhttp://trove.nla.gov.au/work/39495837
p246
sVversionCount
p247
I1
sVisPartOf
p248
VProcess Industries Power the Pacific Rim: Sixth Conference of the Asia Pacific Confederation of Chemical Engineering; Twenty-first Australasian Chemical Engineering Conference; Official Proceedings of Combined Conference 1993
p249
sVholdingsCount
p250
I0
sVrelevance
p251
(dp252
Vscore
p253
V1.0
p254
sVvalue
p255
Vvery relevant
p256
ssVissued
p257
V423-2012
p258
sVcontributor
p259
(lp260
VZhang, Geng
p261
aV Buckingham, Scott
p262
aV Curry-Hyde, H.Edward
p263
aV Cant, Noel
p264
asVidentifier
p265
(lp266
(dp267
Vlinktype
p268
Vrestricted
p269
sVtype
p270
Vurl
p271
sVvalue
p272
Vhttp://search.informit.com.au/fullText;dn=898872573214330;res=IELENG
p273
sasVtype
p274
(lp275
VArticle/Conference paper
p276
aVArticle
p277
asVid
p278
V39495837
p279
sa(dp280
Vtitle
p281
VNumerical Bifurcation Analysis of Langmuir-Hinshelwood Reactions Coupled with Diffusion
p282
sVurl
p283
V/work/39495846
p284
sVtroveUrl
p285
Vhttp://trove.nla.gov.au/work/39495846
p286
sVversionCount
p287
I1
sVisPartOf
p288
VProcess Industries Power the Pacific Rim: Sixth Conference of the Asia Pacific Confederation of Chemical Engineering; Twenty-first Australasian Chemical Engineering Conference; Official Proceedings of Combined Conference 1993
p289
sVholdingsCount
p290
I0
sVrelevance
p291
(dp292
Vscore
p293
V1.0
p294
sVvalue
p295
Vvery relevant
p296
ssVissued
p297
V423-2012
p298
sVcontributor
p299
(lp300
VHoffmann, K
p301
aV Adesina, AA
p302
aV Wainwright, MS
p303
asVidentifier
p304
(lp305
(dp306
Vlinktype
p307
Vrestricted
p308
sVtype
p309
Vurl
p310
sVvalue
p311
Vhttp://search.informit.com.au/fullText;dn=899040269955654;res=IELENG
p312
sasVtype
p313
(lp314
VArticle/Conference paper
p315
aVArticle
p316
asVid
p317
V39495846
p318
sa(dp319
Vtitle
p320
VAspen Simulation of Methanol Synthesis Plant Based on Catalytic Partial Oxidation of Natural Gas
p321
sVurl
p322
V/work/39495859
p323
sVtroveUrl
p324
Vhttp://trove.nla.gov.au/work/39495859
p325
sVversionCount
p326
I1
sVisPartOf
p327
VProcess Industries Power the Pacific Rim: Sixth Conference of the Asia Pacific Confederation of Chemical Engineering; Twenty-first Australasian Chemical Engineering Conference; Official Proceedings of Combined Conference 1993
p328
sVholdingsCount
p329
I0
sVrelevance
p330
(dp331
Vscore
p332
V1.0
p333
sVvalue
p334
Vvery relevant
p335
ssVissued
p336
V423-2012
p337
sVcontributor
p338
(lp339
VDave, N
p340
aV Foulds, G
p341
asVidentifier
p342
(lp343
(dp344
Vlinktype
p345
Vrestricted
p346
sVtype
p347
Vurl
p348
sVvalue
p349
Vhttp://search.informit.com.au/fullText;dn=899301131553269;res=IELENG
p350
sasVtype
p351
(lp352
VArticle/Conference paper
p353
aVArticle
p354
asVid
p355
V39495859
p356
sa(dp357
Vtitle
p358
VAbatement of NOx Emitted from Stationary Sources by Selective Catalytic Redaction (SCR) Processes
p359
sVurl
p360
V/work/39495874
p361
sVtroveUrl
p362
Vhttp://trove.nla.gov.au/work/39495874
p363
sVversionCount
p364
I1
sVisPartOf
p365
VProcess Industries Power the Pacific Rim: Sixth Conference of the Asia Pacific Confederation of Chemical Engineering; Twenty-first Australasian Chemical Engineering Conference; Official Proceedings of Combined Conference 1993
p366
sVholdingsCount
p367
I0
sVrelevance
p368
(dp369
Vscore
p370
V1.0
p371
sVvalue
p372
Vvery relevant
p373
ssVissued
p374
V423-2012
p375
sVcontributor
p376
(lp377
VKim, Sang Hwan
p378
aV Yang, Hee Sung
p379
aV Park, Won-Hoon
p380
asVidentifier
p381
(lp382
(dp383
Vlinktype
p384
Vrestricted
p385
sVtype
p386
Vurl
p387
sVvalue
p388
Vhttp://search.informit.com.au/fullText;dn=899580626122142;res=IELENG
p389
sasVtype
p390
(lp391
VArticle/Conference paper
p392
aVArticle
p393
asVid
p394
V39495874
p395
sa(dp396
Vtitle
p397
VExperience in On-line Modelling, Optimisation, and Control Using the Aspen Simulation Package
p398
sVurl
p399
V/work/39495888
p400
sVtroveUrl
p401
Vhttp://trove.nla.gov.au/work/39495888
p402
sVversionCount
p403
I1
sVisPartOf
p404
VProcess Industries Power the Pacific Rim: Sixth Conference of the Asia Pacific Confederation of Chemical Engineering; Twenty-first Australasian Chemical Engineering Conference; Official Proceedings of Combined Conference 1993
p405
sVholdingsCount
p406
I0
sVrelevance
p407
(dp408
Vscore
p409
V1.0
p410
sVvalue
p411
Vvery relevant
p412
ssVissued
p413
V423-2012
p414
sVcontributor
p415
(lp416
VRobertson, GA
p417
aV Sharma, SC
p418
asVidentifier
p419
(lp420
(dp421
Vlinktype
p422
Vrestricted
p423
sVtype
p424
Vurl
p425
sVvalue
p426
Vhttp://search.informit.com.au/fullText;dn=899841487719756;res=IELENG
p427
sasVtype
p428
(lp429
VArticle/Conference paper
p430
aVArticle
p431
asVid
p432
V39495888
p433
sa(dp434
Vtitle
p435
VDetoxification of Wastewater: Catalytic Oxidation of 4-Nitrophenol in a Slurry Reactor
p436
sVurl
p437
V/work/39495918
p438
sVtroveUrl
p439
Vhttp://trove.nla.gov.au/work/39495918
p440
sVversionCount
p441
I1
sVisPartOf
p442
VChemeca 96: Excellence in Chemical Engineering; 24th Australian and New Zealand Chemical Engineering Conference and Exhibition; Proceedings
p443
sVholdingsCount
p444
I0
sVrelevance
p445
(dp446
Vscore
p447
V1.0
p448
sVvalue
p449
Vvery relevant
p450
ssVissued
p451
V423-2012
p452
sVcontributor
p453
(lp454
VSuen, C.Larry
p455
aV Adesina, Adesoji A
p456
asVidentifier
p457
(lp458
(dp459
Vlinktype
p460
Vrestricted
p461
sVtype
p462
Vurl
p463
sVvalue
p464
Vhttp://search.informit.com.au/fullText;dn=893003187267997;res=IELENG
p465
sasVtype
p466
(lp467
VArticle/Conference paper
p468
aVArticle
p469
asVid
p470
V39495918
p471
sa(dp472
Vtitle
p473
VOpen Vertical Integration Design (OVID)
p474
sVurl
p475
V/work/39495933
p476
sVtroveUrl
p477
Vhttp://trove.nla.gov.au/work/39495933
p478
sVversionCount
p479
I1
sVisPartOf
p480
VChemeca 96: Excellence in Chemical Engineering; 24th Australian and New Zealand Chemical Engineering Conference and Exhibition; Proceedings
p481
sVholdingsCount
p482
I0
sVrelevance
p483
(dp484
Vscore
p485
V1.0
p486
sVvalue
p487
Vvery relevant
p488
ssVissued
p489
V423-2012
p490
sVcontributor
p491
(lp492
VArlic, Robin
p493
asVidentifier
p494
(lp495
(dp496
Vlinktype
p497
Vrestricted
p498
sVtype
p499
Vurl
p500
sVvalue
p501
Vhttp://search.informit.com.au/fullText;dn=893673974233292;res=IELENG
p502
sasVtype
p503
(lp504
VArticle/Conference paper
p505
aVArticle
p506
asVid
p507
V39495933
p508
sa(dp509
Vtitle
p510
VExpanding the Horizons of Process Modelling
p511
sVurl
p512
V/work/39495935
p513
sVtroveUrl
p514
Vhttp://trove.nla.gov.au/work/39495935
p515
sVversionCount
p516
I1
sVisPartOf
p517
VChemeca 96: Excellence in Chemical Engineering; 24th Australian and New Zealand Chemical Engineering Conference and Exhibition; Proceedings
p518
sVholdingsCount
p519
I0
sVrelevance
p520
(dp521
Vscore
p522
V1.0
p523
sVvalue
p524
Vvery relevant
p525
ssVissued
p526
V423-2012
p527
sVcontributor
p528
(lp529
VRussell, LW
p530
asVidentifier
p531
(lp532
(dp533
Vlinktype
p534
Vrestricted
p535
sVtype
p536
Vurl
p537
sVvalue
p538
Vhttp://search.informit.com.au/fullText;dn=893748506118325;res=IELENG
p539
sasVtype
p540
(lp541
VArticle/Conference paper
p542
aVArticle
p543
asVid
p544
V39495935
p545
sa(dp546
Vtitle
p547
VFlexible Process Simulation with C++
p548
sVurl
p549
V/work/39495934
p550
sVtroveUrl
p551
Vhttp://trove.nla.gov.au/work/39495934
p552
sVversionCount
p553
I1
sVisPartOf
p554
VChemeca 96: Excellence in Chemical Engineering; 24th Australian and New Zealand Chemical Engineering Conference and Exhibition; Proceedings
p555
sVholdingsCount
p556
I0
sVrelevance
p557
(dp558
Vscore
p559
V1.0
p560
sVvalue
p561
Vvery relevant
p562
ssVissued
p563
V423-2012
p564
sVcontributor
p565
(lp566
VHocking, D
p567
aV O'Neill, BK
p568
aV Roach, JR
p569
asVidentifier
p570
(lp571
(dp572
Vlinktype
p573
Vrestricted
p574
sVtype
p575
Vurl
p576
sVvalue
p577
Vhttp://search.informit.com.au/fullText;dn=893711240175809;res=IELENG
p578
sasVtype
p579
(lp580
VArticle/Conference paper
p581
aVArticle
p582
asVid
p583
V39495934
p584
sa(dp585
Vtitle
p586
VDynamic Simulation of Distillation Columns with Structured Packing Using the NIMBUS Simulator
p587
sVurl
p588
V/work/39495938
p589
sVtroveUrl
p590
Vhttp://trove.nla.gov.au/work/39495938
p591
sVversionCount
p592
I1
sVisPartOf
p593
VChemeca 96: Excellence in Chemical Engineering; 24th Australian and New Zealand Chemical Engineering Conference and Exhibition; Proceedings
p594
sVholdingsCount
p595
I0
sVrelevance
p596
(dp597
Vscore
p598
V1.0
p599
sVvalue
p600
Vvery relevant
p601
ssVissued
p602
V423-2012
p603
sVcontributor
p604
(lp605
VSadeghi, Mohammad T
p606
aV Wang, Fu Yang
p607
aV Cameron, Ian T
p608
asVidentifier
p609
(lp610
(dp611
Vlinktype
p612
Vrestricted
p613
sVtype
p614
Vurl
p615
sVvalue
p616
Vhttp://search.informit.com.au/fullText;dn=893860303945874;res=IELENG
p617
sasVtype
p618
(lp619
VArticle/Conference paper
p620
aVArticle
p621
asVid
p622
V39495938
p623
sa(dp624
Vtitle
p625
VNeutralisation of Acid Mine Drainage from Brukunga Pyrites Mine
p626
sVurl
p627
V/work/39495970
p628
sVtroveUrl
p629
Vhttp://trove.nla.gov.au/work/39495970
p630
sVversionCount
p631
I1
sVisPartOf
p632
VChemeca 96: Excellence in Chemical Engineering; 24th Australian and New Zealand Chemical Engineering Conference and Exhibition; Proceedings
p633
sVholdingsCount
p634
I0
sVrelevance
p635
(dp636
Vscore
p637
V1.0
p638
sVvalue
p639
Vvery relevant
p640
ssVissued
p641
V423-2012
p642
sVcontributor
p643
(lp644
VQuast, KB
p645
asVidentifier
p646
(lp647
(dp648
Vlinktype
p649
Vrestricted
p650
sVtype
p651
Vurl
p652
sVvalue
p653
Vhttp://search.informit.com.au/fullText;dn=895220510847723;res=IELENG
p654
sasVtype
p655
(lp656
VArticle/Conference paper
p657
aVArticle
p658
asVid
p659
V39495970
p660
sa(dp661
Vtitle
p662
VModel Predictive Control Using Approximate Models
p663
sVurl
p664
V/work/39495959
p665
sVtroveUrl
p666
Vhttp://trove.nla.gov.au/work/39495959
p667
sVversionCount
p668
I1
sVisPartOf
p669
VChemeca 96: Excellence in Chemical Engineering; 24th Australian and New Zealand Chemical Engineering Conference and Exhibition; Proceedings
p670
sVholdingsCount
p671
I0
sVrelevance
p672
(dp673
Vscore
p674
V1.0
p675
sVvalue
p676
Vvery relevant
p677
ssVissued
p678
V423-2012
p679
sVcontributor
p680
(lp681
VNorquay, SJ
p682
aV Palazoglu, A
p683
aV Romagnoli, JA
p684
asVidentifier
p685
(lp686
(dp687
Vlinktype
p688
Vrestricted
p689
sVtype
p690
Vurl
p691
sVvalue
p692
Vhttp://search.informit.com.au/fullText;dn=894829218451301;res=IELENG
p693
sasVtype
p694
(lp695
VArticle/Conference paper
p696
aVArticle
p697
asVid
p698
V39495959
p699
sa(dp700
Vtitle
p701
VOptimal Scale-up of an Ion-exchange Process to Manufacture WGFE
p702
sVurl
p703
V/work/39496004
p704
sVtroveUrl
p705
Vhttp://trove.nla.gov.au/work/39496004
p706
sVversionCount
p707
I1
sVisPartOf
p708
VChemeca 96: Excellence in Chemical Engineering; 24th Australian and New Zealand Chemical Engineering Conference and Exhibition; Proceedings
p709
sVholdingsCount
p710
I0
sVrelevance
p711
(dp712
Vscore
p713
V1.0
p714
sVvalue
p715
Vvery relevant
p716
ssVissued
p717
V423-2012
p718
sVcontributor
p719
(lp720
VColby, Christopher B
p721
aV O'Neill, Brian K
p722
aV Middelberg, Anton PJ
p723
asVidentifier
p724
(lp725
(dp726
Vlinktype
p727
Vrestricted
p728
sVtype
p729
Vurl
p730
sVvalue
p731
Vhttp://search.informit.com.au/fullText;dn=896357122094473;res=IELENG
p732
sasVtype
p733
(lp734
VArticle/Conference paper
p735
aVArticle
p736
asVid
p737
V39496004
p738
sa(dp739
Vtitle
p740
VBioaerosol Generation and Dispersion in Coastal Regions
p741
sVurl
p742
V/work/39495997
p743
sVtroveUrl
p744
Vhttp://trove.nla.gov.au/work/39495997
p745
sVversionCount
p746
I1
sVisPartOf
p747
VChemeca 96: Excellence in Chemical Engineering; 24th Australian and New Zealand Chemical Engineering Conference and Exhibition; Proceedings
p748
sVholdingsCount
p749
I0
sVrelevance
p750
(dp751
Vscore
p752
V1.0
p753
sVvalue
p754
Vvery relevant
p755
ssVissued
p756
V423-2012
p757
sVcontributor
p758
(lp759
VZhang, W
p760
aV Gomes, Vincent G
p761
asVidentifier
p762
(lp763
(dp764
Vlinktype
p765
Vrestricted
p766
sVtype
p767
Vurl
p768
sVvalue
p769
Vhttp://search.informit.com.au/fullText;dn=896114893468116;res=IELENG
p770
sasVtype
p771
(lp772
VArticle/Conference paper
p773
aVArticle
p774
asVid
p775
V39495997
p776
sa(dp777
Vtitle
p778
VInsights into Electrical Field-flow Fractionation by Simulation
p779
sVurl
p780
V/work/39496020
p781
sVtroveUrl
p782
Vhttp://trove.nla.gov.au/work/39496020
p783
sVversionCount
p784
I1
sVisPartOf
p785
VChemeca 96: Excellence in Chemical Engineering; 24th Australian and New Zealand Chemical Engineering Conference and Exhibition; Proceedings
p786
sVholdingsCount
p787
I0
sVrelevance
p788
(dp789
Vscore
p790
V1.0
p791
sVvalue
p792
Vvery relevant
p793
ssVissued
p794
V423-2012
p795
sVcontributor
p796
(lp797
VQuerzoli, AL
p798
aV Bush, MJ
p799
aV Baart, GJE
p800
aV Colby, CB
p801
aV Chittleborough, DJ
p802
aV Middelberg, APJ
p803
asVidentifier
p804
(lp805
(dp806
Vlinktype
p807
Vrestricted
p808
sVtype
p809
Vurl
p810
sVvalue
p811
Vhttp://search.informit.com.au/fullText;dn=897102440944801;res=IELENG
p812
sasVtype
p813
(lp814
VArticle/Conference paper
p815
aVArticle
p816
asVid
p817
V39496020
p818
sa(dp819
Vtitle
p820
VWater Reuse by Microfiltration-reverse Osmosis (MF-RO) Membranes
p821
sVurl
p822
V/work/39496001
p823
sVtroveUrl
p824
Vhttp://trove.nla.gov.au/work/39496001
p825
sVversionCount
p826
I1
sVisPartOf
p827
VChemeca 96: Excellence in Chemical Engineering; 24th Australian and New Zealand Chemical Engineering Conference and Exhibition; Proceedings
p828
sVholdingsCount
p829
I0
sVrelevance
p830
(dp831
Vscore
p832
V1.0
p833
sVvalue
p834
Vvery relevant
p835
ssVissued
p836
V423-2012
p837
sVcontributor
p838
(lp839
VSadr Ghayeni, SB
p840
aV Beatson, PJ
p841
aV Schneider, RP
p842
aV Fane, AG
p843
asVidentifier
p844
(lp845
(dp846
Vlinktype
p847
Vrestricted
p848
sVtype
p849
Vurl
p850
sVvalue
p851
Vhttp://search.informit.com.au/fullText;dn=896208058324407;res=IELENG
p852
sasVtype
p853
(lp854
VArticle/Conference paper
p855
aVArticle
p856
asVid
p857
V39496001
p858
sa(dp859
Vtitle
p860
VObserving Dense-phase Fluidisation Using Capacitance Tomographic Imaging
p861
sVurl
p862
V/work/39496026
p863
sVtroveUrl
p864
Vhttp://trove.nla.gov.au/work/39496026
p865
sVversionCount
p866
I1
sVisPartOf
p867
VChemeca 96: Excellence in Chemical Engineering; 24th Australian and New Zealand Chemical Engineering Conference and Exhibition; Proceedings
p868
sVholdingsCount
p869
I0
sVrelevance
p870
(dp871
Vscore
p872
V1.0
p873
sVvalue
p874
Vvery relevant
p875
ssVissued
p876
V423-2012
p877
sVcontributor
p878
(lp879
VWhite, RB
p880
asVidentifier
p881
(lp882
(dp883
Vlinktype
p884
Vrestricted
p885
sVtype
p886
Vurl
p887
sVvalue
p888
Vhttp://search.informit.com.au/fullText;dn=897344669571158;res=IELENG
p889
sasVtype
p890
(lp891
VArticle/Conference paper
p892
aVArticle
p893
asVid
p894
V39496026
p895
sa(dp896
Vtitle
p897
VParticle Size Sorting by Different Modes of Vibration
p898
sVurl
p899
V/work/39496019
p900
sVtroveUrl
p901
Vhttp://trove.nla.gov.au/work/39496019
p902
sVversionCount
p903
I1
sVisPartOf
p904
VChemeca 96: Excellence in Chemical Engineering; 24th Australian and New Zealand Chemical Engineering Conference and Exhibition; Proceedings
p905
sVholdingsCount
p906
I0
sVrelevance
p907
(dp908
Vscore
p909
V1.0
p910
sVvalue
p911
Vvery relevant
p912
ssVissued
p913
V423-2012
p914
sVcontributor
p915
(lp916
VLiffman, K
p917
aV Metcalfe, G
p918
asVidentifier
p919
(lp920
(dp921
Vlinktype
p922
Vrestricted
p923
sVtype
p924
Vurl
p925
sVvalue
p926
Vhttp://search.informit.com.au/fullText;dn=897046542031026;res=IELENG
p927
sasVtype
p928
(lp929
VArticle/Conference paper
p930
aVArticle
p931
asVid
p932
V39496019
p933
sa(dp934
Vtitle
p935
VThe Influence of Sorbitan Mono Oleate on the Stability of Water Droplets in a Continuous Oil Phase
p936
sVurl
p937
V/work/39496021
p938
sVtroveUrl
p939
Vhttp://trove.nla.gov.au/work/39496021
p940
sVversionCount
p941
I1
sVisPartOf
p942
VChemeca 96: Excellence in Chemical Engineering; 24th Australian and New Zealand Chemical Engineering Conference and Exhibition; Proceedings
p943
sVholdingsCount
p944
I0
sVrelevance
p945
(dp946
Vscore
p947
V1.0
p948
sVvalue
p949
Vvery relevant
p950
ssVissued
p951
V423-2012
p952
sVcontributor
p953
(lp954
VHart, L
p955
aV Galvin, KP
p956
asVidentifier
p957
(lp958
(dp959
Vlinktype
p960
Vrestricted
p961
sVtype
p962
Vurl
p963
sVvalue
p964
Vhttp://search.informit.com.au/fullText;dn=897139706887317;res=IELENG
p965
sasVtype
p966
(lp967
VArticle/Conference paper
p968
aVArticle
p969
asVid
p970
V39496021
p971
sa(dp972
Vtitle
p973
VUse of Process Tomography to Study the Structure of a Gas-solid Fluidized Bed
p974
sVurl
p975
V/work/39496027
p976
sVtroveUrl
p977
Vhttp://trove.nla.gov.au/work/39496027
p978
sVversionCount
p979
I1
sVisPartOf
p980
VChemeca 96: Excellence in Chemical Engineering; 24th Australian and New Zealand Chemical Engineering Conference and Exhibition; Proceedings
p981
sVholdingsCount
p982
I0
sVrelevance
p983
(dp984
Vscore
p985
V1.0
p986
sVvalue
p987
Vvery relevant
p988
ssVissued
p989
V423-2012
p990
sVcontributor
p991
(lp992
VMathers, BJ
p993
aV Rhodes, MJ
p994
asVidentifier
p995
(lp996
(dp997
Vlinktype
p998
Vrestricted
p999
sVtype
p1000
Vurl
p1001
sVvalue
p1002
Vhttp://search.informit.com.au/fullText;dn=897363302542416;res=IELENG
p1003
sasVtype
p1004
(lp1005
VArticle/Conference paper
p1006
aVArticle
p1007
asVid
p1008
V39496027
p1009
sa(dp1010
Vtitle
p1011
VProductivity and Auditability of HAZOP Techniques and Management Accountability
p1012
sVurl
p1013
V/work/39496047
p1014
sVtroveUrl
p1015
Vhttp://trove.nla.gov.au/work/39496047
p1016
sVversionCount
p1017
I1
sVisPartOf
p1018
VChemeca 96: Excellence in Chemical Engineering; 24th Australian and New Zealand Chemical Engineering Conference and Exhibition; Proceedings
p1019
sVholdingsCount
p1020
I0
sVrelevance
p1021
(dp1022
Vscore
p1023
V1.0
p1024
sVvalue
p1025
Vvery relevant
p1026
ssVissued
p1027
V423-2012
p1028
sVcontributor
p1029
(lp1030
VMahant, Ren
p1031
asVidentifier
p1032
(lp1033
(dp1034
Vlinktype
p1035
Vrestricted
p1036
sVtype
p1037
Vurl
p1038
sVvalue
p1039
Vhttp://search.informit.com.au/fullText;dn=898089988421486;res=IELENG
p1040
sasVtype
p1041
(lp1042
VArticle/Conference paper
p1043
aVArticle
p1044
asVid
p1045
V39496047
p1046
sa(dp1047
Vtitle
p1048
VSensitivity of an Environmental Risk Ranking System
p1049
sVurl
p1050
V/work/39496051
p1051
sVtroveUrl
p1052
Vhttp://trove.nla.gov.au/work/39496051
p1053
sVversionCount
p1054
I1
sVisPartOf
p1055
VChemeca 96: Excellence in Chemical Engineering; 24th Australian and New Zealand Chemical Engineering Conference and Exhibition; Proceedings
p1056
sVholdingsCount
p1057
I0
sVrelevance
p1058
(dp1059
Vscore
p1060
V1.0
p1061
sVvalue
p1062
Vvery relevant
p1063
ssVissued
p1064
V423-2012
p1065
sVcontributor
p1066
(lp1067
VHutchison, Robert B
p1068
aV Witt, Howard H
p1069
asVidentifier
p1070
(lp1071
(dp1072
Vlinktype
p1073
Vrestricted
p1074
sVtype
p1075
Vurl
p1076
sVvalue
p1077
Vhttp://search.informit.com.au/fullText;dn=898220419220293;res=IELENG
p1078
sasVtype
p1079
(lp1080
VArticle/Conference paper
p1081
aVArticle
p1082
asVid
p1083
V39496051
p1084
sa(dp1085
Vtitle
p1086
VMIKE-11- a Powerful Menu-driven River Modelling System
p1087
sVurl
p1088
V/work/39496074
p1089
sVtroveUrl
p1090
Vhttp://trove.nla.gov.au/work/39496074
p1091
sVversionCount
p1092
I1
sVisPartOf
p1093
VWatercomp '89: The First Australasian Conference on Technical Computing in the Water Industry; Preprints of Papers
p1094
sVholdingsCount
p1095
I0
sVrelevance
p1096
(dp1097
Vscore
p1098
V1.0
p1099
sVvalue
p1100
Vvery relevant
p1101
ssVissued
p1102
V423-2012
p1103
sVcontributor
p1104
(lp1105
VCarr, RS
p1106
aV McCowan, AD
p1107
aV Lindberg, S
p1108
asVidentifier
p1109
(lp1110
(dp1111
Vlinktype
p1112
Vrestricted
p1113
sVtype
p1114
Vurl
p1115
sVvalue
p1116
Vhttp://search.informit.com.au/fullText;dn=890096443751718;res=IELENG
p1117
sasVtype
p1118
(lp1119
VArticle/Conference paper
p1120
aVArticle
p1121
asVid
p1122
V39496074
p1123
sa(dp1124
Vtitle
p1125
VPC Programs for Flooding and Stormwater Drainage
p1126
sVurl
p1127
V/work/39496088
p1128
sVtroveUrl
p1129
Vhttp://trove.nla.gov.au/work/39496088
p1130
sVversionCount
p1131
I1
sVisPartOf
p1132
VWatercomp '89: The First Australasian Conference on Technical Computing in the Water Industry; Preprints of Papers
p1133
sVholdingsCount
p1134
I0
sVrelevance
p1135
(dp1136
Vscore
p1137
V1.0
p1138
sVvalue
p1139
Vvery relevant
p1140
ssVissued
p1141
V423-2012
p1142
sVcontributor
p1143
(lp1144
VBoyd, MJ
p1145
aV Bates, BC
p1146
aV Cordery, I
p1147
aV Pilgrim, DH
p1148
asVidentifier
p1149
(lp1150
(dp1151
Vlinktype
p1152
Vrestricted
p1153
sVtype
p1154
Vurl
p1155
sVvalue
p1156
Vhttp://search.informit.com.au/fullText;dn=890357305349333;res=IELENG
p1157
sasVtype
p1158
(lp1159
VArticle/Conference paper
p1160
aVArticle
p1161
asVid
p1162
V39496088
p1163
sa(dp1164
Vtitle
p1165
VNATCOM - Getting Water Research Information to Users
p1166
sVurl
p1167
V/work/39496100
p1168
sVtroveUrl
p1169
Vhttp://trove.nla.gov.au/work/39496100
p1170
sVversionCount
p1171
I1
sVisPartOf
p1172
VWatercomp '89: The First Australasian Conference on Technical Computing in the Water Industry; Preprints of Papers
p1173
sVholdingsCount
p1174
I0
sVrelevance
p1175
(dp1176
Vscore
p1177
V1.0
p1178
sVvalue
p1179
Vvery relevant
p1180
ssVissued
p1181
V423-2012
p1182
sVcontributor
p1183
(lp1184
VMartin, PG
p1185
asVidentifier
p1186
(lp1187
(dp1188
Vlinktype
p1189
Vrestricted
p1190
sVtype
p1191
Vurl
p1192
sVvalue
p1193
Vhttp://search.informit.com.au/fullText;dn=890636799918206;res=IELENG
p1194
sasVtype
p1195
(lp1196
VArticle/Conference paper
p1197
aVArticle
p1198
asVid
p1199
V39496100
p1200
sa(dp1201
Vtitle
p1202
VA Graphical Editor for Water Resources Models
p1203
sVurl
p1204
V/work/39496075
p1205
sVtroveUrl
p1206
Vhttp://trove.nla.gov.au/work/39496075
p1207
sVversionCount
p1208
I1
sVisPartOf
p1209
VWatercomp '89: The First Australasian Conference on Technical Computing in the Water Industry; Preprints of Papers
p1210
sVholdingsCount
p1211
I0
sVrelevance
p1212
(dp1213
Vscore
p1214
V1.0
p1215
sVvalue
p1216
Vvery relevant
p1217
ssVissued
p1218
V423-2012
p1219
sVcontributor
p1220
(lp1221
VPhillips, BC
p1222
aV Bogiatzis, T
p1223
aV Thompson, GR
p1224
aV Goyen, AG
p1225
asVidentifier
p1226
(lp1227
(dp1228
Vlinktype
p1229
Vrestricted
p1230
sVtype
p1231
Vurl
p1232
sVvalue
p1233
Vhttp://search.informit.com.au/fullText;dn=890115076722976;res=IELENG
p1234
sasVtype
p1235
(lp1236
VArticle/Conference paper
p1237
aVArticle
p1238
asVid
p1239
V39496075
p1240
sa(dp1241
Vtitle
p1242
VAfter Computer Water Network Analysis the Next Quantum Step is Optimization
p1243
sVurl
p1244
V/work/39496102
p1245
sVtroveUrl
p1246
Vhttp://trove.nla.gov.au/work/39496102
p1247
sVversionCount
p1248
I1
sVisPartOf
p1249
VWatercomp '89: The First Australasian Conference on Technical Computing in the Water Industry; Preprints of Papers
p1250
sVholdingsCount
p1251
I0
sVrelevance
p1252
(dp1253
Vscore
p1254
V1.0
p1255
sVvalue
p1256
Vvery relevant
p1257
ssVissued
p1258
V423-2012
p1259
sVcontributor
p1260
(lp1261
VVigus, CL
p1262
asVidentifier
p1263
(lp1264
(dp1265
Vlinktype
p1266
Vrestricted
p1267
sVtype
p1268
Vurl
p1269
sVvalue
p1270
Vhttp://search.informit.com.au/fullText;dn=890674065860722;res=IELENG
p1271
sasVtype
p1272
(lp1273
VArticle/Conference paper
p1274
aVArticle
p1275
asVid
p1276
V39496102
p1277
sa(dp1278
Vtitle
p1279
VPipe Network Layout and Analysis - the Computer Graphics Approach
p1280
sVurl
p1281
V/work/39496104
p1282
sVtroveUrl
p1283
Vhttp://trove.nla.gov.au/work/39496104
p1284
sVversionCount
p1285
I1
sVisPartOf
p1286
VWatercomp '89: The First Australasian Conference on Technical Computing in the Water Industry; Preprints of Papers
p1287
sVholdingsCount
p1288
I0
sVrelevance
p1289
(dp1290
Vscore
p1291
V1.0
p1292
sVvalue
p1293
Vvery relevant
p1294
ssVissued
p1295
V423-2012
p1296
sVcontributor
p1297
(lp1298
VWade, GT
p1299
aV Whaite, P
p1300
aV MacKenzie, P
p1301
asVidentifier
p1302
(lp1303
(dp1304
Vlinktype
p1305
Vrestricted
p1306
sVtype
p1307
Vurl
p1308
sVvalue
p1309
Vhttp://search.informit.com.au/fullText;dn=890711331803238;res=IELENG
p1310
sasVtype
p1311
(lp1312
VArticle/Conference paper
p1313
aVArticle
p1314
asVid
p1315
V39496104
p1316
sa(dp1317
Vtitle
p1318
VComputing Floods and River Flows Using Quasi-characteristics
p1319
sVurl
p1320
V/work/39496110
p1321
sVtroveUrl
p1322
Vhttp://trove.nla.gov.au/work/39496110
p1323
sVversionCount
p1324
I1
sVisPartOf
p1325
VWatercomp '89: The First Australasian Conference on Technical Computing in the Water Industry; Preprints of Papers
p1326
sVholdingsCount
p1327
I0
sVrelevance
p1328
(dp1329
Vscore
p1330
V1.0
p1331
sVvalue
p1332
Vvery relevant
p1333
ssVissued
p1334
V423-2012
p1335
sVcontributor
p1336
(lp1337
VZoppou, C
p1338
aV Fenton, JD
p1339
asVidentifier
p1340
(lp1341
(dp1342
Vlinktype
p1343
Vrestricted
p1344
sVtype
p1345
Vurl
p1346
sVvalue
p1347
Vhttp://search.informit.com.au/fullText;dn=890823129630788;res=IELENG
p1348
sasVtype
p1349
(lp1350
VArticle/Conference paper
p1351
aVArticle
p1352
asVid
p1353
V39496110
p1354
sa(dp1355
Vtitle
p1356
VApplication of CAD Systems to Sewermain Design
p1357
sVurl
p1358
V/work/39496124
p1359
sVtroveUrl
p1360
Vhttp://trove.nla.gov.au/work/39496124
p1361
sVversionCount
p1362
I1
sVisPartOf
p1363
VWatercomp '89: The First Australasian Conference on Technical Computing in the Water Industry; Preprints of Papers
p1364
sVholdingsCount
p1365
I0
sVrelevance
p1366
(dp1367
Vscore
p1368
V1.0
p1369
sVvalue
p1370
Vvery relevant
p1371
ssVissued
p1372
V423-2012
p1373
sVcontributor
p1374
(lp1375
VLarge, AR
p1376
asVidentifier
p1377
(lp1378
(dp1379
Vlinktype
p1380
Vrestricted
p1381
sVtype
p1382
Vurl
p1383
sVvalue
p1384
Vhttp://search.informit.com.au/fullText;dn=891605714423632;res=IELENG
p1385
sasVtype
p1386
(lp1387
VArticle/Conference paper
p1388
aVArticle
p1389
asVid
p1390
V39496124
p1391
sa(dp1392
Vtitle
p1393
VInsights into ILSAX: Making and Marketing an Urban Stormwater Drainage Program
p1394
sVurl
p1395
V/work/39496097
p1396
sVtroveUrl
p1397
Vhttp://trove.nla.gov.au/work/39496097
p1398
sVversionCount
p1399
I1
sVisPartOf
p1400
VWatercomp '89: The First Australasian Conference on Technical Computing in the Water Industry; Preprints of Papers
p1401
sVholdingsCount
p1402
I0
sVrelevance
p1403
(dp1404
Vscore
p1405
V1.0
p1406
sVvalue
p1407
Vvery relevant
p1408
ssVissued
p1409
V423-2012
p1410
sVcontributor
p1411
(lp1412
VO'Loughlin, GG
p1413
asVidentifier
p1414
(lp1415
(dp1416
Vlinktype
p1417
Vrestricted
p1418
sVtype
p1419
Vurl
p1420
sVvalue
p1421
Vhttp://search.informit.com.au/fullText;dn=890562268033173;res=IELENG
p1422
sasVtype
p1423
(lp1424
VArticle/Conference paper
p1425
aVArticle
p1426
asVid
p1427
V39496097
p1428
sa(dp1429
Vtitle
p1430
VInternational Technology Transfer through HOMS
p1431
sVurl
p1432
V/work/39496099
p1433
sVtroveUrl
p1434
Vhttp://trove.nla.gov.au/work/39496099
p1435
sVversionCount
p1436
I1
sVisPartOf
p1437
VWatercomp '89: The First Australasian Conference on Technical Computing in the Water Industry; Preprints of Papers
p1438
sVholdingsCount
p1439
I0
sVrelevance
p1440
(dp1441
Vscore
p1442
V1.0
p1443
sVvalue
p1444
Vvery relevant
p1445
ssVissued
p1446
V423-2012
p1447
sVcontributor
p1448
(lp1449
VHall, AJ
p1450
asVidentifier
p1451
(lp1452
(dp1453
Vlinktype
p1454
Vrestricted
p1455
sVtype
p1456
Vurl
p1457
sVvalue
p1458
Vhttp://search.informit.com.au/fullText;dn=890618166946947;res=IELENG
p1459
sasVtype
p1460
(lp1461
VArticle/Conference paper
p1462
aVArticle
p1463
asVid
p1464
V39496099
p1465
sa(dp1466
Vtitle
p1467
VAssesment and Improvement of the Codification and Delivery of Engineering Experience
p1468
sVurl
p1469
V/work/39496101
p1470
sVtroveUrl
p1471
Vhttp://trove.nla.gov.au/work/39496101
p1472
sVversionCount
p1473
I1
sVisPartOf
p1474
VWatercomp '89: The First Australasian Conference on Technical Computing in the Water Industry; Preprints of Papers
p1475
sVholdingsCount
p1476
I0
sVrelevance
p1477
(dp1478
Vscore
p1479
V1.0
p1480
sVvalue
p1481
Vvery relevant
p1482
ssVissued
p1483
V423-2012
p1484
sVcontributor
p1485
(lp1486
VHadgraft, RG
p1487
aV Wigan, MR
p1488
asVidentifier
p1489
(lp1490
(dp1491
Vlinktype
p1492
Vrestricted
p1493
sVtype
p1494
Vurl
p1495
sVvalue
p1496
Vhttp://search.informit.com.au/fullText;dn=890655432889464;res=IELENG
p1497
sasVtype
p1498
(lp1499
VArticle/Conference paper
p1500
aVArticle
p1501
asVid
p1502
V39496101
p1503
sa(dp1504
Vtitle
p1505
VPipe Network Optimisation
p1506
sVurl
p1507
V/work/39496103
p1508
sVtroveUrl
p1509
Vhttp://trove.nla.gov.au/work/39496103
p1510
sVversionCount
p1511
I1
sVisPartOf
p1512
VWatercomp '89: The First Australasian Conference on Technical Computing in the Water Industry; Preprints of Papers
p1513
sVholdingsCount
p1514
I0
sVrelevance
p1515
(dp1516
Vscore
p1517
V1.0
p1518
sVvalue
p1519
Vvery relevant
p1520
ssVissued
p1521
V423-2012
p1522
sVcontributor
p1523
(lp1524
VWaters, C
p1525
asVidentifier
p1526
(lp1527
(dp1528
Vlinktype
p1529
Vrestricted
p1530
sVtype
p1531
Vurl
p1532
sVvalue
p1533
Vhttp://search.informit.com.au/fullText;dn=890692698831980;res=IELENG
p1534
sasVtype
p1535
(lp1536
VArticle/Conference paper
p1537
aVArticle
p1538
asVid
p1539
V39496103
p1540
sa(dp1541
Vtitle
p1542
VLinking Music Education to the Music Industry
p1543
sVurl
p1544
V/work/39496138
p1545
sVtroveUrl
p1546
Vhttp://trove.nla.gov.au/work/39496138
p1547
sVversionCount
p1548
I1
sVisPartOf
p1549
VConference Proceedings: Opening the Umbrella; an Encompassing View of Music Education; Australian Society for Music Education, XII National Conference, University of Sydney, NSW, Australia, 09-13 July 1999
p1550
sVholdingsCount
p1551
I0
sVrelevance
p1552
(dp1553
Vscore
p1554
V1.0
p1555
sVvalue
p1556
Vvery relevant
p1557
ssVissued
p1558
V423-2012
p1559
sVcontributor
p1560
(lp1561
VForrest, David
p1562
aV Australian Society of Music Education
p1563
asVidentifier
p1564
(lp1565
(dp1566
Vlinktype
p1567
Vrestricted
p1568
sVtype
p1569
Vurl
p1570
sVvalue
p1571
Vhttp://search.informit.com.au/fullText;dn=799521570465608;res=IELHSS
p1572
sasVtype
p1573
(lp1574
VArticle/Conference paper
p1575
aVArticle
p1576
asVid
p1577
V39496138
p1578
sa(dp1579
Vtitle
p1580
VData Logger Design - a Software Perspective
p1581
sVurl
p1582
V/work/39496115
p1583
sVtroveUrl
p1584
Vhttp://trove.nla.gov.au/work/39496115
p1585
sVversionCount
p1586
I1
sVisPartOf
p1587
VWatercomp '89: The First Australasian Conference on Technical Computing in the Water Industry; Preprints of Papers
p1588
sVholdingsCount
p1589
I0
sVrelevance
p1590
(dp1591
Vscore
p1592
V1.0
p1593
sVvalue
p1594
Vvery relevant
p1595
ssVissued
p1596
V423-2012
p1597
sVcontributor
p1598
(lp1599
VFalkland, AC
p1600
aV Heweston, PF
p1601
asVidentifier
p1602
(lp1603
(dp1604
Vlinktype
p1605
Vrestricted
p1606
sVtype
p1607
Vurl
p1608
sVvalue
p1609
Vhttp://search.informit.com.au/fullText;dn=890916294487079;res=IELENG
p1610
sasVtype
p1611
(lp1612
VArticle/Conference paper
p1613
aVArticle
p1614
asVid
p1615
V39496115
p1616
sa(dp1617
Vtitle
p1618
VImplications of a Study on Delivery of Professional Development for Teachers of K-6 Children and the Creative Arts Umbrella
p1619
sVurl
p1620
V/work/39496156
p1621
sVtroveUrl
p1622
Vhttp://trove.nla.gov.au/work/39496156
p1623
sVversionCount
p1624
I1
sVisPartOf
p1625
VConference Proceedings: Opening the Umbrella; an Encompassing View of Music Education; Australian Society for Music Education, XII National Conference, University of Sydney, NSW, Australia, 09-13 July 1999
p1626
sVholdingsCount
p1627
I0
sVrelevance
p1628
(dp1629
Vscore
p1630
V1.0
p1631
sVvalue
p1632
Vvery relevant
p1633
ssVissued
p1634
V423-2012
p1635
sVcontributor
p1636
(lp1637
VPower, Anne
p1638
aV Australian Society of Music Education
p1639
asVidentifier
p1640
(lp1641
(dp1642
Vlinktype
p1643
Vrestricted
p1644
sVtype
p1645
Vurl
p1646
sVvalue
p1647
Vhttp://search.informit.com.au/fullText;dn=799838330976997;res=IELHSS
p1648
sasVtype
p1649
(lp1650
VArticle/Conference paper
p1651
aVArticle
p1652
asVid
p1653
V39496156
p1654
sa(dp1655
Vtitle
p1656
VJESS - a Joint Expert Speciation System
p1657
sVurl
p1658
V/work/39496125
p1659
sVtroveUrl
p1660
Vhttp://trove.nla.gov.au/work/39496125
p1661
sVversionCount
p1662
I1
sVisPartOf
p1663
VWatercomp '89: The First Australasian Conference on Technical Computing in the Water Industry; Preprints of Papers
p1664
sVholdingsCount
p1665
I0
sVrelevance
p1666
(dp1667
Vscore
p1668
V1.0
p1669
sVvalue
p1670
Vvery relevant
p1671
ssVissued
p1672
V423-2012
p1673
sVcontributor
p1674
(lp1675
VMay, PM
p1676
aV Murray, K
p1677
asVidentifier
p1678
(lp1679
(dp1680
Vlinktype
p1681
Vrestricted
p1682
sVtype
p1683
Vurl
p1684
sVvalue
p1685
Vhttp://search.informit.com.au/fullText;dn=891941107906280;res=IELENG
p1686
sasVtype
p1687
(lp1688
VArticle/Conference paper
p1689
aVArticle
p1690
asVid
p1691
V39496125
p1692
sa(dp1693
Vtitle
p1694
VA Stream and Catchment Numbering System for the Natural Resource Sector of Victoria
p1695
sVurl
p1696
V/work/39496129
p1697
sVtroveUrl
p1698
Vhttp://trove.nla.gov.au/work/39496129
p1699
sVversionCount
p1700
I1
sVisPartOf
p1701
VWatercomp '89: The First Australasian Conference on Technical Computing in the Water Industry; Preprints of Papers
p1702
sVholdingsCount
p1703
I0
sVrelevance
p1704
(dp1705
Vscore
p1706
V1.0
p1707
sVvalue
p1708
Vvery relevant
p1709
ssVissued
p1710
V423-2012
p1711
sVcontributor
p1712
(lp1713
VNason, S
p1714
aV McLean, E
p1715
aV Doolan, JM
p1716
asVidentifier
p1717
(lp1718
(dp1719
Vlinktype
p1720
Vrestricted
p1721
sVtype
p1722
Vurl
p1723
sVvalue
p1724
Vhttp://search.informit.com.au/fullText;dn=892295134360185;res=IELENG
p1725
sasVtype
p1726
(lp1727
VArticle/Conference paper
p1728
aVArticle
p1729
asVid
p1730
V39496129
p1731
sa(dp1732
Vtitle
p1733
V'Composition by Committee': Introducing New Stylistic Ideas through Class Composing Activities at Middle Primary School Level
p1734
sVurl
p1735
V/work/39496133
p1736
sVtroveUrl
p1737
Vhttp://trove.nla.gov.au/work/39496133
p1738
sVversionCount
p1739
I1
sVisPartOf
p1740
VConference Proceedings: Opening the Umbrella; an Encompassing View of Music Education; Australian Society for Music Education, XII National Conference, University of Sydney, NSW, Australia, 09-13 July 1999
p1741
sVholdingsCount
p1742
I0
sVrelevance
p1743
(dp1744
Vscore
p1745
V1.0
p1746
sVvalue
p1747
Vvery relevant
p1748
ssVissued
p1749
V423-2012
p1750
sVcontributor
p1751
(lp1752
VBlom, Diana
p1753
aV Australian Society of Music Education
p1754
asVidentifier
p1755
(lp1756
(dp1757
Vlinktype
p1758
Vrestricted
p1759
sVtype
p1760
Vurl
p1761
sVvalue
p1762
Vhttp://search.informit.com.au/fullText;dn=799428405609317;res=IELHSS
p1763
sasVtype
p1764
(lp1765
VArticle/Conference paper
p1766
aVArticle
p1767
asVid
p1768
V39496133
p1769
sa(dp1770
Vtitle
p1771
VBroadening the Umbrella: Music Education in an Arts Key Learning Area
p1772
sVurl
p1773
V/work/39496166
p1774
sVtroveUrl
p1775
Vhttp://trove.nla.gov.au/work/39496166
p1776
sVversionCount
p1777
I1
sVisPartOf
p1778
VConference Proceedings: Opening the Umbrella; an Encompassing View of Music Education; Australian Society for Music Education, XII National Conference, University of Sydney, NSW, Australia, 09-13 July 1999
p1779
sVholdingsCount
p1780
I0
sVrelevance
p1781
(dp1782
Vscore
p1783
V1.0
p1784
sVvalue
p1785
Vvery relevant
p1786
ssVissued
p1787
V423-2012
p1788
sVcontributor
p1789
(lp1790
VWatson, Amanda R
p1791
aV Australian Society of Music Education
p1792
asVidentifier
p1793
(lp1794
(dp1795
Vlinktype
p1796
Vrestricted
p1797
sVtype
p1798
Vurl
p1799
sVvalue
p1800
Vhttp://search.informit.com.au/fullText;dn=801515298390235;res=IELHSS
p1801
sasVtype
p1802
(lp1803
VArticle/Conference paper
p1804
aVArticle
p1805
asVid
p1806
V39496166
p1807
sa(dp1808
Vtitle
p1809
VThe Beginning of Musical Careers in Jazz, Rock and Pop a Practice Diary Study among School-bands
p1810
sVurl
p1811
V/work/39496141
p1812
sVtroveUrl
p1813
Vhttp://trove.nla.gov.au/work/39496141
p1814
sVversionCount
p1815
I1
sVisPartOf
p1816
VConference Proceedings: Opening the Umbrella; an Encompassing View of Music Education; Australian Society for Music Education, XII National Conference, University of Sydney, NSW, Australia, 09-13 July 1999
p1817
sVholdingsCount
p1818
I0
sVrelevance
p1819
(dp1820
Vscore
p1821
V1.0
p1822
sVvalue
p1823
Vvery relevant
p1824
ssVissued
p1825
V423-2012
p1826
sVcontributor
p1827
(lp1828
VKleinen, Gunter
p1829
aV Hemming, Jan
p1830
aV Australian Society of Music Education
p1831
asVidentifier
p1832
(lp1833
(dp1834
Vlinktype
p1835
Vrestricted
p1836
sVtype
p1837
Vurl
p1838
sVvalue
p1839
Vhttp://search.informit.com.au/fullText;dn=799577469379382;res=IELHSS
p1840
sasVtype
p1841
(lp1842
VArticle/Conference paper
p1843
aVArticle
p1844
asVid
p1845
V39496141
p1846
sa(dp1847
Vtitle
p1848
VToward Democratic Consolidation?: The Argentine Supreme Court, Judicial Independence, and the Rule of Law
p1849
sVurl
p1850
V/work/39496187
p1851
sVtroveUrl
p1852
Vhttp://trove.nla.gov.au/work/39496187
p1853
sVversionCount
p1854
I2
sVisPartOf
p1855
VHigh Court Quarterly Review, The
p1856
sVholdingsCount
p1857
I0
sVrelevance
p1858
(dp1859
Vscore
p1860
V1.0
p1861
sVvalue
p1862
Vvery relevant
p1863
ssVissued
p1864
V423-2010
p1865
sVcontributor
p1866
(lp1867
VWalker, Christopher J
p1868
asVidentifier
p1869
(lp1870
(dp1871
Vlinktype
p1872
Vrestricted
p1873
sVtype
p1874
Vurl
p1875
sVvalue
p1876
Vhttp://search.informit.com.au/fullText;dn=451545146494250;res=IELHSS
p1877
sasVtype
p1878
(lp1879
VArticle
p1880
aVArticle/Journal or magazine article
p1881
asVid
p1882
V39496187
p1883
sa(dp1884
Vtitle
p1885
VThe Australian Youth Forum... Finally a National Organisation for Young People and the Sector That Supports Them?
p1886
sVurl
p1887
V/work/39496277
p1888
sVtroveUrl
p1889
Vhttp://trove.nla.gov.au/work/39496277
p1890
sVversionCount
p1891
I2
sVisPartOf
p1892
VJust Policy: A Journal of Australian Social Policy
p1893
sVholdingsCount
p1894
I0
sVrelevance
p1895
(dp1896
Vscore
p1897
V1.0
p1898
sVvalue
p1899
Vvery relevant
p1900
ssVissued
p1901
V423-2012
p1902
sVcontributor
p1903
(lp1904
VFerrari, Georgie
p1905
asVidentifier
p1906
(lp1907
(dp1908
Vlinktype
p1909
Vrestricted
p1910
sVtype
p1911
Vurl
p1912
sVvalue
p1913
Vhttp://search.informit.com.au/fullText;dn=166684281898888;res=IELHSS
p1914
sasVtype
p1915
(lp1916
VArticle
p1917
aVArticle/Journal or magazine article
p1918
asVid
p1919
V39496277
p1920
sa(dp1921
Vtitle
p1922
VAre the Potential Benefits of a Community-based Participatory Approach to Public Health Research Worth the Potential Costs?
p1923
sVurl
p1924
V/work/39496285
p1925
sVtroveUrl
p1926
Vhttp://trove.nla.gov.au/work/39496285
p1927
sVversionCount
p1928
I1
sVisPartOf
p1929
VJust Policy: A Journal of Australian Social Policy
p1930
sVholdingsCount
p1931
I0
sVrelevance
p1932
(dp1933
Vscore
p1934
V1.0
p1935
sVvalue
p1936
Vvery relevant
p1937
ssVissued
p1938
V423-2012
p1939
sVcontributor
p1940
(lp1941
VGibbs, Lisa
p1942
aV Gold, Lisa
p1943
aV Kulkens, Maree
p1944
aV Riggs, Elisha
p1945
aV van Gemert, Caroline
p1946
aV Waters, Elizabeth
p1947
asVidentifier
p1948
(lp1949
(dp1950
Vlinktype
p1951
Vrestricted
p1952
sVtype
p1953
Vurl
p1954
sVvalue
p1955
Vhttp://search.informit.com.au/fullText;dn=022781844871809;res=IELHSS
p1956
sasVtype
p1957
(lp1958
VArticle
p1959
aVArticle/Journal or magazine article
p1960
asVid
p1961
V39496285
p1962
sa(dp1963
Vtitle
p1964
VRethinking the Legitimacy of the Anglo-American High Courts' Judicial Review of Determining Factual Findings in Courts of the First Instance in Criminal Cases
p1965
sVurl
p1966
V/work/39496184
p1967
sVtroveUrl
p1968
Vhttp://trove.nla.gov.au/work/39496184
p1969
sVversionCount
p1970
I2
sVisPartOf
p1971
VHigh Court Quarterly Review, The
p1972
sVholdingsCount
p1973
I0
sVrelevance
p1974
(dp1975
Vscore
p1976
V1.0
p1977
sVvalue
p1978
Vvery relevant
p1979
ssVissued
p1980
V423-2012
p1981
sVcontributor
p1982
(lp1983
VHallevy, Gabriel
p1984
asVidentifier
p1985
(lp1986
(dp1987
Vlinktype
p1988
Vrestricted
p1989
sVtype
p1990
Vurl
p1991
sVvalue
p1992
Vhttp://search.informit.com.au/fullText;dn=603869686530035;res=IELHSS
p1993
sasVtype
p1994
(lp1995
VArticle
p1996
aVArticle/Journal or magazine article
p1997
asVid
p1998
V39496184
p1999
sa(dp2000
Vtitle
p2001
VThe Extraterritorial Application of the Canadian Charter to Detainees in Canadian Military Custody: A Re-examination of the Federal Court of Canada Case Amnesty International Canada v. Canada (Canadian Forces)
p2002
sVurl
p2003
V/work/39496186
p2004
sVtroveUrl
p2005
Vhttp://trove.nla.gov.au/work/39496186
p2006
sVversionCount
p2007
I2
sVisPartOf
p2008
VHigh Court Quarterly Review, The
p2009
sVholdingsCount
p2010
I0
sVrelevance
p2011
(dp2012
Vscore
p2013
V1.0
p2014
sVvalue
p2015
Vvery relevant
p2016
ssVissued
p2017
V423-2012
p2018
sVcontributor
p2019
(lp2020
VGrover, Sonja
p2021
asVidentifier
p2022
(lp2023
(dp2024
Vlinktype
p2025
Vrestricted
p2026
sVtype
p2027
Vurl
p2028
sVvalue
p2029
Vhttp://search.informit.com.au/fullText;dn=451507880551733;res=IELHSS
p2030
sasVtype
p2031
(lp2032
VArticle
p2033
aVArticle/Journal or magazine article
p2034
asVid
p2035
V39496186
p2036
sa(dp2037
Vtitle
p2038
VOverview and Analysis of the Development, Relief, and Education for Alien Minors Act (Dream Act) 'What Was Not But Could Be'
p2039
sVurl
p2040
V/work/39496212
p2041
sVtroveUrl
p2042
Vhttp://trove.nla.gov.au/work/39496212
p2043
sVversionCount
p2044
I1
sVisPartOf
p2045
VJournal of Migration and Refugee Issues, The
p2046
sVholdingsCount
p2047
I0
sVrelevance
p2048
(dp2049
Vscore
p2050
V1.0
p2051
sVvalue
p2052
Vvery relevant
p2053
ssVissued
p2054
V423-2012
p2055
sVcontributor
p2056
(lp2057
VEspinoza, Jean Pierre
p2058
asVidentifier
p2059
(lp2060
(dp2061
Vlinktype
p2062
Vrestricted
p2063
sVtype
p2064
Vurl
p2065
sVvalue
p2066
Vhttp://search.informit.com.au/fullText;dn=596770524480660;res=IELHSS
p2067
sasVtype
p2068
(lp2069
VArticle
p2070
aVArticle/Journal or magazine article
p2071
asVid
p2072
V39496212
p2073
sa(dp2074
Vtitle
p2075
VYouth Homelessness in Australia - a Road Map for the Future
p2076
sVurl
p2077
V/work/39496278
p2078
sVtroveUrl
p2079
Vhttp://trove.nla.gov.au/work/39496278
p2080
sVversionCount
p2081
I2
sVisPartOf
p2082
VJust Policy
p2083
sVholdingsCount
p2084
I0
sVrelevance
p2085
(dp2086
Vscore
p2087
V1.0
p2088
sVvalue
p2089
Vvery relevant
p2090
ssVissued
p2091
V423-2012
p2092
sVcontributor
p2093
(lp2094
VLazzari, Jane
p2095
asVidentifier
p2096
(lp2097
(dp2098
Vlinktype
p2099
Vrestricted
p2100
sVtype
p2101
Vurl
p2102
sVvalue
p2103
Vhttp://search.informit.com.au/fullText;dn=166721547841404;res=IELHSS
p2104
sasVtype
p2105
(lp2106
VArticle
p2107
aVArticle/Journal or magazine article
p2108
asVid
p2109
V39496278
p2110
sa(dp2111
Vtitle
p2112
VA Chance to Contribute: Some Remarks on the Potential Economic Impact of Allowing Asylum Seekers the Right to Work
p2113
sVurl
p2114
V/work/39496309
p2115
sVtroveUrl
p2116
Vhttp://trove.nla.gov.au/work/39496309
p2117
sVversionCount
p2118
I2
sVisPartOf
p2119
VJust Policy
p2120
sVholdingsCount
p2121
I0
sVrelevance
p2122
(dp2123
Vscore
p2124
V1.0
p2125
sVvalue
p2126
Vvery relevant
p2127
ssVissued
p2128
V423-2012
p2129
sVcontributor
p2130
(lp2131
VCroucher, Gwilym
p2132
asVidentifier
p2133
(lp2134
(dp2135
Vlinktype
p2136
Vrestricted
p2137
sVtype
p2138
Vurl
p2139
sVvalue
p2140
Vhttp://search.informit.com.au/fullText;dn=532678789542587;res=IELHSS
p2141
sasVtype
p2142
(lp2143
VArticle
p2144
aVArticle/Journal or magazine article
p2145
asVid
p2146
V39496309
p2147
sa(dp2148
Vtitle
p2149
VThe Ross House Legacy: Time for VCOSS to Revisit Self Help?
p2150
sVurl
p2151
V/work/39496329
p2152
sVtroveUrl
p2153
Vhttp://trove.nla.gov.au/work/39496329
p2154
sVversionCount
p2155
I2
sVisPartOf
p2156
VJust Policy: A Journal of Australian Social Policy
p2157
sVholdingsCount
p2158
I0
sVrelevance
p2159
(dp2160
Vscore
p2161
V1.0
p2162
sVvalue
p2163
Vvery relevant
p2164
ssVissued
p2165
V423-2012
p2166
sVcontributor
p2167
(lp2168
VBurke, John
p2169
aV Raysmith, Hayden
p2170
asVidentifier
p2171
(lp2172
(dp2173
Vlinktype
p2174
Vrestricted
p2175
sVtype
p2176
Vurl
p2177
sVvalue
p2178
Vhttp://search.informit.com.au/fullText;dn=316387259177401;res=IELHSS
p2179
sasVtype
p2180
(lp2181
VArticle
p2182
aVArticle/Journal or magazine article
p2183
asVid
p2184
V39496329
p2185
sa(dp2186
Vtitle
p2187
VAfter My Foetus: The Impact of the Documentary on the Australian Abortion Debate
p2188
sVurl
p2189
V/work/39496359
p2190
sVtroveUrl
p2191
Vhttp://trove.nla.gov.au/work/39496359
p2192
sVversionCount
p2193
I1
sVisPartOf
p2194
VJust Policy: A Journal of Australian Social Policy
p2195
sVholdingsCount
p2196
I0
sVrelevance
p2197
(dp2198
Vscore
p2199
V1.0
p2200
sVvalue
p2201
Vvery relevant
p2202
ssVissued
p2203
V423-2012
p2204
sVcontributor
p2205
(lp2206
VCannold, Leslie
p2207
asVidentifier
p2208
(lp2209
(dp2210
Vlinktype
p2211
Vrestricted
p2212
sVtype
p2213
Vurl
p2214
sVvalue
p2215
Vhttp://search.informit.com.au/fullText;dn=178633702665529;res=IELHSS
p2216
sasVtype
p2217
(lp2218
VArticle
p2219
aVArticle/Journal or magazine article
p2220
asVid
p2221
V39496359
p2222
sa(dp2223
Vtitle
p2224
VWho Makes Social Policy? - The Rising Influence of Economic Regulators and the Decline of Elected Governments
p2225
sVurl
p2226
V/work/39496395
p2227
sVtroveUrl
p2228
Vhttp://trove.nla.gov.au/work/39496395
p2229
sVversionCount
p2230
I2
sVisPartOf
p2231
VJust Policy
p2232
sVholdingsCount
p2233
I0
sVrelevance
p2234
(dp2235
Vscore
p2236
V1.0
p2237
sVvalue
p2238
Vvery relevant
p2239
ssVissued
p2240
V423-2012
p2241
sVcontributor
p2242
(lp2243
VDufty, Gavin
p2244
asVidentifier
p2245
(lp2246
(dp2247
Vlinktype
p2248
Vrestricted
p2249
sVtype
p2250
Vurl
p2251
sVvalue
p2252
Vhttp://search.informit.com.au/fullText;dn=184354024841796;res=IELHSS
p2253
sasVtype
p2254
(lp2255
VArticle
p2256
aVArticle/Journal or magazine article
p2257
asVid
p2258
V39496395
p2259
sa(dp2260
Vtitle
p2261
V'Just the Facts Ma'am': A Critical Appraisal of Evidence-based Policy
p2262
sVurl
p2263
V/work/39496415
p2264
sVtroveUrl
p2265
Vhttp://trove.nla.gov.au/work/39496415
p2266
sVversionCount
p2267
I2
sVisPartOf
p2268
VJust Policy
p2269
sVholdingsCount
p2270
I0
sVrelevance
p2271
(dp2272
Vscore
p2273
V1.0
p2274
sVvalue
p2275
Vvery relevant
p2276
ssVissued
p2277
V423-2012
p2278
sVcontributor
p2279
(lp2280
VMarston, Greg
p2281
aV Watts, Rob
p2282
asVidentifier
p2283
(lp2284
(dp2285
Vlinktype
p2286
Vrestricted
p2287
sVtype
p2288
Vurl
p2289
sVvalue
p2290
Vhttp://search.informit.com.au/fullText;dn=193763675327187;res=IELHSS
p2291
sasVtype
p2292
(lp2293
VArticle
p2294
aVArticle/Journal or magazine article
p2295
asVid
p2296
V39496415
p2297
sa(dp2298
Vtitle
p2299
VYuendumu, NT
p2300
sVurl
p2301
V/work/39496302
p2302
sVtroveUrl
p2303
Vhttp://trove.nla.gov.au/work/39496302
p2304
sVversionCount
p2305
I1
sVisPartOf
p2306
VJust Policy: A Journal of Australian Social Policy
p2307
sVholdingsCount
p2308
I0
sVrelevance
p2309
(dp2310
Vscore
p2311
V1.0
p2312
sVvalue
p2313
Vvery relevant
p2314
ssVissued
p2315
V423-2012
p2316
sVcontributor
p2317
(lp2318
VMaher, Rachel
p2319
asVidentifier
p2320
(lp2321
(dp2322
Vlinktype
p2323
Vrestricted
p2324
sVtype
p2325
Vurl
p2326
sVvalue
p2327
Vhttp://search.informit.com.au/fullText;dn=923878020642834;res=IELHSS
p2328
sasVtype
p2329
(lp2330
VArticle
p2331
aVArticle/Journal or magazine article
p2332
asVid
p2333
V39496302
p2334
sa(dp2335
Vtitle
p2336
VVCOSS 1976-1980
p2337
sVurl
p2338
V/work/39496328
p2339
sVtroveUrl
p2340
Vhttp://trove.nla.gov.au/work/39496328
p2341
sVversionCount
p2342
I2
sVisPartOf
p2343
VJust Policy: A Journal of Australian Social Policy
p2344
sVholdingsCount
p2345
I0
sVrelevance
p2346
(dp2347
Vscore
p2348
V1.0
p2349
sVvalue
p2350
Vvery relevant
p2351
ssVissued
p2352
V423-2012
p2353
sVcontributor
p2354
(lp2355
VSpalding, Barbara
p2356
asVidentifier
p2357
(lp2358
(dp2359
Vlinktype
p2360
Vrestricted
p2361
sVtype
p2362
Vurl
p2363
sVvalue
p2364
Vhttp://search.informit.com.au/fullText;dn=316368626206143;res=IELHSS
p2365
sasVtype
p2366
(lp2367
VArticle
p2368
aVArticle/Journal or magazine article
p2369
asVid
p2370
V39496328
p2371
sa(dp2372
Vtitle
p2373
VHomelessness and Drug Addiction
p2374
sVurl
p2375
V/work/39496348
p2376
sVtroveUrl
p2377
Vhttp://trove.nla.gov.au/work/39496348
p2378
sVversionCount
p2379
I2
sVisPartOf
p2380
VJust Policy
p2381
sVholdingsCount
p2382
I0
sVrelevance
p2383
(dp2384
Vscore
p2385
V1.0
p2386
sVvalue
p2387
Vvery relevant
p2388
ssVissued
p2389
V423-2012
p2390
sVcontributor
p2391
(lp2392
VRayner, Kim
p2393
asVidentifier
p2394
(lp2395
(dp2396
Vlinktype
p2397
Vrestricted
p2398
sVtype
p2399
Vurl
p2400
sVvalue
p2401
Vhttp://search.informit.com.au/fullText;dn=174124523621044;res=IELHSS
p2402
sasVtype
p2403
(lp2404
VArticle
p2405
aVArticle/Journal or magazine article
p2406
asVid
p2407
V39496348
p2408
sa(dp2409
Vtitle
p2410
VIn Limbo and in Danger: Street Based Sex Workers and the Issue of Tolerance Zones
p2411
sVurl
p2412
V/work/39496414
p2413
sVtroveUrl
p2414
Vhttp://trove.nla.gov.au/work/39496414
p2415
sVversionCount
p2416
I2
sVisPartOf
p2417
VJust Policy
p2418
sVholdingsCount
p2419
I0
sVrelevance
p2420
(dp2421
Vscore
p2422
V1.0
p2423
sVvalue
p2424
Vvery relevant
p2425
ssVissued
p2426
V423-2012
p2427
sVcontributor
p2428
(lp2429
VRowe, James
p2430
asVidentifier
p2431
(lp2432
(dp2433
Vlinktype
p2434
Vrestricted
p2435
sVtype
p2436
Vurl
p2437
sVvalue
p2438
Vhttp://search.informit.com.au/fullText;dn=193726409384671;res=IELHSS
p2439
sasVtype
p2440
(lp2441
VArticle
p2442
aVArticle/Journal or magazine article
p2443
asVid
p2444
V39496414
p2445
sa(dp2446
Vtitle
p2447
VRevising the Harris-Todaro Framework to Model Labour Migration from the Canadian Northern Frontier
p2448
sVurl
p2449
V/work/39496449
p2450
sVtroveUrl
p2451
Vhttp://trove.nla.gov.au/work/39496449
p2452
sVversionCount
p2453
I2
sVisPartOf
p2454
VJournal of Population Research
p2455
sVholdingsCount
p2456
I0
sVrelevance
p2457
(dp2458
Vscore
p2459
V1.0
p2460
sVvalue
p2461
Vvery relevant
p2462
ssVissued
p2463
V423-2012
p2464
sVcontributor
p2465
(lp2466
VPetrov, Andrey N
p2467
asVidentifier
p2468
(lp2469
(dp2470
Vlinktype
p2471
Vrestricted
p2472
sVtype
p2473
Vurl
p2474
sVvalue
p2475
Vhttp://search.informit.com.au/fullText;dn=021309840142412;res=IELHSS
p2476
sasVtype
p2477
(lp2478
VArticle
p2479
aVArticle/Journal or magazine article
p2480
aVMap
p2481
asVid
p2482
V39496449
p2483
sa(dp2484
Vtitle
p2485
VAn Evaluation of the Performance of Kernel Estimators for Graduating Mortality Data
p2486
sVurl
p2487
V/work/39496482
p2488
sVtroveUrl
p2489
Vhttp://trove.nla.gov.au/work/39496482
p2490
sVversionCount
p2491
I2
sVisPartOf
p2492
VJournal of Population Research (Canberra, ACT)
p2493
sVholdingsCount
p2494
I0
sVrelevance
p2495
(dp2496
Vscore
p2497
V1.0
p2498
sVvalue
p2499
Vvery relevant
p2500
ssVissued
p2501
V423-2012
p2502
sVcontributor
p2503
(lp2504
VPeristera, Paraskevi
p2505
aV Kostaki, Anastasia
p2506
asVidentifier
p2507
(lp2508
(dp2509
Vlinktype
p2510
Vrestricted
p2511
sVtype
p2512
Vurl
p2513
sVvalue
p2514
Vhttp://search.informit.com.au/fullText;dn=392316617054566;res=IELHSS
p2515
sasVtype
p2516
(lp2517
VArticle
p2518
aVArticle/Journal or magazine article
p2519
asVid
p2520
V39496482
p2521
sa(dp2522
Vtitle
p2523
VEstimation of Average Mortality under Censoring and Truncation
p2524
sVurl
p2525
V/work/39496490
p2526
sVtroveUrl
p2527
Vhttp://trove.nla.gov.au/work/39496490
p2528
sVversionCount
p2529
I1
sVisPartOf
p2530
VJournal of Population Research
p2531
sVholdingsCount
p2532
I0
sVrelevance
p2533
(dp2534
Vscore
p2535
V1.0
p2536
sVvalue
p2537
Vvery relevant
p2538
ssVissued
p2539
V423-2012
p2540
sVcontributor
p2541
(lp2542
VJonker, MA
p2543
aV van der Vaart, AW
p2544
asVidentifier
p2545
(lp2546
(dp2547
Vlinktype
p2548
Vrestricted
p2549
sVtype
p2550
Vurl
p2551
sVvalue
p2552
Vhttp://search.informit.com.au/fullText;dn=243383277787774;res=IELHSS
p2553
sasVtype
p2554
(lp2555
VArticle
p2556
aVArticle/Journal or magazine article
p2557
asVid
p2558
V39496490
p2559
sa(dp2560
Vtitle
p2561
VCost Effective Active Voltage Conditioning
p2562
sVurl
p2563
V/work/39496740
p2564
sVtroveUrl
p2565
Vhttp://trove.nla.gov.au/work/39496740
p2566
sVversionCount
p2567
I2
sVisPartOf
p2568
VAustralian Journal of Electrical & Electronics Engineering
p2569
sVholdingsCount
p2570
I0
sVrelevance
p2571
(dp2572
Vscore
p2573
V1.0
p2574
sVvalue
p2575
Vvery relevant
p2576
ssVissued
p2577
V423-2012
p2578
sVcontributor
p2579
(lp2580
VKeir, John
p2581
aV Walton, Simon
p2582
asVidentifier
p2583
(lp2584
(dp2585
Vlinktype
p2586
Vrestricted
p2587
sVtype
p2588
Vurl
p2589
sVvalue
p2590
Vhttp://search.informit.com.au/fullText;dn=493363220187785;res=IELENG
p2591
sasVtype
p2592
(lp2593
VArticle
p2594
aVArticle/Conference paper
p2595
aVArticle/Journal or magazine article
p2596
asVid
p2597
V39496740
p2598
sa(dp2599
Vtitle
p2600
VThe Soul of an Old Machine: Managing Industrial Moveable Heritage
p2601
sVurl
p2602
V/work/39496995
p2603
sVtroveUrl
p2604
Vhttp://trove.nla.gov.au/work/39496995
p2605
sVversionCount
p2606
I2
sVisPartOf
p2607
VAustralian Journal of Multi-disciplinary Engineering
p2608
sVholdingsCount
p2609
I0
sVrelevance
p2610
(dp2611
Vscore
p2612
V1.0
p2613
sVvalue
p2614
Vvery relevant
p2615
ssVissued
p2616
V423-2012
p2617
sVcontributor
p2618
(lp2619
VNorth, MacLaren
p2620
asVidentifier
p2621
(lp2622
(dp2623
Vlinktype
p2624
Vrestricted
p2625
sVtype
p2626
Vurl
p2627
sVvalue
p2628
Vhttp://search.informit.com.au/fullText;dn=199036806193258;res=IELENG
p2629
sasVtype
p2630
(lp2631
VArticle/Conference paper
p2632
aVArticle
p2633
asVid
p2634
V39496995
p2635
sa(dp2636
Vtitle
p2637
VCross-racial Collaboration in the Country Women's Association
p2638
sVurl
p2639
V/work/39497099
p2640
sVtroveUrl
p2641
Vhttp://trove.nla.gov.au/work/39497099
p2642
sVversionCount
p2643
I1
sVisPartOf
p2644
VHistoricising Whiteness: Transnational Perspectives on the Construction of an Identity
p2645
sVholdingsCount
p2646
I0
sVrelevance
p2647
(dp2648
Vscore
p2649
V1.0
p2650
sVvalue
p2651
Vvery relevant
p2652
ssVissued
p2653
V423-2012
p2654
sVcontributor
p2655
(lp2656
VJones, Jennifer
p2657
asVidentifier
p2658
(lp2659
(dp2660
Vlinktype
p2661
Vrestricted
p2662
sVtype
p2663
Vurl
p2664
sVvalue
p2665
Vhttp://search.informit.com.au/fullText;dn=846756152605145;res=IELHSS
p2666
sasVtype
p2667
(lp2668
VArticle/Conference paper
p2669
aVArticle
p2670
asVid
p2671
V39497099
p2672
sa(dp2673
Vtitle
p2674
VThe Real Inspector Vogelsang: Imaginative Authority in Historical Fiction
p2675
sVurl
p2676
V/work/39497105
p2677
sVtroveUrl
p2678
Vhttp://trove.nla.gov.au/work/39497105
p2679
sVversionCount
p2680
I1
sVisPartOf
p2681
VHistoricising Whiteness: Transnational Perspectives on the Construction of an Identity
p2682
sVholdingsCount
p2683
I0
sVrelevance
p2684
(dp2685
Vscore
p2686
V1.0
p2687
sVvalue
p2688
Vvery relevant
p2689
ssVissued
p2690
V423-2012
p2691
sVcontributor
p2692
(lp2693
VErrington, Susan
p2694
asVidentifier
p2695
(lp2696
(dp2697
Vlinktype
p2698
Vrestricted
p2699
sVtype
p2700
Vurl
p2701
sVvalue
p2702
Vhttp://search.informit.com.au/fullText;dn=847333774714149;res=IELHSS
p2703
sasVtype
p2704
(lp2705
VArticle/Conference paper
p2706
aVArticle
p2707
asVid
p2708
V39497105
p2709
sa(dp2710
Vtitle
p2711
VNorman Haire and Cecil Cook on Procedures of Sterilisation in the Inter-war Period
p2712
sVurl
p2713
V/work/39497123
p2714
sVtroveUrl
p2715
Vhttp://trove.nla.gov.au/work/39497123
p2716
sVversionCount
p2717
I1
sVisPartOf
p2718
VHistoricising Whiteness: Transnational Perspectives on the Construction of an Identity
p2719
sVholdingsCount
p2720
I0
sVrelevance
p2721
(dp2722
Vscore
p2723
V1.0
p2724
sVvalue
p2725
Vvery relevant
p2726
ssVissued
p2727
V423-2012
p2728
sVcontributor
p2729
(lp2730
VHossain, Samia
p2731
asVidentifier
p2732
(lp2733
(dp2734
Vlinktype
p2735
Vrestricted
p2736
sVtype
p2737
Vurl
p2738
sVvalue
p2739
Vhttp://search.informit.com.au/fullText;dn=872339222142653;res=IELHSS
p2740
sasVtype
p2741
(lp2742
VArticle/Conference paper
p2743
aVArticle
p2744
asVid
p2745
V39497123
p2746
sa(dp2747
Vtitle
p2748
VWelcome
p2749
sVurl
p2750
V/work/39497549
p2751
sVtroveUrl
p2752
Vhttp://trove.nla.gov.au/work/39497549
p2753
sVversionCount
p2754
I1
sVisPartOf
p2755
VLamp, The
p2756
sVholdingsCount
p2757
I0
sVrelevance
p2758
(dp2759
Vscore
p2760
V1.0
p2761
sVvalue
p2762
Vvery relevant
p2763
ssVissued
p2764
V423-2012
p2765
sVcontributor
p2766
(lp2767
VFisher, Elizabeth
p2768
asVidentifier
p2769
(lp2770
(dp2771
Vlinktype
p2772
Vrestricted
p2773
sVtype
p2774
Vurl
p2775
sVvalue
p2776
Vhttp://search.informit.com.au/fullText;dn=925264121106931;res=IELHEA
p2777
sasVtype
p2778
(lp2779
VArticle/Review
p2780
aVArticle
p2781
asVid
p2782
V39497549
p2783
sa(dp2784
Vtitle
p2785
VWhat's Hot on Nurse Uncut
p2786
sVurl
p2787
V/work/39497591
p2788
sVtroveUrl
p2789
Vhttp://trove.nla.gov.au/work/39497591
p2790
sVversionCount
p2791
I1
sVholdingsCount
p2792
I0
sVrelevance
p2793
(dp2794
Vscore
p2795
V1.0
p2796
sVvalue
p2797
Vvery relevant
p2798
ssVissued
p2799
V423-2012
p2800
sVisPartOf
p2801
VLamp, The
p2802
sVidentifier
p2803
(lp2804
(dp2805
Vlinktype
p2806
Vrestricted
p2807
sVtype
p2808
Vurl
p2809
sVvalue
p2810
Vhttp://search.informit.com.au/fullText;dn=922823201872107;res=IELHEA
p2811
sasVtype
p2812
(lp2813
VArticle
p2814
aVArticle/Journal or magazine article
p2815
asVid
p2816
V39497591
p2817
sa(dp2818
Vtitle
p2819
VSydney Alliance Assembles for Civil Society
p2820
sVurl
p2821
V/work/39497584
p2822
sVtroveUrl
p2823
Vhttp://trove.nla.gov.au/work/39497584
p2824
sVversionCount
p2825
I1
sVholdingsCount
p2826
I0
sVrelevance
p2827
(dp2828
Vscore
p2829
V1.0
p2830
sVvalue
p2831
Vvery relevant
p2832
ssVissued
p2833
V423-2012
p2834
sVisPartOf
p2835
VLamp, The
p2836
sVidentifier
p2837
(lp2838
(dp2839
Vlinktype
p2840
Vrestricted
p2841
sVtype
p2842
Vurl
p2843
sVvalue
p2844
Vhttp://search.informit.com.au/fullText;dn=922189680849328;res=IELHEA
p2845
sasVtype
p2846
(lp2847
VArticle
p2848
aVArticle/Journal or magazine article
p2849
asVid
p2850
V39497584
p2851
sa(dp2852
Vtitle
p2853
VThe Woman with the Dragon Tattoo
p2854
sVurl
p2855
V/work/39497588
p2856
sVtroveUrl
p2857
Vhttp://trove.nla.gov.au/work/39497588
p2858
sVversionCount
p2859
I1
sVisPartOf
p2860
VLamp, The
p2861
sVholdingsCount
p2862
I0
sVrelevance
p2863
(dp2864
Vscore
p2865
V1.0
p2866
sVvalue
p2867
Vvery relevant
p2868
ssVissued
p2869
V423-2012
p2870
sVcontributor
p2871
(lp2872
VMiles, Susan
p2873
asVidentifier
p2874
(lp2875
(dp2876
Vlinktype
p2877
Vrestricted
p2878
sVtype
p2879
Vurl
p2880
sVvalue
p2881
Vhttp://search.informit.com.au/fullText;dn=922338744619393;res=IELHEA
p2882
sasVtype
p2883
(lp2884
VArticle/Review
p2885
aVArticle
p2886
asVid
p2887
V39497588
p2888
sa(dp2889
Vtitle
p2890
VValuable Contributions to Nursing: Winifred Bullot Smith OAM - 7 October 1921 - 7 March 2009
p2891
sVurl
p2892
V/work/39497668
p2893
sVtroveUrl
p2894
Vhttp://trove.nla.gov.au/work/39497668
p2895
sVversionCount
p2896
I1
sVisPartOf
p2897
VLamp, The
p2898
sVholdingsCount
p2899
I0
sVrelevance
p2900
(dp2901
Vscore
p2902
V1.0
p2903
sVvalue
p2904
Vvery relevant
p2905
ssVissued
p2906
V423-2012
p2907
sVcontributor
p2908
(lp2909
VCaldwell-Smith, Meryl
p2910
asVidentifier
p2911
(lp2912
(dp2913
Vlinktype
p2914
Vrestricted
p2915
sVtype
p2916
Vurl
p2917
sVvalue
p2918
Vhttp://search.informit.com.au/fullText;dn=155237951356219;res=IELHEA
p2919
sasVtype
p2920
(lp2921
VArticle
p2922
aVArticle/Journal or magazine article
p2923
asVid
p2924
V39497668
p2925
sa(dp2926
Vtitle
p2927
VWagga Wagga Hospital Petition
p2928
sVurl
p2929
V/work/39497680
p2930
sVtroveUrl
p2931
Vhttp://trove.nla.gov.au/work/39497680
p2932
sVversionCount
p2933
I1
sVholdingsCount
p2934
I0
sVrelevance
p2935
(dp2936
Vscore
p2937
V1.0
p2938
sVvalue
p2939
Vvery relevant
p2940
ssVissued
p2941
V423-2012
p2942
sVisPartOf
p2943
VLamp, The
p2944
sVidentifier
p2945
(lp2946
(dp2947
Vlinktype
p2948
Vrestricted
p2949
sVtype
p2950
Vurl
p2951
sVvalue
p2952
Vhttp://search.informit.com.au/fullText;dn=042247613646494;res=IELHEA
p2953
sasVtype
p2954
(lp2955
VArticle
p2956
aVArticle/Journal or magazine article
p2957
asVid
p2958
V39497680
p2959
sa(dp2960
Vtitle
p2961
VThe Girlfriend Experience
p2962
sVurl
p2963
V/work/39497704
p2964
sVtroveUrl
p2965
Vhttp://trove.nla.gov.au/work/39497704
p2966
sVversionCount
p2967
I1
sVisPartOf
p2968
VLamp, The
p2969
sVholdingsCount
p2970
I0
sVrelevance
p2971
(dp2972
Vscore
p2973
V1.0
p2974
sVvalue
p2975
Vvery relevant
p2976
ssVissued
p2977
V423-2012
p2978
sVcontributor
p2979
(lp2980
VGray, Stephanie
p2981
asVidentifier
p2982
(lp2983
(dp2984
Vlinktype
p2985
Vrestricted
p2986
sVtype
p2987
Vurl
p2988
sVvalue
p2989
Vhttp://search.informit.com.au/fullText;dn=045228889047806;res=IELHEA
p2990
sasVtype
p2991
(lp2992
VArticle/Review
p2993
aVArticle
p2994
asVid
p2995
V39497704
p2996
sa(dp2997
Vtitle
p2998
VA Quiet Achiever
p2999
sVurl
p3000
V/work/39497623
p3001
sVtroveUrl
p3002
Vhttp://trove.nla.gov.au/work/39497623
p3003
sVversionCount
p3004
I1
sVholdingsCount
p3005
I0
sVrelevance
p3006
(dp3007
Vscore
p3008
V1.0
p3009
sVvalue
p3010
Vvery relevant
p3011
ssVissued
p3012
V423-2012
p3013
sVisPartOf
p3014
VLamp, The
p3015
sVidentifier
p3016
(lp3017
(dp3018
Vlinktype
p3019
Vrestricted
p3020
sVtype
p3021
Vurl
p3022
sVvalue
p3023
Vhttp://search.informit.com.au/fullText;dn=212105779636245;res=IELHEA
p3024
sasVtype
p3025
(lp3026
VArticle
p3027
aVArticle/Journal or magazine article
p3028
asVid
p3029
V39497623
p3030
sa(dp3031
Vtitle
p3032
VPush
p3033
sVurl
p3034
V/work/39497703
p3035
sVtroveUrl
p3036
Vhttp://trove.nla.gov.au/work/39497703
p3037
sVversionCount
p3038
I1
sVisPartOf
p3039
VLamp, The
p3040
sVholdingsCount
p3041
I0
sVrelevance
p3042
(dp3043
Vscore
p3044
V1.0
p3045
sVvalue
p3046
Vvery relevant
p3047
ssVissued
p3048
V423-2012
p3049
sVcontributor
p3050
(lp3051
VCameron, Anni
p3052
asVidentifier
p3053
(lp3054
(dp3055
Vlinktype
p3056
Vrestricted
p3057
sVtype
p3058
Vurl
p3059
sVvalue
p3060
Vhttp://search.informit.com.au/fullText;dn=045135724191515;res=IELHEA
p3061
sasVtype
p3062
(lp3063
VArticle/Review
p3064
aVArticle
p3065
asVid
p3066
V39497703
p3067
sa(dp3068
Vtitle
p3069
VMERV Improves Men's Health
p3070
sVurl
p3071
V/work/39497730
p3072
sVtroveUrl
p3073
Vhttp://trove.nla.gov.au/work/39497730
p3074
sVversionCount
p3075
I1
sVholdingsCount
p3076
I0
sVrelevance
p3077
(dp3078
Vscore
p3079
V1.0
p3080
sVvalue
p3081
Vvery relevant
p3082
ssVissued
p3083
V423-2012
p3084
sVisPartOf
p3085
VLamp, The
p3086
sVidentifier
p3087
(lp3088
(dp3089
Vlinktype
p3090
Vrestricted
p3091
sVtype
p3092
Vurl
p3093
sVvalue
p3094
Vhttp://search.informit.com.au/fullText;dn=041297332112326;res=IELHEA
p3095
sasVtype
p3096
(lp3097
VArticle
p3098
aVArticle/Journal or magazine article
p3099
asVid
p3100
V39497730
p3101
sa(dp3102
Vtitle
p3103
V12.5% Pay Rise at DADHC
p3104
sVurl
p3105
V/work/39497776
p3106
sVtroveUrl
p3107
Vhttp://trove.nla.gov.au/work/39497776
p3108
sVversionCount
p3109
I1
sVholdingsCount
p3110
I0
sVrelevance
p3111
(dp3112
Vscore
p3113
V1.0
p3114
sVvalue
p3115
Vvery relevant
p3116
ssVissued
p3117
V423-2012
p3118
sVisPartOf
p3119
VLamp, The
p3120
sVidentifier
p3121
(lp3122
(dp3123
Vlinktype
p3124
Vrestricted
p3125
sVtype
p3126
Vurl
p3127
sVvalue
p3128
Vhttp://search.informit.com.au/fullText;dn=843508329416084;res=IELHEA
p3129
sasVtype
p3130
(lp3131
VArticle
p3132
aVArticle/Journal or magazine article
p3133
asVid
p3134
V39497776
p3135
sa(dp3136
Vtitle
p3137
VWallsend Fights for Nursing Home
p3138
sVurl
p3139
V/work/39497780
p3140
sVtroveUrl
p3141
Vhttp://trove.nla.gov.au/work/39497780
p3142
sVversionCount
p3143
I1
sVholdingsCount
p3144
I0
sVrelevance
p3145
(dp3146
Vscore
p3147
V1.0
p3148
sVvalue
p3149
Vvery relevant
p3150
ssVissued
p3151
V423-2012
p3152
sVisPartOf
p3153
VLamp, The
p3154
sVidentifier
p3155
(lp3156
(dp3157
Vlinktype
p3158
Vrestricted
p3159
sVtype
p3160
Vurl
p3161
sVvalue
p3162
Vhttp://search.informit.com.au/fullText;dn=842949340278338;res=IELHEA
p3163
sasVtype
p3164
(lp3165
VArticle
p3166
aVArticle/Journal or magazine article
p3167
asVid
p3168
V39497780
p3169
sa(dp3170
Vtitle
p3171
VSunshine Cleaning
p3172
sVurl
p3173
V/work/39497784
p3174
sVtroveUrl
p3175
Vhttp://trove.nla.gov.au/work/39497784
p3176
sVversionCount
p3177
I1
sVisPartOf
p3178
VLamp, The
p3179
sVholdingsCount
p3180
I0
sVrelevance
p3181
(dp3182
Vscore
p3183
V1.0
p3184
sVvalue
p3185
Vvery relevant
p3186
ssVissued
p3187
V423-2012
p3188
sVcontributor
p3189
(lp3190
VKetelaar, Sharon
p3191
asVidentifier
p3192
(lp3193
(dp3194
Vlinktype
p3195
Vrestricted
p3196
sVtype
p3197
Vurl
p3198
sVvalue
p3199
Vhttp://search.informit.com.au/fullText;dn=842874808393305;res=IELHEA
p3200
sasVtype
p3201
(lp3202
VArticle/Review
p3203
aVArticle
p3204
asVid
p3205
V39497784
p3206
sa(dp3207
Vtitle
p3208
VThe Fox and the Child
p3209
sVurl
p3210
V/work/39497745
p3211
sVtroveUrl
p3212
Vhttp://trove.nla.gov.au/work/39497745
p3213
sVversionCount
p3214
I1
sVisPartOf
p3215
VLamp, The
p3216
sVholdingsCount
p3217
I0
sVrelevance
p3218
(dp3219
Vscore
p3220
V1.0
p3221
sVvalue
p3222
Vvery relevant
p3223
ssVissued
p3224
V423-2012
p3225
sVcontributor
p3226
(lp3227
VLyons, Liz
p3228
asVidentifier
p3229
(lp3230
(dp3231
Vlinktype
p3232
Vrestricted
p3233
sVtype
p3234
Vurl
p3235
sVvalue
p3236
Vhttp://search.informit.com.au/fullText;dn=041651358566232;res=IELHEA
p3237
sasVtype
p3238
(lp3239
VArticle/Review
p3240
aVArticle
p3241
asVid
p3242
V39497745
p3243
sa(dp3244
Vtitle
p3245
VNurses Fear Losing Control of Nightingale Museum
p3246
sVurl
p3247
V/work/39497795
p3248
sVtroveUrl
p3249
Vhttp://trove.nla.gov.au/work/39497795
p3250
sVversionCount
p3251
I1
sVholdingsCount
p3252
I0
sVrelevance
p3253
(dp3254
Vscore
p3255
V1.0
p3256
sVvalue
p3257
Vvery relevant
p3258
ssVissued
p3259
V423-2012
p3260
sVisPartOf
p3261
VLamp, The
p3262
sVidentifier
p3263
(lp3264
(dp3265
Vlinktype
p3266
Vrestricted
p3267
sVtype
p3268
Vurl
p3269
sVvalue
p3270
Vhttp://search.informit.com.au/fullText;dn=776317835059014;res=IELHEA
p3271
sasVtype
p3272
(lp3273
VArticle
p3274
aVArticle/Journal or magazine article
p3275
asVid
p3276
V39497795
p3277
sa(dp3278
Vtitle
p3279
VJudith Appointed to Executive of Unions NSW
p3280
sVurl
p3281
V/work/39497820
p3282
sVtroveUrl
p3283
Vhttp://trove.nla.gov.au/work/39497820
p3284
sVversionCount
p3285
I1
sVholdingsCount
p3286
I0
sVrelevance
p3287
(dp3288
Vscore
p3289
V1.0
p3290
sVvalue
p3291
Vvery relevant
p3292
ssVissued
p3293
V423-2012
p3294
sVisPartOf
p3295
VLamp, The
p3296
sVidentifier
p3297
(lp3298
(dp3299
Vlinktype
p3300
Vrestricted
p3301
sVtype
p3302
Vurl
p3303
sVvalue
p3304
Vhttp://search.informit.com.au/fullText;dn=776168771288949;res=IELHEA
p3305
sasVtype
p3306
(lp3307
VArticle
p3308
aVArticle/Journal or magazine article
p3309
asVid
p3310
V39497820
p3311
sa(dp3312
Vtitle
p3313
VNew Grades and $584K Back Pay for DADHC Nurses
p3314
sVurl
p3315
V/work/39497852
p3316
sVtroveUrl
p3317
Vhttp://trove.nla.gov.au/work/39497852
p3318
sVversionCount
p3319
I1
sVholdingsCount
p3320
I0
sVrelevance
p3321
(dp3322
Vscore
p3323
V1.0
p3324
sVvalue
p3325
Vvery relevant
p3326
ssVissued
p3327
V423-2012
p3328
sVisPartOf
p3329
VLamp, The
p3330
sVidentifier
p3331
(lp3332
(dp3333
Vlinktype
p3334
Vrestricted
p3335
sVtype
p3336
Vurl
p3337
sVvalue
p3338
Vhttp://search.informit.com.au/fullText;dn=670128532324194;res=IELHEA
p3339
sasVtype
p3340
(lp3341
VArticle
p3342
aVArticle/Journal or magazine article
p3343
asVid
p3344
V39497852
p3345
sa(dp3346
Vtitle
p3347
VNational Registration of Nurses and Midwives
p3348
sVurl
p3349
V/work/39497856
p3350
sVtroveUrl
p3351
Vhttp://trove.nla.gov.au/work/39497856
p3352
sVversionCount
p3353
I1
sVholdingsCount
p3354
I0
sVrelevance
p3355
(dp3356
Vscore
p3357
V1.0
p3358
sVvalue
p3359
Vvery relevant
p3360
ssVissued
p3361
V423-2012
p3362
sVisPartOf
p3363
VLamp, The
p3364
sVidentifier
p3365
(lp3366
(dp3367
Vlinktype
p3368
Vrestricted
p3369
sVtype
p3370
Vurl
p3371
sVvalue
p3372
Vhttp://search.informit.com.au/fullText;dn=670873851174522;res=IELHEA
p3373
sasVtype
p3374
(lp3375
VArticle
p3376
aVArticle/Journal or magazine article
p3377
asVid
p3378
V39497856
p3379
sa(dp3380
Vtitle
p3381
VBest Friend Not Forgotten: Barbara Jean Marsden
p3382
sVurl
p3383
V/work/39497868
p3384
sVtroveUrl
p3385
Vhttp://trove.nla.gov.au/work/39497868
p3386
sVversionCount
p3387
I1
sVisPartOf
p3388
VLamp, The
p3389
sVholdingsCount
p3390
I0
sVrelevance
p3391
(dp3392
Vscore
p3393
V1.0
p3394
sVvalue
p3395
Vvery relevant
p3396
ssVissued
p3397
V423-2012
p3398
sVcontributor
p3399
(lp3400
VHughes, Sonya
p3401
asVidentifier
p3402
(lp3403
(dp3404
Vlinktype
p3405
Vrestricted
p3406
sVtype
p3407
Vurl
p3408
sVvalue
p3409
Vhttp://search.informit.com.au/fullText;dn=669923569640354;res=IELHEA
p3410
sasVtype
p3411
(lp3412
VArticle
p3413
aVArticle/Journal or magazine article
p3414
asVid
p3415
V39497868
p3416
sa(dp3417
Vtitle
p3418
VGo Direct Debit for Protection ... and the Chance to Win a Luxury Prize
p3419
sVurl
p3420
V/work/39497896
p3421
sVtroveUrl
p3422
Vhttp://trove.nla.gov.au/work/39497896
p3423
sVversionCount
p3424
I1
sVholdingsCount
p3425
I0
sVrelevance
p3426
(dp3427
Vscore
p3428
V1.0
p3429
sVvalue
p3430
Vvery relevant
p3431
ssVissued
p3432
V423-2012
p3433
sVisPartOf
p3434
VLamp, The
p3435
sVidentifier
p3436
(lp3437
(dp3438
Vlinktype
p3439
Vrestricted
p3440
sVtype
p3441
Vurl
p3442
sVvalue
p3443
Vhttp://search.informit.com.au/fullText;dn=633868770255737;res=IELHEA
p3444
sasVtype
p3445
(lp3446
VArticle
p3447
aVArticle/Journal or magazine article
p3448
asVid
p3449
V39497896
p3450
sa(dp3451
Vtitle
p3452
VEasy Virtue
p3453
sVurl
p3454
V/work/39497903
p3455
sVtroveUrl
p3456
Vhttp://trove.nla.gov.au/work/39497903
p3457
sVversionCount
p3458
I1
sVisPartOf
p3459
VLamp, The
p3460
sVholdingsCount
p3461
I0
sVrelevance
p3462
(dp3463
Vscore
p3464
V1.0
p3465
sVvalue
p3466
Vvery relevant
p3467
ssVissued
p3468
V423-2012
p3469
sVcontributor
p3470
(lp3471
VTompson, Cheryl
p3472
asVidentifier
p3473
(lp3474
(dp3475
Vlinktype
p3476
Vrestricted
p3477
sVtype
p3478
Vurl
p3479
sVvalue
p3480
Vhttp://search.informit.com.au/fullText;dn=633197983290441;res=IELHEA
p3481
sasVtype
p3482
(lp3483
VArticle/Review
p3484
aVArticle
p3485
asVid
p3486
V39497903
p3487
sa(dp3488
Vtitle
p3489
VBright Star
p3490
sVurl
p3491
V/work/39497936
p3492
sVtroveUrl
p3493
Vhttp://trove.nla.gov.au/work/39497936
p3494
sVversionCount
p3495
I1
sVisPartOf
p3496
VLamp, The
p3497
sVholdingsCount
p3498
I0
sVrelevance
p3499
(dp3500
Vscore
p3501
V1.0
p3502
sVvalue
p3503
Vvery relevant
p3504
ssVissued
p3505
V423-2012
p3506
sVcontributor
p3507
(lp3508
VLyons, Liz
p3509
asVidentifier
p3510
(lp3511
(dp3512
Vlinktype
p3513
Vrestricted
p3514
sVtype
p3515
Vurl
p3516
sVvalue
p3517
Vhttp://search.informit.com.au/fullText;dn=669563856996313;res=IELHEA
p3518
sasVtype
p3519
(lp3520
VArticle/Review
p3521
aVArticle
p3522
asVid
p3523
V39497936
p3524
sa(dp3525
Vtitle
p3526
VNurse Develops Assessment Tools
p3527
sVurl
p3528
V/work/39497956
p3529
sVtroveUrl
p3530
Vhttp://trove.nla.gov.au/work/39497956
p3531
sVversionCount
p3532
I1
sVholdingsCount
p3533
I0
sVrelevance
p3534
(dp3535
Vscore
p3536
V1.0
p3537
sVvalue
p3538
Vvery relevant
p3539
ssVissued
p3540
V423-2012
p3541
sVisPartOf
p3542
VLamp, The
p3543
sVidentifier
p3544
(lp3545
(dp3546
Vlinktype
p3547
Vrestricted
p3548
sVtype
p3549
Vurl
p3550
sVvalue
p3551
Vhttp://search.informit.com.au/fullText;dn=313990866476083;res=IELHEA
p3552
sasVtype
p3553
(lp3554
VArticle
p3555
aVArticle/Journal or magazine article
p3556
asVid
p3557
V39497956
p3558
sa(dp3559
Vtitle
p3560
VCapitalism: A Love Story
p3561
sVurl
p3562
V/work/39497980
p3563
sVtroveUrl
p3564
Vhttp://trove.nla.gov.au/work/39497980
p3565
sVversionCount
p3566
I1
sVisPartOf
p3567
VLamp, The
p3568
sVholdingsCount
p3569
I0
sVrelevance
p3570
(dp3571
Vscore
p3572
V1.0
p3573
sVvalue
p3574
Vvery relevant
p3575
ssVissued
p3576
V423-2012
p3577
sVcontributor
p3578
(lp3579
VSmith, O'Bray
p3580
asVidentifier
p3581
(lp3582
(dp3583
Vlinktype
p3584
Vrestricted
p3585
sVtype
p3586
Vurl
p3587
sVvalue
p3588
Vhttp://search.informit.com.au/fullText;dn=313618207050919;res=IELHEA
p3589
sasVtype
p3590
(lp3591
VArticle/Review
p3592
aVArticle
p3593
asVid
p3594
V39497980
p3595
sa(dp3596
Vtitle
p3597
VDorian Gray
p3598
sVurl
p3599
V/work/39497982
p3600
sVtroveUrl
p3601
Vhttp://trove.nla.gov.au/work/39497982
p3602
sVversionCount
p3603
I1
sVisPartOf
p3604
VLamp, The
p3605
sVholdingsCount
p3606
I0
sVrelevance
p3607
(dp3608
Vscore
p3609
V1.0
p3610
sVvalue
p3611
Vvery relevant
p3612
ssVissued
p3613
V423-2012
p3614
sVcontributor
p3615
(lp3616
VBarker, Megan
p3617
asVidentifier
p3618
(lp3619
(dp3620
Vlinktype
p3621
Vrestricted
p3622
sVtype
p3623
Vurl
p3624
sVvalue
p3625
Vhttp://search.informit.com.au/fullText;dn=314587121556345;res=IELHEA
p3626
sasVtype
p3627
(lp3628
VArticle/Review
p3629
aVArticle
p3630
asVid
p3631
V39497982
p3632
sa(dp3633
Vtitle
p3634
VBran Nue Dae
p3635
sVurl
p3636
V/work/39497937
p3637
sVtroveUrl
p3638
Vhttp://trove.nla.gov.au/work/39497937
p3639
sVversionCount
p3640
I1
sVisPartOf
p3641
VLamp, The
p3642
sVholdingsCount
p3643
I0
sVrelevance
p3644
(dp3645
Vscore
p3646
V1.0
p3647
sVvalue
p3648
Vvery relevant
p3649
ssVissued
p3650
V423-2012
p3651
sVcontributor
p3652
(lp3653
VGray, Stephanie
p3654
asVidentifier
p3655
(lp3656
(dp3657
Vlinktype
p3658
Vrestricted
p3659
sVtype
p3660
Vurl
p3661
sVvalue
p3662
Vhttp://search.informit.com.au/fullText;dn=670141479105318;res=IELHEA
p3663
sasVtype
p3664
(lp3665
VArticle/Review
p3666
aVArticle
p3667
asVid
p3668
V39497937
p3669
sa(dp3670
Vtitle
p3671
VThe Duchess
p3672
sVurl
p3673
V/work/39498074
p3674
sVtroveUrl
p3675
Vhttp://trove.nla.gov.au/work/39498074
p3676
sVversionCount
p3677
I1
sVisPartOf
p3678
VLamp, The
p3679
sVholdingsCount
p3680
I0
sVrelevance
p3681
(dp3682
Vscore
p3683
V1.0
p3684
sVvalue
p3685
Vvery relevant
p3686
ssVissued
p3687
V423-2012
p3688
sVcontributor
p3689
(lp3690
VCollins, Meg
p3691
asVidentifier
p3692
(lp3693
(dp3694
Vlinktype
p3695
Vrestricted
p3696
sVtype
p3697
Vurl
p3698
sVvalue
p3699
Vhttp://search.informit.com.au/fullText;dn=350330846619707;res=IELHEA
p3700
sasVtype
p3701
(lp3702
VArticle/Review
p3703
aVArticle
p3704
asVid
p3705
V39498074
p3706
sa(dp3707
Vtitle
p3708
VHow to Lose Friends and Alienate People
p3709
sVurl
p3710
V/work/39498073
p3711
sVtroveUrl
p3712
Vhttp://trove.nla.gov.au/work/39498073
p3713
sVversionCount
p3714
I1
sVisPartOf
p3715
VLamp, The
p3716
sVholdingsCount
p3717
I0
sVrelevance
p3718
(dp3719
Vscore
p3720
V1.0
p3721
sVvalue
p3722
Vvery relevant
p3723
ssVissued
p3724
V423-2012
p3725
sVcontributor
p3726
(lp3727
VLynch, Wayne
p3728
asVidentifier
p3729
(lp3730
(dp3731
Vlinktype
p3732
Vrestricted
p3733
sVtype
p3734
Vurl
p3735
sVvalue
p3736
Vhttp://search.informit.com.au/fullText;dn=350312213648449;res=IELHEA
p3737
sasVtype
p3738
(lp3739
VArticle/Review
p3740
aVArticle
p3741
asVid
p3742
V39498073
p3743
sasVnext
p3744
V/result?q=+&sortby=dateasc&encoding=json&l-availability=y&reclevel=brief&n=100&zone=article&s=106327
p3745
sVs
p3746
V106227
p3747
sVtotal
p3748
V128752717
p3749
sVn
p3750
V100
p3751
ssVname
p3752
Varticle
p3753
sass.