(dp0
Vresponse
p1
(dp2
Vquery
p3
V
p4
sVzone
p5
(lp6
(dp7
Vrecords
p8
(dp9
Vwork
p10
(lp11
(dp12
Vtitle
p13
VCosting statement. National Institute for Health and Clinical Excellence
p14
sVurl
p15
V/work/188720031
p16
sVtroveUrl
p17
Vhttp://trove.nla.gov.au/work/188720031
p18
sVversionCount
p19
I1
sVholdingsCount
p20
I0
sVrelevance
p21
(dp22
Vscore
p23
V1.0
p24
sVvalue
p25
Vlikely to be relevant
p26
ssVissued
p27
I2009
sVcontributor
p28
(lp29
VNational Institute for Health and Clinical Excellence (Great Britain)
p30
asVidentifier
p31
(lp32
(dp33
Vlinktype
p34
Vunknown
p35
sVtype
p36
Vurl
p37
sVvalue
p38
Vhttp://www.nice.org.uk/nicemedia/live/11846/43790/43790.pdf
p39
sasVtype
p40
(lp41
VBook
p42
asVid
p43
V188720031
p44
sa(dp45
Vtitle
p46
VDiarrhoea and vomiting in children : diarrhoea and vomiting caused by gastroenteritis: diagnosis, assessment and management in children younger than 5 years / developed by the National Collaborating Centre for Women's and Children's Health
p47
sVurl
p48
V/work/188720033
p49
sVtroveUrl
p50
Vhttp://trove.nla.gov.au/work/188720033
p51
sVversionCount
p52
I1
sVholdingsCount
p53
I0
sVrelevance
p54
(dp55
Vscore
p56
V1.0
p57
sVvalue
p58
Vlikely to be relevant
p59
ssVissued
p60
I2009
sVcontributor
p61
(lp62
VNational Collaborating Centre for Women's and Children's Health (Great Britain)
p63
asVidentifier
p64
(lp65
(dp66
Vlinktype
p67
Vunknown
p68
sVtype
p69
Vurl
p70
sVvalue
p71
Vhttp://www.nice.org.uk/nicemedia/live/11846/43843/43843.pdf
p72
sasVtype
p73
(lp74
VBook
p75
asVid
p76
V188720033
p77
sa(dp78
Vtitle
p79
VGlaucoma : diagnosis and management of chronic open angle glaucoma and ocular hypertension : quick reference guide / developed by the National Collaborating Centre for Acute Care
p80
sVurl
p81
V/work/188720035
p82
sVtroveUrl
p83
Vhttp://trove.nla.gov.au/work/188720035
p84
sVversionCount
p85
I1
sVholdingsCount
p86
I0
sVrelevance
p87
(dp88
Vscore
p89
V1.0
p90
sVvalue
p91
Vlikely to be relevant
p92
ssVissued
p93
I2009
sVcontributor
p94
(lp95
VNational Collaborating Centre for Acute Care (Great Britain)
p96
asVidentifier
p97
(lp98
(dp99
Vlinktype
p100
Vunknown
p101
sVtype
p102
Vurl
p103
sVvalue
p104
Vhttp://www.nice.org.uk/nicemedia/live/12145/43791/43791.pdf
p105
sasVtype
p106
(lp107
VBook
p108
asVid
p109
V188720035
p110
sa(dp111
Vtitle
p112
VGlaucoma : diagnosis and management of chronic open angle glaucoma and ocular hypertension : methos, evidence & guidance / produced by the National Collaborating Centre for Acute Care
p113
sVurl
p114
V/work/188720037
p115
sVtroveUrl
p116
Vhttp://trove.nla.gov.au/work/188720037
p117
sVversionCount
p118
I1
sVholdingsCount
p119
I0
sVrelevance
p120
(dp121
Vscore
p122
V1.0
p123
sVvalue
p124
Vlikely to be relevant
p125
ssVissued
p126
I2009
sVcontributor
p127
(lp128
VNational Collaborating Centre for Acute Care (Great Britain)
p129
asVidentifier
p130
(lp131
(dp132
Vlinktype
p133
Vunknown
p134
sVtype
p135
Vurl
p136
sVvalue
p137
Vhttp://www.nice.org.uk/nicemedia/pdf/CG85FullGuideline.pdf
p138
sasVtype
p139
(lp140
VBook
p141
asVid
p142
V188720037
p143
sa(dp144
Vtitle
p145
VType 2 diabetes. type 2 diabetes: newer agents for blood glucose control in type 2 diabetes / developed by the Centre for Clinical Practice at NICE
p146
sVurl
p147
V/work/188720043
p148
sVtroveUrl
p149
Vhttp://trove.nla.gov.au/work/188720043
p150
sVversionCount
p151
I1
sVholdingsCount
p152
I0
sVrelevance
p153
(dp154
Vscore
p155
V1.0
p156
sVvalue
p157
Vlikely to be relevant
p158
ssVissued
p159
I2009
sVcontributor
p160
(lp161
VCentre for Clinical Practice (National Institute for Health and Clinical Excellence (Great Britain))
p162
asVidentifier
p163
(lp164
(dp165
Vlinktype
p166
Vunknown
p167
sVtype
p168
Vurl
p169
sVvalue
p170
Vhttp://www.nice.org.uk/nicemedia/pdf/CG87ShortGuideline.pdf
p171
sasVtype
p172
(lp173
VBook
p174
asVid
p175
V188720043
p176
sa(dp177
Vtitle
p178
VGlaucoma : diagnosis and management of chronic open angle glaucoma and ocular hypertension : costing report : implementing NICE guidance / National Institute for Health and Clinical Excellence
p179
sVurl
p180
V/work/188720034
p181
sVtroveUrl
p182
Vhttp://trove.nla.gov.au/work/188720034
p183
sVversionCount
p184
I1
sVholdingsCount
p185
I0
sVrelevance
p186
(dp187
Vscore
p188
V1.0
p189
sVvalue
p190
Vlikely to be relevant
p191
ssVissued
p192
I2009
sVcontributor
p193
(lp194
VNational Institute for Health and Clinical Excellence (Great Britain)
p195
asVidentifier
p196
(lp197
(dp198
Vlinktype
p199
Vunknown
p200
sVtype
p201
Vurl
p202
sVvalue
p203
Vhttp://www.nice.org.uk/nicemedia/live/12145/44043/44043.pdf
p204
sasVtype
p205
(lp206
VBook
p207
aVBook/Illustrated
p208
asVid
p209
V188720034
p210
sa(dp211
Vtitle
p212
VCoeliac disease : costing report : implementing NICE guidance / National Institute for Health and Clinical Excellence
p213
sVurl
p214
V/work/188720038
p215
sVtroveUrl
p216
Vhttp://trove.nla.gov.au/work/188720038
p217
sVversionCount
p218
I1
sVholdingsCount
p219
I0
sVrelevance
p220
(dp221
Vscore
p222
V1.0
p223
sVvalue
p224
Vlikely to be relevant
p225
ssVissued
p226
I2009
sVcontributor
p227
(lp228
VNational Institute for Health and Clinical Excellence (Great Britain)
p229
asVidentifier
p230
(lp231
(dp232
Vlinktype
p233
Vunknown
p234
sVtype
p235
Vurl
p236
sVvalue
p237
Vhttp://www.nice.org.uk/nicemedia/live/12166/44361/44361.pdf
p238
sasVtype
p239
(lp240
VBook
p241
aVBook/Illustrated
p242
asVid
p243
V188720038
p244
sa(dp245
Vtitle
p246
VType 2 diabetes. costing report : implementing NICE guidance / National Institute for Health and Clinical Excellence
p247
sVurl
p248
V/work/188720040
p249
sVtroveUrl
p250
Vhttp://trove.nla.gov.au/work/188720040
p251
sVversionCount
p252
I1
sVholdingsCount
p253
I0
sVrelevance
p254
(dp255
Vscore
p256
V1.0
p257
sVvalue
p258
Vlikely to be relevant
p259
ssVissued
p260
I2009
sVcontributor
p261
(lp262
VNational Institute for Health and Clinical Excellence (Great Britain)
p263
asVidentifier
p264
(lp265
(dp266
Vlinktype
p267
Vunknown
p268
sVtype
p269
Vurl
p270
sVvalue
p271
Vhttp://www.nice.org.uk/nicemedia/live/12165/45782/45782.pdf
p272
sasVtype
p273
(lp274
VBook
p275
aVBook/Illustrated
p276
asVid
p277
V188720040
p278
sa(dp279
Vtitle
p280
VThe hedgerow management cycle & scale
p281
sVurl
p282
V/work/188720050
p283
sVtroveUrl
p284
Vhttp://trove.nla.gov.au/work/188720050
p285
sVversionCount
p286
I1
sVholdingsCount
p287
I0
sVrelevance
p288
(dp289
Vscore
p290
V1.0
p291
sVvalue
p292
Vlikely to be relevant
p293
ssVissued
p294
I2009
sVcontributor
p295
(lp296
VHedgelink UK
p297
asVidentifier
p298
(lp299
(dp300
Vlinktype
p301
Vunknown
p302
sVtype
p303
Vurl
p304
sVvalue
p305
Vhttp://publications.naturalengland.org.uk/file/122004
p306
sasVtype
p307
(lp308
VBook
p309
aVBook/Illustrated
p310
asVid
p311
V188720050
p312
sa(dp313
Vtitle
p314
VKanzlermacht - Machtkanzler? : die Regierung Schu\u0308ssel im historischen und internationalen Vergleich / David Wineroither
p315
sVurl
p316
V/work/188269003
p317
sVtroveUrl
p318
Vhttp://trove.nla.gov.au/work/188269003
p319
sVversionCount
p320
I1
sVholdingsCount
p321
I0
sVrelevance
p322
(dp323
Vscore
p324
V1.0
p325
sVvalue
p326
Vlikely to be relevant
p327
ssVissued
p328
I2009
sVcontributor
p329
(lp330
VWineroither, David, 1981-
p331
asVidentifier
p332
(lp333
(dp334
Vlinktype
p335
Vunknown
p336
sVtype
p337
Vurl
p338
sVlinktext
p339
VInhaltsverzeichnis
p340
sVvalue
p341
Vhttp://bvbr.bib-bvb.de:8991/F?func=service&doc_library=BVB01&doc_number=020509137&line_number=0001&func_code=DB_RECORDS&service_type=MEDIA
p342
sasVtype
p343
(lp344
VBook
p345
asVid
p346
V188269003
p347
sa(dp348
Vtitle
p349
VUnderstanding the economic benefits and costs of controlling marine debris in the APEC region : April 2009 / APEC Marine Resources Conservation Working Group
p350
sVurl
p351
V/work/179835695
p352
sVtroveUrl
p353
Vhttp://trove.nla.gov.au/work/179835695
p354
sVversionCount
p355
I1
sVholdingsCount
p356
I0
sVrelevance
p357
(dp358
Vscore
p359
V1.0
p360
sVvalue
p361
Vlikely to be relevant
p362
ssVissued
p363
I2009
sVcontributor
p364
(lp365
VAsia Pacific Economic Cooperation (Organization). Marine Resource Conservation Working Group
p366
asVidentifier
p367
(lp368
(dp369
Vlinktype
p370
Vunknown
p371
sVtype
p372
Vurl
p373
sVvalue
p374
Vhttp://publications.apec.org/file-download.php?filename=09_mrc_MarineDebris_r.pdf&id=164
p375
sasVtype
p376
(lp377
VBook
p378
aVBook/Illustrated
p379
asVid
p380
V179835695
p381
sa(dp382
Vtitle
p383
VLa raccolta di matrici della calcografia romana : aggiornamento al Catalogo generale delle stampe di C.A. Petrucci (1934) / Anna Grelle Iusco, Elisabetta Giffi
p384
sVurl
p385
V/work/188721472
p386
sVtroveUrl
p387
Vhttp://trove.nla.gov.au/work/188721472
p388
sVversionCount
p389
I1
sVholdingsCount
p390
I0
sVrelevance
p391
(dp392
Vscore
p393
V1.0
p394
sVvalue
p395
Vlikely to be relevant
p396
ssVissued
p397
I2009
sVcontributor
p398
(lp399
VGrelle Iusco, Anna
p400
asVidentifier
p401
(lp402
(dp403
Vlinktype
p404
Vunknown
p405
sVtype
p406
Vurl
p407
sVlinktext
p408
VTOC
p409
sVvalue
p410
Vhttp://www.ilibri.casalini.it/toc/08629307.pdf
p411
sasVtype
p412
(lp413
VBook
p414
aVBook/Illustrated
p415
asVid
p416
V188721472
p417
sa(dp418
Vtitle
p419
VEl hilo rojo : palabras y pra\u0301cticas de la utopi\u0301a en Ame\u0301rica latina / Marisa Gonza\u0301lez de Oleaga, Ernesto Bohoslavsky, compiladores
p420
sVurl
p421
V/work/188721511
p422
sVtroveUrl
p423
Vhttp://trove.nla.gov.au/work/188721511
p424
sVversionCount
p425
I1
sVholdingsCount
p426
I0
sVrelevance
p427
(dp428
Vscore
p429
V1.0
p430
sVvalue
p431
Vlikely to be relevant
p432
ssVissued
p433
I2009
sVcontributor
p434
(lp435
VBohoslavsky, Ernesto La\u0301zaro
p436
asVidentifier
p437
(lp438
(dp439
Vlinktype
p440
Vunknown
p441
sVtype
p442
Vurl
p443
sVvalue
p444
Vhttp://core.cambeiro.com.ar/0-70474-10.pdf
p445
sasVtype
p446
(lp447
VBook
p448
aVBook/Illustrated
p449
asVid
p450
V188721511
p451
sa(dp452
Vtitle
p453
VArturo Frondizi : su presidencia
p454
sVurl
p455
V/work/188721515
p456
sVtroveUrl
p457
Vhttp://trove.nla.gov.au/work/188721515
p458
sVversionCount
p459
I1
sVholdingsCount
p460
I0
sVissued
p461
I2009
sVrelevance
p462
(dp463
Vscore
p464
V1.0
p465
sVvalue
p466
Vlikely to be relevant
p467
ssVidentifier
p468
(lp469
(dp470
Vlinktype
p471
Vunknown
p472
sVtype
p473
Vurl
p474
sVvalue
p475
Vhttp://core.cambeiro.com.ar/0-156518-0.pdf
p476
sasVtype
p477
(lp478
VBook
p479
aVBook/Illustrated
p480
asVid
p481
V188721515
p482
sa(dp483
Vtitle
p484
VStabilizing the economy and maintaining its growth potential : Vietnam partnership report update : an informal report prepared for the Mid-year Consultative Group Meeting for Vietnam : Buon Ma Thuot, Dak Lak, June 8-9, 2009
p485
sVurl
p486
V/work/188724350
p487
sVtroveUrl
p488
Vhttp://trove.nla.gov.au/work/188724350
p489
sVversionCount
p490
I1
sVholdingsCount
p491
I0
sVrelevance
p492
(dp493
Vscore
p494
V1.0
p495
sVvalue
p496
Vlikely to be relevant
p497
ssVissued
p498
I2009
sVcontributor
p499
(lp500
VVietnam Development Information Center
p501
asVidentifier
p502
(lp503
(dp504
Vlinktype
p505
Vunknown
p506
sVtype
p507
Vurl
p508
sVvalue
p509
Vhttp://www-wds.worldbank.org/external/default/main?pagePK=64193027&piPK=64187937&theSitePK=523679&menuPK=64187510&searchMenuPK=64187282&theSitePK=523679&entityID=000333038_20090902033719&searchMenuPK=64187282&theSitePK=523679
p510
sasVtype
p511
(lp512
VConference Proceedings
p513
asVid
p514
V188724350
p515
sa(dp516
Vtitle
p517
VThe handbook of world Englishes / edited by Braj B. Kachru, Yamuna Kachru, Cecil L. Nelson
p518
sVurl
p519
V/work/28694392
p520
sVtroveUrl
p521
Vhttp://trove.nla.gov.au/work/28694392
p522
sVversionCount
p523
I2
sVholdingsCount
p524
I27
sVrelevance
p525
(dp526
Vscore
p527
V1.0
p528
sVvalue
p529
Vlikely to be relevant
p530
ssVissued
p531
V2006-2009
p532
sVcontributor
p533
(lp534
VKachru, Braj B
p535
asVidentifier
p536
(lp537
(dp538
Vlinktype
p539
Vunknown
p540
sVtype
p541
Vurl
p542
sVlinktext
p543
VView online via Blackwell Reference Online - 2007 Original Collection [ANU staff and students only]
p544
sVvalue
p545
Vhttps://anulib.anu.edu.au/tools/generic_revproxy.html?url=http://www.blackwellreference.com/public/book?id=g9781405111850_9781405111850
p546
sasVtype
p547
(lp548
VBook
p549
aVBook/Illustrated
p550
asVid
p551
V28694392
p552
sa(dp553
Vtitle
p554
VIndonesia beyond the water's edge : managing an archipelagic state / edited by Robert Cribb and Michele Ford
p555
sVurl
p556
V/work/28482817
p557
sVtroveUrl
p558
Vhttp://trove.nla.gov.au/work/28482817
p559
sVversionCount
p560
I3
sVholdingsCount
p561
I21
sVrelevance
p562
(dp563
Vscore
p564
V1.0
p565
sVvalue
p566
Vlikely to be relevant
p567
ssVissued
p568
I2009
sVcontributor
p569
(lp570
VCribb, R. B
p571
asVidentifier
p572
(lp573
(dp574
Vlinktype
p575
Vunknown
p576
sVtype
p577
Vurl
p578
sVlinktext
p579
VEBL - Onsite@slq + offsite access for e-services members and Queensland public library (QPL) account holders
p580
sVvalue
p581
Vhttp://www.SLQ.eblib.com.au/patron/FullRecord.aspx?p=730871
p582
sasVtype
p583
(lp584
VBook
p585
aVConference Proceedings
p586
aVBook/Illustrated
p587
asVid
p588
V28482817
p589
sa(dp590
Vtitle
p591
VKarch's pathology of drug abuse / Steven B. Karch
p592
sVurl
p593
V/work/26308009
p594
sVtroveUrl
p595
Vhttp://trove.nla.gov.au/work/26308009
p596
sVversionCount
p597
I6
sVholdingsCount
p598
I29
sVrelevance
p599
(dp600
Vscore
p601
V1.0
p602
sVvalue
p603
Vlikely to be relevant
p604
ssVissued
p605
V2001-2009
p606
sVcontributor
p607
(lp608
VKarch, Steven B
p609
asVidentifier
p610
(lp611
(dp612
Vlinktype
p613
Vunknown
p614
sVtype
p615
Vurl
p616
sVlinktext
p617
VEBL -  Onsite@slq + offsite access for e-services members and Queensland public library (QPL) account holders
p618
sVvalue
p619
Vhttp://www.SLQ.eblib.com.au/patron/FullRecord.aspx?p=381303
p620
sasVtype
p621
(lp622
VBook
p623
aVBook/Illustrated
p624
asVid
p625
V26308009
p626
sa(dp627
Vtitle
p628
VType 2 diabetes. quick reference guide / developed by the National Collaborating Centre for Chronic Conditions and the Centre for Clinical Practice at NICE
p629
sVurl
p630
V/work/188720041
p631
sVtroveUrl
p632
Vhttp://trove.nla.gov.au/work/188720041
p633
sVversionCount
p634
I1
sVholdingsCount
p635
I0
sVrelevance
p636
(dp637
Vscore
p638
V1.0
p639
sVvalue
p640
Vlikely to be relevant
p641
ssVissued
p642
I2009
sVcontributor
p643
(lp644
VNational Collaborating Centre for Chronic Conditions (Great Britain)
p645
asVidentifier
p646
(lp647
(dp648
Vlinktype
p649
Vunknown
p650
sVtype
p651
Vurl
p652
sVvalue
p653
Vhttp://www.nice.org.uk/nicemedia/live/12165/44322/44322.pdf
p654
sasVtype
p655
(lp656
VBook
p657
aVBook/Illustrated
p658
asVid
p659
V188720041
p660
sa(dp661
Vtitle
p662
VTreating depression in adults with a long-term physical health problem : Understanding NICE guidance : Information for people who use NHS services
p663
sVurl
p664
V/work/188720047
p665
sVtroveUrl
p666
Vhttp://trove.nla.gov.au/work/188720047
p667
sVversionCount
p668
I1
sVholdingsCount
p669
I0
sVrelevance
p670
(dp671
Vscore
p672
V1.0
p673
sVvalue
p674
Vlikely to be relevant
p675
ssVissued
p676
I2009
sVcontributor
p677
(lp678
VGreat Britain. National Health Service
p679
asVidentifier
p680
(lp681
(dp682
Vlinktype
p683
Vunknown
p684
sVtype
p685
Vurl
p686
sVvalue
p687
Vhttp://www.nice.org.uk/nicemedia/live/12327/45866/45866.pdf
p688
sasVtype
p689
(lp690
VBook
p691
asVid
p692
V188720047
p693
sa(dp694
Vtitle
p695
VTreating angina using a laser applied to the inside of the heart wall via a catheter inserted through an artery : Understanding NICE guidance : Information for people who use NHS services
p696
sVurl
p697
V/work/188720067
p698
sVtroveUrl
p699
Vhttp://trove.nla.gov.au/work/188720067
p700
sVversionCount
p701
I1
sVholdingsCount
p702
I0
sVrelevance
p703
(dp704
Vscore
p705
V1.0
p706
sVvalue
p707
Vlikely to be relevant
p708
ssVissued
p709
I2009
sVcontributor
p710
(lp711
VGreat Britain. National Health Service
p712
asVidentifier
p713
(lp714
(dp715
Vlinktype
p716
Vunknown
p717
sVtype
p718
Vurl
p719
sVvalue
p720
Vhttp://www.nice.org.uk/nicemedia/live/11341/44348/44348.pdf
p721
sasVtype
p722
(lp723
VBook
p724
asVid
p725
V188720067
p726
sa(dp727
Vtitle
p728
VDiarrhoea and vomiting caused by gastroenteritis : diagnosis, assessment and management in children younger than 5 years / National Collaborating Centre for Women's and Children's Health (UK)
p729
sVurl
p730
V/work/181227602
p731
sVtroveUrl
p732
Vhttp://trove.nla.gov.au/work/181227602
p733
sVversionCount
p734
I4
sVholdingsCount
p735
I1
sVrelevance
p736
(dp737
Vscore
p738
V1.0
p739
sVvalue
p740
Vlikely to be relevant
p741
ssVissued
p742
I2009
sVcontributor
p743
(lp744
VNational Collaborating Centre for Women's and Children's Health (Great Britain)
p745
asVidentifier
p746
(lp747
(dp748
Vlinktype
p749
Vunknown
p750
sVtype
p751
Vurl
p752
sVvalue
p753
Vhttp://www.ncc-wch.org.uk/media/filestore/completed-guideline-documents/Diarrhoea%20and%20Vomiting%20in%20Children%20under%205%20Search%20Strategies.pdf
p754
sasVtype
p755
(lp756
VBook
p757
aVBook/Illustrated
p758
asVid
p759
V181227602
p760
sa(dp761
Vtitle
p762
VType 2 diabetes
p763
sVurl
p764
V/work/188720042
p765
sVtroveUrl
p766
Vhttp://trove.nla.gov.au/work/188720042
p767
sVversionCount
p768
I1
sVholdingsCount
p769
I0
sVrelevance
p770
(dp771
Vscore
p772
V1.0
p773
sVvalue
p774
Vlikely to be relevant
p775
ssVissued
p776
I2009
sVcontributor
p777
(lp778
VNational Institute for Health and Clinical Excellence (Great Britain)
p779
asVidentifier
p780
(lp781
(dp782
Vlinktype
p783
Vunknown
p784
sVtype
p785
Vurl
p786
sVvalue
p787
Vhttp://www.nice.org.uk/nicemedia/live/12165/44323/44323.pdf
p788
sasVtype
p789
(lp790
VBook
p791
asVid
p792
V188720042
p793
sa(dp794
Vtitle
p795
VTreating depression in adults : Understanding NICE guidance : Information for people who use NHS services
p796
sVurl
p797
V/work/188720044
p798
sVtroveUrl
p799
Vhttp://trove.nla.gov.au/work/188720044
p800
sVversionCount
p801
I1
sVholdingsCount
p802
I0
sVrelevance
p803
(dp804
Vscore
p805
V1.0
p806
sVvalue
p807
Vlikely to be relevant
p808
ssVissued
p809
I2009
sVcontributor
p810
(lp811
VGreat Britain. National Health Service
p812
asVidentifier
p813
(lp814
(dp815
Vlinktype
p816
Vunknown
p817
sVtype
p818
Vurl
p819
sVvalue
p820
Vhttp://www.nice.org.uk/nicemedia/live/12329/45891/45891.pdf
p821
sasVtype
p822
(lp823
VBook
p824
asVid
p825
V188720044
p826
sa(dp827
Vtitle
p828
VTreating angina using a laser device inserted through a cut in the chest and applied to the outside of the heart wall : Understanding NICE guidance : Information for people who use NHS services
p829
sVurl
p830
V/work/188720066
p831
sVtroveUrl
p832
Vhttp://trove.nla.gov.au/work/188720066
p833
sVversionCount
p834
I1
sVholdingsCount
p835
I0
sVrelevance
p836
(dp837
Vscore
p838
V1.0
p839
sVvalue
p840
Vlikely to be relevant
p841
ssVissued
p842
I2009
sVcontributor
p843
(lp844
VGreat Britain. National Health Service
p845
asVidentifier
p846
(lp847
(dp848
Vlinktype
p849
Vunknown
p850
sVtype
p851
Vurl
p852
sVvalue
p853
Vhttp://www.nice.org.uk/nicemedia/live/11346/44381/44381.pdf
p854
sasVtype
p855
(lp856
VBook
p857
asVid
p858
V188720066
p859
sa(dp860
Vtitle
p861
VTreating chronic plantar fasciitis using shockwave therapy : Understanding NICE guidance : Information for people who use NHS services
p862
sVurl
p863
V/work/188720068
p864
sVtroveUrl
p865
Vhttp://trove.nla.gov.au/work/188720068
p866
sVversionCount
p867
I1
sVholdingsCount
p868
I0
sVrelevance
p869
(dp870
Vscore
p871
V1.0
p872
sVvalue
p873
Vlikely to be relevant
p874
ssVissued
p875
I2009
sVcontributor
p876
(lp877
VGreat Britain. National Health Service
p878
asVidentifier
p879
(lp880
(dp881
Vlinktype
p882
Vunknown
p883
sVtype
p884
Vurl
p885
sVvalue
p886
Vhttp://www.nice.org.uk/nicemedia/live/11187/45229/45229.pdf
p887
sasVtype
p888
(lp889
VBook
p890
asVid
p891
V188720068
p892
sa(dp893
Vtitle
p894
VImage analysis and recognition : 6th international conference, ICIAR 2009, Halifax, Canada, July 6-8, 2009 : proceedings / Mohamed Kamel, Aurelio Campilho (eds.)
p895
sVurl
p896
V/work/36729704
p897
sVtroveUrl
p898
Vhttp://trove.nla.gov.au/work/36729704
p899
sVversionCount
p900
I2
sVholdingsCount
p901
I3
sVrelevance
p902
(dp903
Vscore
p904
V1.0
p905
sVvalue
p906
Vlikely to be relevant
p907
ssVissued
p908
I2009
sVcontributor
p909
(lp910
VICIAR 2009 Halifax, N.S.) (2009 :
p911
asVidentifier
p912
(lp913
(dp914
Vlinktype
p915
Vrestricted
p916
sVtype
p917
Vurl
p918
sVlinktext
p919
VSearch for individual volumes on contents page
p920
sVvalue
p921
Vhttp://www.springerlink.com/content/105633
p922
sasVtype
p923
(lp924
VConference Proceedings
p925
asVid
p926
V36729704
p927
sa(dp928
Vtitle
p929
VSegregacio\u0301n residencial en Argentina
p930
sVurl
p931
V/work/188721770
p932
sVtroveUrl
p933
Vhttp://trove.nla.gov.au/work/188721770
p934
sVversionCount
p935
I1
sVholdingsCount
p936
I0
sVrelevance
p937
(dp938
Vscore
p939
V1.0
p940
sVvalue
p941
Vlikely to be relevant
p942
ssVissued
p943
I2009
sVcontributor
p944
(lp945
VSua\u0301rez, Ana Lourdes
p946
asVidentifier
p947
(lp948
(dp949
Vlinktype
p950
Vunknown
p951
sVtype
p952
Vurl
p953
sVvalue
p954
Vhttp://core.cambeiro.com.ar/0-165826-5.pdf
p955
sasVtype
p956
(lp957
VBook
p958
aVBook/Illustrated
p959
asVid
p960
V188721770
p961
sa(dp962
Vtitle
p963
VParentesco, patronazgo y Estado en las sociedades antiguas / Marcelo Campagno, editor
p964
sVurl
p965
V/work/188721773
p966
sVtroveUrl
p967
Vhttp://trove.nla.gov.au/work/188721773
p968
sVversionCount
p969
I1
sVholdingsCount
p970
I0
sVrelevance
p971
(dp972
Vscore
p973
V1.0
p974
sVvalue
p975
Vlikely to be relevant
p976
ssVissued
p977
I2009
sVcontributor
p978
(lp979
VCampagno, Marcelo
p980
asVidentifier
p981
(lp982
(dp983
Vlinktype
p984
Vunknown
p985
sVtype
p986
Vurl
p987
sVvalue
p988
Vhttp://core.cambeiro.com.ar/0-165677-2.pdf
p989
sasVtype
p990
(lp991
VBook
p992
aVBook/Illustrated
p993
asVid
p994
V188721773
p995
sa(dp996
Vtitle
p997
VTeatro reunido / Manuel Puig ; pro\u0301logo, Jorge Dubatti
p998
sVurl
p999
V/work/188723224
p1000
sVtroveUrl
p1001
Vhttp://trove.nla.gov.au/work/188723224
p1002
sVversionCount
p1003
I1
sVholdingsCount
p1004
I0
sVrelevance
p1005
(dp1006
Vscore
p1007
V1.0
p1008
sVvalue
p1009
Vlikely to be relevant
p1010
ssVissued
p1011
I2009
sVcontributor
p1012
(lp1013
VPuig, Manuel
p1014
asVidentifier
p1015
(lp1016
(dp1017
Vlinktype
p1018
Vunknown
p1019
sVtype
p1020
Vurl
p1021
sVlinktext
p1022
V93
p1023
sVvalue
p1024
Vhttp://www.gbv.de/dms/spk/iai/cov/614496721.jpg
p1025
sasVtype
p1026
(lp1027
VBook
p1028
asVid
p1029
V188723224
p1030
sa(dp1031
Vtitle
p1032
VThe bravo
p1033
sVurl
p1034
V/work/1338493
p1035
sVtroveUrl
p1036
Vhttp://trove.nla.gov.au/work/1338493
p1037
sVversionCount
p1038
I13
sVholdingsCount
p1039
I6
sVrelevance
p1040
(dp1041
Vscore
p1042
V1.0
p1043
sVvalue
p1044
Vlikely to be relevant
p1045
ssVissued
p1046
V1831-2009
p1047
sVcontributor
p1048
(lp1049
VCooper, James Fenimore, 1789-1851
p1050
asVidentifier
p1051
(lp1052
(dp1053
Vlinktype
p1054
Vfulltext
p1055
sVtype
p1056
Vurl
p1057
sVlinktext
p1058
Vv. 1
p1059
sVvalue
p1060
Vhttp://hdl.handle.net/2027/uc1.$b287364
p1061
sasVtype
p1062
(lp1063
VBook
p1064
aVBook/Illustrated
p1065
aVArticle
p1066
asVid
p1067
V1338493
p1068
sa(dp1069
Vtitle
p1070
VThe vitamin D requirements of chickens grown in the absence of sunlight / J.R. Couch, G.S. Fraps, and R.M. Sherwood
p1071
sVurl
p1072
V/work/28789359
p1073
sVtroveUrl
p1074
Vhttp://trove.nla.gov.au/work/28789359
p1075
sVversionCount
p1076
I2
sVholdingsCount
p1077
I0
sVrelevance
p1078
(dp1079
Vscore
p1080
V1.0
p1081
sVvalue
p1082
Vlikely to be relevant
p1083
ssVissued
p1084
V1935-2009
p1085
sVcontributor
p1086
(lp1087
VCouch, James Russell
p1088
aV Fraps, G. S. (George Stronach)
p1089
aV Sherwood, R. M. (Ross Madison)
p1090
asVidentifier
p1091
(lp1092
(dp1093
Vlinktype
p1094
Vfulltext
p1095
sVtype
p1096
Vurl
p1097
sVvalue
p1098
Vhttp://hdl.handle.net/2027/txa.tarb004305
p1099
sasVtype
p1100
(lp1101
VBook
p1102
aVArticle
p1103
asVid
p1104
V28789359
p1105
sa(dp1106
Vtitle
p1107
VPrickly Pear Eradication and Control
p1108
sVurl
p1109
V/work/28797707
p1110
sVtroveUrl
p1111
Vhttp://trove.nla.gov.au/work/28797707
p1112
sVversionCount
p1113
I2
sVholdingsCount
p1114
I0
sVrelevance
p1115
(dp1116
Vscore
p1117
V1.0
p1118
sVvalue
p1119
Vlikely to be relevant
p1120
ssVissued
p1121
V1939-2009
p1122
sVcontributor
p1123
(lp1124
VDameron, W. H
p1125
asVidentifier
p1126
(lp1127
(dp1128
Vlinktype
p1129
Vfulltext
p1130
sVtype
p1131
Vurl
p1132
sVvalue
p1133
Vhttp://hdl.handle.net/2027/txa.tarb086496
p1134
sasVtype
p1135
(lp1136
VBook
p1137
aVArticle
p1138
asVid
p1139
V28797707
p1140
sa(dp1141
Vtitle
p1142
VCotton Root Rot Studies with Special Reference to Sclerotia, Cover Crops, Rotations, Tillage, Seeding Rates, Soil Fungicides, and Effects on Seed Quality
p1143
sVurl
p1144
V/work/28797813
p1145
sVtroveUrl
p1146
Vhttp://trove.nla.gov.au/work/28797813
p1147
sVversionCount
p1148
I2
sVholdingsCount
p1149
I0
sVrelevance
p1150
(dp1151
Vscore
p1152
V1.0
p1153
sVvalue
p1154
Vlikely to be relevant
p1155
ssVissued
p1156
V1942-2009
p1157
sVcontributor
p1158
(lp1159
VRogers, Cyril H.
p1160
asVidentifier
p1161
(lp1162
(dp1163
Vlinktype
p1164
Vfulltext
p1165
sVtype
p1166
Vurl
p1167
sVvalue
p1168
Vhttp://hdl.handle.net/2027/txa.tarb086545
p1169
sasVtype
p1170
(lp1171
VBook
p1172
aVArticle
p1173
asVid
p1174
V28797813
p1175
sa(dp1176
Vtitle
p1177
VCotton Seed-Treatment Studies at the Blackland Experiment Station
p1178
sVurl
p1179
V/work/28797865
p1180
sVtroveUrl
p1181
Vhttp://trove.nla.gov.au/work/28797865
p1182
sVversionCount
p1183
I2
sVholdingsCount
p1184
I0
sVrelevance
p1185
(dp1186
Vscore
p1187
V1.0
p1188
sVvalue
p1189
Vlikely to be relevant
p1190
ssVissued
p1191
V1943-2009
p1192
sVcontributor
p1193
(lp1194
VRogers, Cyril H.
p1195
asVidentifier
p1196
(lp1197
(dp1198
Vlinktype
p1199
Vfulltext
p1200
sVtype
p1201
Vurl
p1202
sVvalue
p1203
Vhttp://hdl.handle.net/2027/txa.tarb086572
p1204
sasVtype
p1205
(lp1206
VBook
p1207
aVArticle
p1208
asVid
p1209
V28797865
p1210
sa(dp1211
Vtitle
p1212
VStudies on sweet potato production methods in Texas / by R.E. Wright
p1213
sVurl
p1214
V/work/28797965
p1215
sVtroveUrl
p1216
Vhttp://trove.nla.gov.au/work/28797965
p1217
sVversionCount
p1218
I2
sVholdingsCount
p1219
I0
sVrelevance
p1220
(dp1221
Vscore
p1222
V1.0
p1223
sVvalue
p1224
Vlikely to be relevant
p1225
ssVissued
p1226
V1945-2009
p1227
sVcontributor
p1228
(lp1229
VWright, R. E.
p1230
asVidentifier
p1231
(lp1232
(dp1233
Vlinktype
p1234
Vfulltext
p1235
sVtype
p1236
Vurl
p1237
sVvalue
p1238
Vhttp://handle.tamu.edu/1969.1/86296
p1239
sasVtype
p1240
(lp1241
VBook
p1242
aVArticle
p1243
asVid
p1244
V28797965
p1245
sa(dp1246
Vtitle
p1247
VCorn Hybrids for Texas
p1248
sVurl
p1249
V/work/28798225
p1250
sVtroveUrl
p1251
Vhttp://trove.nla.gov.au/work/28798225
p1252
sVversionCount
p1253
I6
sVholdingsCount
p1254
I0
sVrelevance
p1255
(dp1256
Vscore
p1257
V1.0
p1258
sVvalue
p1259
Vlikely to be relevant
p1260
ssVissued
p1261
V1954-2009
p1262
sVcontributor
p1263
(lp1264
VBockholt, A. J
p1265
asVidentifier
p1266
(lp1267
(dp1268
Vlinktype
p1269
Vfulltext
p1270
sVtype
p1271
Vurl
p1272
sVvalue
p1273
Vhttp://handle.tamu.edu/1969.1/86601
p1274
sasVtype
p1275
(lp1276
VBook
p1277
aVArticle
p1278
asVid
p1279
V28798225
p1280
sa(dp1281
Vtitle
p1282
VRural Education in Transition : A Study of Recent Trends in Education in Five Texas Rural Counties
p1283
sVurl
p1284
V/work/28798281
p1285
sVtroveUrl
p1286
Vhttp://trove.nla.gov.au/work/28798281
p1287
sVversionCount
p1288
I2
sVholdingsCount
p1289
I0
sVrelevance
p1290
(dp1291
Vscore
p1292
V1.0
p1293
sVvalue
p1294
Vlikely to be relevant
p1295
ssVissued
p1296
V1954-2009
p1297
sVcontributor
p1298
(lp1299
VSkrabanek, R. L.
p1300
asVidentifier
p1301
(lp1302
(dp1303
Vlinktype
p1304
Vfulltext
p1305
sVtype
p1306
Vurl
p1307
sVvalue
p1308
Vhttp://hdl.handle.net/2027/txa.tarb086750
p1309
sasVtype
p1310
(lp1311
VBook
p1312
aVArticle
p1313
asVid
p1314
V28798281
p1315
sa(dp1316
Vtitle
p1317
VMethods of Determining the Optimum Stage of Maturity for Picking Green-Wrap Tomatoes
p1318
sVurl
p1319
V/work/28798497
p1320
sVtroveUrl
p1321
Vhttp://trove.nla.gov.au/work/28798497
p1322
sVversionCount
p1323
I2
sVholdingsCount
p1324
I0
sVrelevance
p1325
(dp1326
Vscore
p1327
V1.0
p1328
sVvalue
p1329
Vlikely to be relevant
p1330
ssVissued
p1331
V1955-2009
p1332
sVcontributor
p1333
(lp1334
VSorensen, H. B.
p1335
asVidentifier
p1336
(lp1337
(dp1338
Vlinktype
p1339
Vfulltext
p1340
sVtype
p1341
Vurl
p1342
sVvalue
p1343
Vhttp://handle.tamu.edu/1969.1/86523
p1344
sasVtype
p1345
(lp1346
VBook
p1347
aVArticle
p1348
asVid
p1349
V28798497
p1350
sa(dp1351
Vtitle
p1352
VCharacteristics and changes in the Texas farm population / R.L. Skrabanek
p1353
sVurl
p1354
V/work/28798507
p1355
sVtroveUrl
p1356
Vhttp://trove.nla.gov.au/work/28798507
p1357
sVversionCount
p1358
I2
sVholdingsCount
p1359
I0
sVrelevance
p1360
(dp1361
Vscore
p1362
V1.0
p1363
sVvalue
p1364
Vlikely to be relevant
p1365
ssVissued
p1366
V1955-2009
p1367
sVcontributor
p1368
(lp1369
VSkrabanek, R. L.
p1370
asVidentifier
p1371
(lp1372
(dp1373
Vlinktype
p1374
Vfulltext
p1375
sVtype
p1376
Vurl
p1377
sVvalue
p1378
Vhttp://hdl.handle.net/2027/txa.tarb086799
p1379
sasVtype
p1380
(lp1381
VBook
p1382
aVArticle
p1383
asVid
p1384
V28798507
p1385
sa(dp1386
Vtitle
p1387
VLegislation Affecting the Rice Industry, 1933-56
p1388
sVurl
p1389
V/work/28798539
p1390
sVtroveUrl
p1391
Vhttp://trove.nla.gov.au/work/28798539
p1392
sVversionCount
p1393
I2
sVholdingsCount
p1394
I0
sVrelevance
p1395
(dp1396
Vscore
p1397
V1.0
p1398
sVvalue
p1399
Vlikely to be relevant
p1400
ssVissued
p1401
V1956-2009
p1402
sVcontributor
p1403
(lp1404
VKincannon, John A.
p1405
asVidentifier
p1406
(lp1407
(dp1408
Vlinktype
p1409
Vfulltext
p1410
sVtype
p1411
Vurl
p1412
sVvalue
p1413
Vhttp://hdl.handle.net/2027/txa.tarb086814
p1414
sasVtype
p1415
(lp1416
VBook
p1417
aVArticle
p1418
asVid
p1419
V28798539
p1420
sa(dp1421
Vtitle
p1422
VFitting beef cattle into central Texas farming / A.C. Magee
p1423
sVurl
p1424
V/work/28798541
p1425
sVtroveUrl
p1426
Vhttp://trove.nla.gov.au/work/28798541
p1427
sVversionCount
p1428
I2
sVholdingsCount
p1429
I0
sVrelevance
p1430
(dp1431
Vscore
p1432
V1.0
p1433
sVvalue
p1434
Vlikely to be relevant
p1435
ssVissued
p1436
V1956-2009
p1437
sVcontributor
p1438
(lp1439
VMagee, A. C.
p1440
asVidentifier
p1441
(lp1442
(dp1443
Vlinktype
p1444
Vfulltext
p1445
sVtype
p1446
Vurl
p1447
sVvalue
p1448
Vhttp://hdl.handle.net/2027/txa.tarb086815
p1449
sasVtype
p1450
(lp1451
VBook
p1452
aVArticle
p1453
asVid
p1454
V28798541
p1455
sa(dp1456
Vtitle
p1457
VThe Consumer Market for Beef
p1458
sVurl
p1459
V/work/28798583
p1460
sVtroveUrl
p1461
Vhttp://trove.nla.gov.au/work/28798583
p1462
sVversionCount
p1463
I2
sVholdingsCount
p1464
I0
sVrelevance
p1465
(dp1466
Vscore
p1467
V1.0
p1468
sVvalue
p1469
Vlikely to be relevant
p1470
ssVissued
p1471
V1957-2009
p1472
sVcontributor
p1473
(lp1474
VBranson, Robert E.
p1475
asVidentifier
p1476
(lp1477
(dp1478
Vlinktype
p1479
Vfulltext
p1480
sVtype
p1481
Vurl
p1482
sVvalue
p1483
Vhttp://handle.tamu.edu/1969.1/86408
p1484
sasVtype
p1485
(lp1486
VBook
p1487
aVArticle
p1488
asVid
p1489
V28798583
p1490
sa(dp1491
Vtitle
p1492
VTexas Farmers and Old Age and Survivors Insurance
p1493
sVurl
p1494
V/work/28798775
p1495
sVtroveUrl
p1496
Vhttp://trove.nla.gov.au/work/28798775
p1497
sVversionCount
p1498
I2
sVholdingsCount
p1499
I0
sVrelevance
p1500
(dp1501
Vscore
p1502
V1.0
p1503
sVvalue
p1504
Vlikely to be relevant
p1505
ssVissued
p1506
V1958-2009
p1507
sVcontributor
p1508
(lp1509
VSkrabanek, R. L
p1510
asVidentifier
p1511
(lp1512
(dp1513
Vlinktype
p1514
Vfulltext
p1515
sVtype
p1516
Vurl
p1517
sVvalue
p1518
Vhttp://hdl.handle.net/2027/txa.tarb086961
p1519
sasVtype
p1520
(lp1521
VBook
p1522
aVArticle
p1523
asVid
p1524
V28798775
p1525
sa(dp1526
Vtitle
p1527
VConsumer Attitudes and Preferences Regarding Chicken
p1528
sVurl
p1529
V/work/28798791
p1530
sVtroveUrl
p1531
Vhttp://trove.nla.gov.au/work/28798791
p1532
sVversionCount
p1533
I2
sVholdingsCount
p1534
I0
sVrelevance
p1535
(dp1536
Vscore
p1537
V1.0
p1538
sVvalue
p1539
Vlikely to be relevant
p1540
ssVissued
p1541
V1958-2009
p1542
sVcontributor
p1543
(lp1544
VBranson, Robert E
p1545
asVidentifier
p1546
(lp1547
(dp1548
Vlinktype
p1549
Vfulltext
p1550
sVtype
p1551
Vurl
p1552
sVvalue
p1553
Vhttp://hdl.handle.net/2027/txa.tarb086965
p1554
sasVtype
p1555
(lp1556
VBook
p1557
aVArticle
p1558
asVid
p1559
V28798791
p1560
sa(dp1561
Vtitle
p1562
VProduction methods and new markets for Texas florist crops / H.B. Sorensen, A.F. DeWerth and E.R. Jensen
p1563
sVurl
p1564
V/work/28798815
p1565
sVtroveUrl
p1566
Vhttp://trove.nla.gov.au/work/28798815
p1567
sVversionCount
p1568
I2
sVholdingsCount
p1569
I0
sVrelevance
p1570
(dp1571
Vscore
p1572
V1.0
p1573
sVvalue
p1574
Vlikely to be relevant
p1575
ssVissued
p1576
V1958-2009
p1577
sVcontributor
p1578
(lp1579
VSorensen, H. B. (Harold B.)
p1580
asVidentifier
p1581
(lp1582
(dp1583
Vlinktype
p1584
Vfulltext
p1585
sVtype
p1586
Vurl
p1587
sVvalue
p1588
Vhttp://hdl.handle.net/2027/txa.tarb086976
p1589
sasVtype
p1590
(lp1591
VBook
p1592
aVArticle
p1593
asVid
p1594
V28798815
p1595
sa(dp1596
Vtitle
p1597
VProfits and Losses from On-farm Drying and Storage of Grain Sorghum in Central Texas and the Coastal Bend
p1598
sVurl
p1599
V/work/28798827
p1600
sVtroveUrl
p1601
Vhttp://trove.nla.gov.au/work/28798827
p1602
sVversionCount
p1603
I2
sVholdingsCount
p1604
I0
sVrelevance
p1605
(dp1606
Vscore
p1607
V1.0
p1608
sVvalue
p1609
Vlikely to be relevant
p1610
ssVissued
p1611
V1958-2009
p1612
sVcontributor
p1613
(lp1614
VHildreth, R. J. (Roland J.)
p1615
asVidentifier
p1616
(lp1617
(dp1618
Vlinktype
p1619
Vfulltext
p1620
sVtype
p1621
Vurl
p1622
sVvalue
p1623
Vhttp://hdl.handle.net/2027/txa.tarb086980
p1624
sasVtype
p1625
(lp1626
VBook
p1627
aVArticle
p1628
asVid
p1629
V28798827
p1630
sa(dp1631
Vtitle
p1632
VAccelerated wear tests on common floor-covering materials / B.R. Stewart, O.R. Kunze and Price Hobgood
p1633
sVurl
p1634
V/work/28798887
p1635
sVtroveUrl
p1636
Vhttp://trove.nla.gov.au/work/28798887
p1637
sVversionCount
p1638
I2
sVholdingsCount
p1639
I0
sVrelevance
p1640
(dp1641
Vscore
p1642
V1.0
p1643
sVvalue
p1644
Vlikely to be relevant
p1645
ssVissued
p1646
V1958-2009
p1647
sVcontributor
p1648
(lp1649
VStewart, B. R.
p1650
aV Kunze, O. R.
p1651
aV Hobgood, Price.
p1652
asVidentifier
p1653
(lp1654
(dp1655
Vlinktype
p1656
Vfulltext
p1657
sVtype
p1658
Vurl
p1659
sVvalue
p1660
Vhttp://hdl.handle.net/2027/txa.tarb086992
p1661
sasVtype
p1662
(lp1663
VBook
p1664
aVArticle
p1665
asVid
p1666
V28798887
p1667
sa(dp1668
Vtitle
p1669
VEconomics of water management for cotton and grain sorghum production, High Plains / Wm. F. Hughes ... [et al.]
p1670
sVurl
p1671
V/work/28798995
p1672
sVtroveUrl
p1673
Vhttp://trove.nla.gov.au/work/28798995
p1674
sVversionCount
p1675
I2
sVholdingsCount
p1676
I0
sVrelevance
p1677
(dp1678
Vscore
p1679
V1.0
p1680
sVvalue
p1681
Vlikely to be relevant
p1682
ssVissued
p1683
V1959-2009
p1684
sVcontributor
p1685
(lp1686
VHughes, Wm. F.
p1687
aV Magee, A. C.
p1688
aV Jones, Don
p1689
aV Thaxton, Earnest L. Jr.
p1690
asVidentifier
p1691
(lp1692
(dp1693
Vlinktype
p1694
Vfulltext
p1695
sVtype
p1696
Vurl
p1697
sVvalue
p1698
Vhttp://handle.tamu.edu/1969.1/86616
p1699
sasVtype
p1700
(lp1701
VBook
p1702
aVArticle
p1703
asVid
p1704
V28798995
p1705
sa(dp1706
Vtitle
p1707
VImproved Grades and Consumer Demand for In-Shell Pecans
p1708
sVurl
p1709
V/work/28798997
p1710
sVtroveUrl
p1711
Vhttp://trove.nla.gov.au/work/28798997
p1712
sVversionCount
p1713
I2
sVholdingsCount
p1714
I0
sVrelevance
p1715
(dp1716
Vscore
p1717
V1.0
p1718
sVvalue
p1719
Vlikely to be relevant
p1720
ssVissued
p1721
V1959-2009
p1722
sVcontributor
p1723
(lp1724
VBrison, Fred R.
p1725
aV Branson, Robert E.
p1726
aV Clark, Wayne W.
p1727
aV Krezdorn, A. H.
p1728
aV Storey, J. B.
p1729
asVidentifier
p1730
(lp1731
(dp1732
Vlinktype
p1733
Vfulltext
p1734
sVtype
p1735
Vurl
p1736
sVvalue
p1737
Vhttp://hdl.handle.net/2027/txa.tarb087008
p1738
sasVtype
p1739
(lp1740
VBook
p1741
aVArticle
p1742
asVid
p1743
V28798997
p1744
sa(dp1745
Vtitle
p1746
VResidual Toxicities of Insecticides to Cotton Insects
p1747
sVurl
p1748
V/work/28802469
p1749
sVtroveUrl
p1750
Vhttp://trove.nla.gov.au/work/28802469
p1751
sVversionCount
p1752
I2
sVholdingsCount
p1753
I0
sVrelevance
p1754
(dp1755
Vscore
p1756
V1.0
p1757
sVvalue
p1758
Vlikely to be relevant
p1759
ssVissued
p1760
V1960-2009
p1761
sVcontributor
p1762
(lp1763
VHightower, B. G. (Billie Gene)
p1764
asVidentifier
p1765
(lp1766
(dp1767
Vlinktype
p1768
Vfulltext
p1769
sVtype
p1770
Vurl
p1771
sVvalue
p1772
Vhttp://hdl.handle.net/2027/txa.tarb088264
p1773
sasVtype
p1774
(lp1775
VBook
p1776
aVArticle
p1777
asVid
p1778
V28802469
p1779
sa(dp1780
Vtitle
p1781
VPart-time farming in northeast Texas / James R. Martin and John H. Southern
p1782
sVurl
p1783
V/work/28802511
p1784
sVtroveUrl
p1785
Vhttp://trove.nla.gov.au/work/28802511
p1786
sVversionCount
p1787
I2
sVholdingsCount
p1788
I0
sVrelevance
p1789
(dp1790
Vscore
p1791
V1.0
p1792
sVvalue
p1793
Vlikely to be relevant
p1794
ssVissued
p1795
V1961-2009
p1796
sVcontributor
p1797
(lp1798
VMartin, James R
p1799
asVidentifier
p1800
(lp1801
(dp1802
Vlinktype
p1803
Vfulltext
p1804
sVtype
p1805
Vurl
p1806
sVvalue
p1807
Vhttp://hdl.handle.net/2027/txa.tarb088282
p1808
sasVtype
p1809
(lp1810
VBook
p1811
aVArticle
p1812
asVid
p1813
V28802511
p1814
sa(dp1815
Vtitle
p1816
VRole of Money in Rural Family Living
p1817
sVurl
p1818
V/work/28802537
p1819
sVtroveUrl
p1820
Vhttp://trove.nla.gov.au/work/28802537
p1821
sVversionCount
p1822
I2
sVholdingsCount
p1823
I0
sVrelevance
p1824
(dp1825
Vscore
p1826
V1.0
p1827
sVvalue
p1828
Vlikely to be relevant
p1829
ssVissued
p1830
V1961-2009
p1831
sVcontributor
p1832
(lp1833
VNelson, Bardin H. (Bardin Hubert)
p1834
asVidentifier
p1835
(lp1836
(dp1837
Vlinktype
p1838
Vfulltext
p1839
sVtype
p1840
Vurl
p1841
sVvalue
p1842
Vhttp://handle.tamu.edu/1969.1/87899
p1843
sasVtype
p1844
(lp1845
VBook
p1846
aVArticle
p1847
asVid
p1848
V28802537
p1849
sa(dp1850
Vtitle
p1851
VInfluence of cropping systems on cotton and corn yields on the Gulf Coast prairie / B.E. Jeter, J.C. Smith and E.L. Whiteley
p1852
sVurl
p1853
V/work/28802619
p1854
sVtroveUrl
p1855
Vhttp://trove.nla.gov.au/work/28802619
p1856
sVversionCount
p1857
I2
sVholdingsCount
p1858
I0
sVrelevance
p1859
(dp1860
Vscore
p1861
V1.0
p1862
sVvalue
p1863
Vlikely to be relevant
p1864
ssVissued
p1865
V1962-2009
p1866
sVcontributor
p1867
(lp1868
VJeter, B. E. (Brook Ercell)
p1869
asVidentifier
p1870
(lp1871
(dp1872
Vlinktype
p1873
Vfulltext
p1874
sVtype
p1875
Vurl
p1876
sVvalue
p1877
Vhttp://handle.tamu.edu/1969.1/87917
p1878
sasVtype
p1879
(lp1880
VBook
p1881
aVArticle
p1882
asVid
p1883
V28802619
p1884
sa(dp1885
Vtitle
p1886
VBudgeting in Texas counties, 1931-1940 / by H.C. Bradshaw
p1887
sVurl
p1888
V/work/28797788
p1889
sVtroveUrl
p1890
Vhttp://trove.nla.gov.au/work/28797788
p1891
sVversionCount
p1892
I2
sVholdingsCount
p1893
I0
sVrelevance
p1894
(dp1895
Vscore
p1896
V1.0
p1897
sVvalue
p1898
Vlikely to be relevant
p1899
ssVissued
p1900
V1941-2009
p1901
sVcontributor
p1902
(lp1903
VBradshaw, H. C.
p1904
asVidentifier
p1905
(lp1906
(dp1907
Vlinktype
p1908
Vfulltext
p1909
sVtype
p1910
Vurl
p1911
sVvalue
p1912
Vhttp://hdl.handle.net/2027/txa.tarb086530
p1913
sasVtype
p1914
(lp1915
VBook
p1916
aVArticle
p1917
asVid
p1918
V28797788
p1919
sa(dp1920
Vtitle
p1921
VOrnamentals for Southwest Texas
p1922
sVurl
p1923
V/work/28798022
p1924
sVtroveUrl
p1925
Vhttp://trove.nla.gov.au/work/28798022
p1926
sVversionCount
p1927
I2
sVholdingsCount
p1928
I0
sVrelevance
p1929
(dp1930
Vscore
p1931
V1.0
p1932
sVvalue
p1933
Vlikely to be relevant
p1934
ssVissued
p1935
V1947-2009
p1936
sVcontributor
p1937
(lp1938
VMortensen, Ernest
p1939
asVidentifier
p1940
(lp1941
(dp1942
Vlinktype
p1943
Vfulltext
p1944
sVtype
p1945
Vurl
p1946
sVvalue
p1947
Vhttp://hdl.handle.net/2027/txa.tarb086650
p1948
sasVtype
p1949
(lp1950
VBook
p1951
aVArticle
p1952
asVid
p1953
V28798022
p1954
sa(dp1955
Vtitle
p1956
VMethods and Cost of Handling Texas Citrus, 1946-51
p1957
sVurl
p1958
V/work/28798210
p1959
sVtroveUrl
p1960
Vhttp://trove.nla.gov.au/work/28798210
p1961
sVversionCount
p1962
I2
sVholdingsCount
p1963
I0
sVrelevance
p1964
(dp1965
Vscore
p1966
V1.0
p1967
sVvalue
p1968
Vlikely to be relevant
p1969
ssVissued
p1970
V1953-2009
p1971
sVcontributor
p1972
(lp1973
VSorensen, H. B.
p1974
aV Baker, C. K.
p1975
asVidentifier
p1976
(lp1977
(dp1978
Vlinktype
p1979
Vfulltext
p1980
sVtype
p1981
Vurl
p1982
sVvalue
p1983
Vhttp://hdl.handle.net/2027/txa.tarb086738
p1984
sasVtype
p1985
(lp1986
VBook
p1987
aVArticle
p1988
asVid
p1989
V28798210
p1990
sa(dp1991
Vtitle
p1992
VIncome and cost analysis : cooperative cotton gins and cooperative supply associations of Texas, season 1949-50 / W.E. Paulson
p1993
sVurl
p1994
V/work/28798378
p1995
sVtroveUrl
p1996
Vhttp://trove.nla.gov.au/work/28798378
p1997
sVversionCount
p1998
I2
sVholdingsCount
p1999
I0
sVrelevance
p2000
(dp2001
Vscore
p2002
V1.0
p2003
sVvalue
p2004
Vlikely to be relevant
p2005
ssVissued
p2006
V1955-2009
p2007
sVcontributor
p2008
(lp2009
VPaulson, W. E. (William E.)
p2010
asVidentifier
p2011
(lp2012
(dp2013
Vlinktype
p2014
Vfulltext
p2015
sVtype
p2016
Vurl
p2017
sVvalue
p2018
Vhttp://hdl.handle.net/2027/txa.tarb086776
p2019
sasVtype
p2020
(lp2021
VBook
p2022
aVArticle
p2023
asVid
p2024
V28798378
p2025
sa(dp2026
Vtitle
p2027
VDallisgrass
p2028
sVurl
p2029
V/work/28798510
p2030
sVtroveUrl
p2031
Vhttp://trove.nla.gov.au/work/28798510
p2032
sVversionCount
p2033
I2
sVholdingsCount
p2034
I0
sVrelevance
p2035
(dp2036
Vscore
p2037
V1.0
p2038
sVvalue
p2039
Vlikely to be relevant
p2040
ssVissued
p2041
V1956-2009
p2042
sVcontributor
p2043
(lp2044
VHolt, E. C. (Ethan C.)
p2045
asVidentifier
p2046
(lp2047
(dp2048
Vlinktype
p2049
Vfulltext
p2050
sVtype
p2051
Vurl
p2052
sVvalue
p2053
Vhttp://hdl.handle.net/2027/txa.tarb086803
p2054
sasVtype
p2055
(lp2056
VBook
p2057
aVArticle
p2058
asVid
p2059
V28798510
p2060
sa(dp2061
Vtitle
p2062
VFinancing the Production and Marketing of Texas Broilers
p2063
sVurl
p2064
V/work/28798560
p2065
sVtroveUrl
p2066
Vhttp://trove.nla.gov.au/work/28798560
p2067
sVversionCount
p2068
I2
sVholdingsCount
p2069
I0
sVrelevance
p2070
(dp2071
Vscore
p2072
V1.0
p2073
sVvalue
p2074
Vlikely to be relevant
p2075
ssVissued
p2076
V1956-2009
p2077
sVcontributor
p2078
(lp2079
VBebout, Harley
p2080
asVidentifier
p2081
(lp2082
(dp2083
Vlinktype
p2084
Vfulltext
p2085
sVtype
p2086
Vurl
p2087
sVvalue
p2088
Vhttp://hdl.handle.net/2027/txa.tarb086824
p2089
sasVtype
p2090
(lp2091
VBook
p2092
aVArticle
p2093
asVid
p2094
V28798560
p2095
sa(dp2096
Vtitle
p2097
VRice supply, demand and related government programs / John A. Kincannon
p2098
sVurl
p2099
V/work/28798562
p2100
sVtroveUrl
p2101
Vhttp://trove.nla.gov.au/work/28798562
p2102
sVversionCount
p2103
I2
sVholdingsCount
p2104
I0
sVrelevance
p2105
(dp2106
Vscore
p2107
V1.0
p2108
sVvalue
p2109
Vlikely to be relevant
p2110
ssVissued
p2111
V1957-2009
p2112
sVcontributor
p2113
(lp2114
VKincannon, John A.
p2115
asVidentifier
p2116
(lp2117
(dp2118
Vlinktype
p2119
Vfulltext
p2120
sVtype
p2121
Vurl
p2122
sVvalue
p2123
Vhttp://hdl.handle.net/2027/txa.tarb086825
p2124
sasVtype
p2125
(lp2126
VBook
p2127
aVArticle
p2128
asVid
p2129
V28798562
p2130
sa(dp2131
Vtitle
p2132
VThe feasibility of processing wool and mohair in Texas / Jack B. Taylor
p2133
sVurl
p2134
V/work/28798566
p2135
sVtroveUrl
p2136
Vhttp://trove.nla.gov.au/work/28798566
p2137
sVversionCount
p2138
I2
sVholdingsCount
p2139
I0
sVrelevance
p2140
(dp2141
Vscore
p2142
V1.0
p2143
sVvalue
p2144
Vlikely to be relevant
p2145
ssVissued
p2146
V1957-2009
p2147
sVcontributor
p2148
(lp2149
VTaylor, Jack B.
p2150
asVidentifier
p2151
(lp2152
(dp2153
Vlinktype
p2154
Vfulltext
p2155
sVtype
p2156
Vurl
p2157
sVvalue
p2158
Vhttp://hdl.handle.net/2027/txa.tarb086827
p2159
sasVtype
p2160
(lp2161
VBook
p2162
aVArticle
p2163
asVid
p2164
V28798566
p2165
sa(dp2166
Vtitle
p2167
VAttitudes of Youth toward Occupational Opportunities and Social Services in Cherokee County
p2168
sVurl
p2169
V/work/28798592
p2170
sVtroveUrl
p2171
Vhttp://trove.nla.gov.au/work/28798592
p2172
sVversionCount
p2173
I2
sVholdingsCount
p2174
I0
sVrelevance
p2175
(dp2176
Vscore
p2177
V1.0
p2178
sVvalue
p2179
Vlikely to be relevant
p2180
ssVissued
p2181
V1957-2009
p2182
sVcontributor
p2183
(lp2184
VNelson, Bardin H. (Bardin Hubert)
p2185
asVidentifier
p2186
(lp2187
(dp2188
Vlinktype
p2189
Vfulltext
p2190
sVtype
p2191
Vurl
p2192
sVvalue
p2193
Vhttp://handle.tamu.edu/1969.1/86413
p2194
sasVtype
p2195
(lp2196
VBook
p2197
aVArticle
p2198
asVid
p2199
V28798592
p2200
sa(dp2201
Vtitle
p2202
VMarketing Texas Green-wrap Tomatoes
p2203
sVurl
p2204
V/work/28798596
p2205
sVtroveUrl
p2206
Vhttp://trove.nla.gov.au/work/28798596
p2207
sVversionCount
p2208
I2
sVholdingsCount
p2209
I0
sVrelevance
p2210
(dp2211
Vscore
p2212
V1.0
p2213
sVvalue
p2214
Vlikely to be relevant
p2215
ssVissued
p2216
V1957-2009
p2217
sVcontributor
p2218
(lp2219
VSorensen, H. B.
p2220
asVidentifier
p2221
(lp2222
(dp2223
Vlinktype
p2224
Vfulltext
p2225
sVtype
p2226
Vurl
p2227
sVvalue
p2228
Vhttp://handle.tamu.edu/1969.1/86415
p2229
sasVtype
p2230
(lp2231
VBook
p2232
aVArticle
p2233
asVid
p2234
V28798596
p2235
sa(dp2236
Vtitle
p2237
VThe Farmer and His Market
p2238
sVurl
p2239
V/work/28798616
p2240
sVtroveUrl
p2241
Vhttp://trove.nla.gov.au/work/28798616
p2242
sVversionCount
p2243
I2
sVholdingsCount
p2244
I0
sVrelevance
p2245
(dp2246
Vscore
p2247
V1.0
p2248
sVvalue
p2249
Vlikely to be relevant
p2250
ssVissued
p2251
V1957-2009
p2252
sVcontributor
p2253
(lp2254
VPaulson, W. E. (William E.)
p2255
asVidentifier
p2256
(lp2257
(dp2258
Vlinktype
p2259
Vfulltext
p2260
sVtype
p2261
Vurl
p2262
sVvalue
p2263
Vhttp://hdl.handle.net/2027/txa.tarb086857
p2264
sasVtype
p2265
(lp2266
VBook
p2267
aVArticle
p2268
asVid
p2269
V28798616
p2270
sa(dp2271
Vtitle
p2272
VEconomics of milk products processing plants in Texas / Randall Stelly
p2273
sVurl
p2274
V/work/28798732
p2275
sVtroveUrl
p2276
Vhttp://trove.nla.gov.au/work/28798732
p2277
sVversionCount
p2278
I2
sVholdingsCount
p2279
I0
sVrelevance
p2280
(dp2281
Vscore
p2282
V1.0
p2283
sVvalue
p2284
Vlikely to be relevant
p2285
ssVissued
p2286
V1957-2009
p2287
sVcontributor
p2288
(lp2289
VStelly, Randall
p2290
asVidentifier
p2291
(lp2292
(dp2293
Vlinktype
p2294
Vfulltext
p2295
sVtype
p2296
Vurl
p2297
sVvalue
p2298
Vhttp://handle.tamu.edu/1969.1/86605
p2299
sasVtype
p2300
(lp2301
VBook
p2302
aVArticle
p2303
asVid
p2304
V28798732
p2305
sa(dp2306
Vtitle
p2307
VChemical, cultural and mechanical control of the pink bollworm / Perry L. Adkisson, L.H. Wilkes and S.P. Johnson
p2308
sVurl
p2309
V/work/28798782
p2310
sVtroveUrl
p2311
Vhttp://trove.nla.gov.au/work/28798782
p2312
sVversionCount
p2313
I2
sVholdingsCount
p2314
I0
sVrelevance
p2315
(dp2316
Vscore
p2317
V1.0
p2318
sVvalue
p2319
Vlikely to be relevant
p2320
ssVissued
p2321
V1958-2009
p2322
sVcontributor
p2323
(lp2324
VAdkisson, Perry L.
p2325
aV Wilkes, L. H.
p2326
aV Johnson, S. P.
p2327
asVidentifier
p2328
(lp2329
(dp2330
Vlinktype
p2331
Vfulltext
p2332
sVtype
p2333
Vurl
p2334
sVvalue
p2335
Vhttp://hdl.handle.net/2027/txa.tarb086963
p2336
sasVtype
p2337
(lp2338
VBook
p2339
aVArticle
p2340
asVid
p2341
V28798782
p2342
sa(dp2343
Vtitle
p2344
VConsumer attitudes and handling practices of retailers for lamb, mutton and goat / Randall Stelly
p2345
sVurl
p2346
V/work/28798908
p2347
sVtroveUrl
p2348
Vhttp://trove.nla.gov.au/work/28798908
p2349
sVversionCount
p2350
I2
sVholdingsCount
p2351
I0
sVrelevance
p2352
(dp2353
Vscore
p2354
V1.0
p2355
sVvalue
p2356
Vlikely to be relevant
p2357
ssVissued
p2358
V1959-2009
p2359
sVcontributor
p2360
(lp2361
VStelly, Randall
p2362
asVidentifier
p2363
(lp2364
(dp2365
Vlinktype
p2366
Vfulltext
p2367
sVtype
p2368
Vurl
p2369
sVvalue
p2370
Vhttp://handle.tamu.edu/1969.1/86610
p2371
sasVtype
p2372
(lp2373
VBook
p2374
aVArticle
p2375
asVid
p2376
V28798908
p2377
sa(dp2378
Vtitle
p2379
VSocial security and the Texas farmer / R.L. Skrabanek and Louis J. Ducoff
p2380
sVurl
p2381
V/work/28798956
p2382
sVtroveUrl
p2383
Vhttp://trove.nla.gov.au/work/28798956
p2384
sVversionCount
p2385
I2
sVholdingsCount
p2386
I0
sVrelevance
p2387
(dp2388
Vscore
p2389
V1.0
p2390
sVvalue
p2391
Vlikely to be relevant
p2392
ssVissued
p2393
V1959-2009
p2394
sVcontributor
p2395
(lp2396
VSkrabanek, R. L
p2397
asVidentifier
p2398
(lp2399
(dp2400
Vlinktype
p2401
Vfulltext
p2402
sVtype
p2403
Vurl
p2404
sVvalue
p2405
Vhttp://hdl.handle.net/2027/txa.tarb087004
p2406
sasVtype
p2407
(lp2408
VBook
p2409
aVArticle
p2410
asVid
p2411
V28798956
p2412
sa(dp2413
Vtitle
p2414
VChanges in Milk Production and Marketing in Texas
p2415
sVurl
p2416
V/work/28798960
p2417
sVtroveUrl
p2418
Vhttp://trove.nla.gov.au/work/28798960
p2419
sVversionCount
p2420
I2
sVholdingsCount
p2421
I0
sVrelevance
p2422
(dp2423
Vscore
p2424
V1.0
p2425
sVvalue
p2426
Vlikely to be relevant
p2427
ssVissued
p2428
V1959-2009
p2429
sVcontributor
p2430
(lp2431
VStelly, Randall
p2432
aV McKinney, Kenneth
p2433
asVidentifier
p2434
(lp2435
(dp2436
Vlinktype
p2437
Vfulltext
p2438
sVtype
p2439
Vurl
p2440
sVvalue
p2441
Vhttp://hdl.handle.net/2027/txa.tarb087006
p2442
sasVtype
p2443
(lp2444
VBook
p2445
aVArticle
p2446
asVid
p2447
V28798960
p2448
sa(dp2449
Vtitle
p2450
VIncomes of rural families in northeast Texas / John H. Southern and W.E. Hendrix
p2451
sVurl
p2452
V/work/28799012
p2453
sVtroveUrl
p2454
Vhttp://trove.nla.gov.au/work/28799012
p2455
sVversionCount
p2456
I2
sVholdingsCount
p2457
I0
sVrelevance
p2458
(dp2459
Vscore
p2460
V1.0
p2461
sVvalue
p2462
Vlikely to be relevant
p2463
ssVissued
p2464
V1959-2009
p2465
sVcontributor
p2466
(lp2467
VSouthern, John H.
p2468
aV Hendrix, W. E.
p2469
asVidentifier
p2470
(lp2471
(dp2472
Vlinktype
p2473
Vfulltext
p2474
sVtype
p2475
Vurl
p2476
sVvalue
p2477
Vhttp://handle.tamu.edu/1969.1/86625
p2478
sasVtype
p2479
(lp2480
VBook
p2481
aVArticle
p2482
asVid
p2483
V28799012
p2484
sa(dp2485
Vtitle
p2486
VSmall grains for forage / Ethan C. Holt
p2487
sVurl
p2488
V/work/28799018
p2489
sVtroveUrl
p2490
Vhttp://trove.nla.gov.au/work/28799018
p2491
sVversionCount
p2492
I2
sVholdingsCount
p2493
I0
sVrelevance
p2494
(dp2495
Vscore
p2496
V1.0
p2497
sVvalue
p2498
Vlikely to be relevant
p2499
ssVissued
p2500
V1959-2009
p2501
sVcontributor
p2502
(lp2503
VHolt, E. C. (Ethan C.)
p2504
asVidentifier
p2505
(lp2506
(dp2507
Vlinktype
p2508
Vfulltext
p2509
sVtype
p2510
Vurl
p2511
sVvalue
p2512
Vhttp://handle.tamu.edu/1969.1/86629
p2513
sasVtype
p2514
(lp2515
VBook
p2516
aVArticle
p2517
asVid
p2518
V28799018
p2519
sa(dp2520
Vtitle
p2521
VEconomics of Mechanical Cotton Stripping on Blackland Farms
p2522
sVurl
p2523
V/work/28802462
p2524
sVtroveUrl
p2525
Vhttp://trove.nla.gov.au/work/28802462
p2526
sVversionCount
p2527
I2
sVholdingsCount
p2528
I0
sVrelevance
p2529
(dp2530
Vscore
p2531
V1.0
p2532
sVvalue
p2533
Vlikely to be relevant
p2534
ssVissued
p2535
V1960-2009
p2536
sVcontributor
p2537
(lp2538
VRogers, Ralph H
p2539
asVidentifier
p2540
(lp2541
(dp2542
Vlinktype
p2543
Vfulltext
p2544
sVtype
p2545
Vurl
p2546
sVvalue
p2547
Vhttp://hdl.handle.net/2027/txa.tarb088262
p2548
sasVtype
p2549
(lp2550
VBook
p2551
aVArticle
p2552
asVid
p2553
V28802462
p2554
sa(dp2555
Vtitle
p2556
VAttitudes of youth toward occupational opportunities and social services in a six-county area of the blacklands / Bardin H. Nelson
p2557
sVurl
p2558
V/work/28802474
p2559
sVtroveUrl
p2560
Vhttp://trove.nla.gov.au/work/28802474
p2561
sVversionCount
p2562
I2
sVholdingsCount
p2563
I0
sVrelevance
p2564
(dp2565
Vscore
p2566
V1.0
p2567
sVvalue
p2568
Vlikely to be relevant
p2569
ssVissued
p2570
V1960-2009
p2571
sVcontributor
p2572
(lp2573
VNelson, Bardin H. (Bardin Hubert)
p2574
asVidentifier
p2575
(lp2576
(dp2577
Vlinktype
p2578
Vfulltext
p2579
sVtype
p2580
Vurl
p2581
sVvalue
p2582
Vhttp://hdl.handle.net/2027/txa.tarb088266
p2583
sasVtype
p2584
(lp2585
VBook
p2586
aVArticle
p2587
asVid
p2588
V28802474
p2589
sa(dp2590
Vtitle
p2591
VConsumer and Retail Market Test of Prepackaged Deboned Frozen Beef
p2592
sVurl
p2593
V/work/28802496
p2594
sVtroveUrl
p2595
Vhttp://trove.nla.gov.au/work/28802496
p2596
sVversionCount
p2597
I2
sVholdingsCount
p2598
I0
sVrelevance
p2599
(dp2600
Vscore
p2601
V1.0
p2602
sVvalue
p2603
Vlikely to be relevant
p2604
ssVissued
p2605
V1960-2009
p2606
sVcontributor
p2607
(lp2608
VBranson, Robert E
p2609
asVidentifier
p2610
(lp2611
(dp2612
Vlinktype
p2613
Vfulltext
p2614
sVtype
p2615
Vurl
p2616
sVvalue
p2617
Vhttp://hdl.handle.net/2027/txa.tarb088271
p2618
sasVtype
p2619
(lp2620
VBook
p2621
aVArticle
p2622
asVid
p2623
V28802496
p2624
sa(dp2625
Vtitle
p2626
VMarketing milk under federal orders in Texas / Randall Stelly
p2627
sVurl
p2628
V/work/28802498
p2629
sVtroveUrl
p2630
Vhttp://trove.nla.gov.au/work/28802498
p2631
sVversionCount
p2632
I2
sVholdingsCount
p2633
I0
sVrelevance
p2634
(dp2635
Vscore
p2636
V1.0
p2637
sVvalue
p2638
Vlikely to be relevant
p2639
ssVissued
p2640
V1960-2009
p2641
sVcontributor
p2642
(lp2643
VStelly, Randall
p2644
asVidentifier
p2645
(lp2646
(dp2647
Vlinktype
p2648
Vfulltext
p2649
sVtype
p2650
Vurl
p2651
sVvalue
p2652
Vhttp://handle.tamu.edu/1969.1/87880
p2653
sasVtype
p2654
(lp2655
VBook
p2656
aVArticle
p2657
asVid
p2658
V28802498
p2659
sa(dp2660
Vtitle
p2661
VIndentation and Recovery Tests of Common Resilient Floor Coverings
p2662
sVurl
p2663
V/work/28802502
p2664
sVtroveUrl
p2665
Vhttp://trove.nla.gov.au/work/28802502
p2666
sVversionCount
p2667
I2
sVholdingsCount
p2668
I0
sVrelevance
p2669
(dp2670
Vscore
p2671
V1.0
p2672
sVvalue
p2673
Vlikely to be relevant
p2674
ssVissued
p2675
V1960-2009
p2676
sVcontributor
p2677
(lp2678
VStewart, B. R.
p2679
aV Kunze, O. R.
p2680
aV Hobgood, Price
p2681
asVidentifier
p2682
(lp2683
(dp2684
Vlinktype
p2685
Vfulltext
p2686
sVtype
p2687
Vurl
p2688
sVvalue
p2689
Vhttp://handle.tamu.edu/1969.1/87882
p2690
sasVtype
p2691
(lp2692
VBook
p2693
aVArticle
p2694
asVid
p2695
V28802502
p2696
sa(dp2697
Vtitle
p2698
VWool Marketing Problems in Texas
p2699
sVurl
p2700
V/work/28802524
p2701
sVtroveUrl
p2702
Vhttp://trove.nla.gov.au/work/28802524
p2703
sVversionCount
p2704
I2
sVholdingsCount
p2705
I0
sVrelevance
p2706
(dp2707
Vscore
p2708
V1.0
p2709
sVvalue
p2710
Vlikely to be relevant
p2711
ssVissued
p2712
V1961-2009
p2713
sVcontributor
p2714
(lp2715
VMcNeely, John G.
p2716
aV Davis, Stanley P.
p2717
aV Drake, Phyllis
p2718
aV Holland, Robert L.
p2719
asVidentifier
p2720
(lp2721
(dp2722
Vlinktype
p2723
Vfulltext
p2724
sVtype
p2725
Vurl
p2726
sVvalue
p2727
Vhttp://hdl.handle.net/2027/txa.tarb088286
p2728
sasVtype
p2729
(lp2730
VBook
p2731
aVArticle
p2732
asVid
p2733
V28802524
p2734
sa(dp2735
Vtitle
p2736
VPlanning for profitable dairying / A.C. Magee ... [et al.]
p2737
sVurl
p2738
V/work/28802528
p2739
sVtroveUrl
p2740
Vhttp://trove.nla.gov.au/work/28802528
p2741
sVversionCount
p2742
I2
sVholdingsCount
p2743
I0
sVrelevance
p2744
(dp2745
Vscore
p2746
V1.0
p2747
sVvalue
p2748
Vlikely to be relevant
p2749
ssVissued
p2750
V1961-2009
p2751
sVcontributor
p2752
(lp2753
VMagee, A. C.
p2754
aV Stone, B. H.
p2755
aV Leighton, R. E.
p2756
aV Carpenter, S. E.
p2757
asVidentifier
p2758
(lp2759
(dp2760
Vlinktype
p2761
Vfulltext
p2762
sVtype
p2763
Vurl
p2764
sVvalue
p2765
Vhttp://hdl.handle.net/2027/txa.tarb088288
p2766
sasVtype
p2767
(lp2768
VBook
p2769
aVArticle
p2770
asVid
p2771
V28802528
p2772
sa(dp2773
Vtitle
p2774
VAn Analysis of Full-Time Commercial Farms in Northeast Texas
p2775
sVurl
p2776
V/work/28802604
p2777
sVtroveUrl
p2778
Vhttp://trove.nla.gov.au/work/28802604
p2779
sVversionCount
p2780
I2
sVholdingsCount
p2781
I0
sVrelevance
p2782
(dp2783
Vscore
p2784
V1.0
p2785
sVvalue
p2786
Vlikely to be relevant
p2787
ssVissued
p2788
V1962-2009
p2789
sVcontributor
p2790
(lp2791
VEdmondson, Vance W.
p2792
asVidentifier
p2793
(lp2794
(dp2795
Vlinktype
p2796
Vfulltext
p2797
sVtype
p2798
Vurl
p2799
sVvalue
p2800
Vhttp://hdl.handle.net/2027/txa.tarb088302
p2801
sasVtype
p2802
(lp2803
VBook
p2804
aVArticle
p2805
asVid
p2806
V28802604
p2807
sa(dp2808
Vtitle
p2809
VElsie Dinsmore / Martha Finley ; with a preface for the Garland edition by Barbara Parry
p2810
sVurl
p2811
V/work/3557729
p2812
sVtroveUrl
p2813
Vhttp://trove.nla.gov.au/work/3557729
p2814
sVversionCount
p2815
I16
sVholdingsCount
p2816
I10
sVrelevance
p2817
(dp2818
Vscore
p2819
V1.0
p2820
sVvalue
p2821
Vlikely to be relevant
p2822
ssVissued
p2823
V1867-2009
p2824
sVcontributor
p2825
(lp2826
VFinley, Martha, 1828-1909
p2827
asVidentifier
p2828
(lp2829
(dp2830
Vlinktype
p2831
Vfulltext
p2832
sVtype
p2833
Vurl
p2834
sVvalue
p2835
Vhttp://hdl.handle.net/2027/njp.32101063690703
p2836
sasVtype
p2837
(lp2838
VBook
p2839
aVBook/Illustrated
p2840
asVid
p2841
V3557729
p2842
sa(dp2843
Vtitle
p2844
VThe green fairy book / edited by Andrew Lang ; with numerous illustrations by H.J. Ford
p2845
sVurl
p2846
V/work/518857
p2847
sVtroveUrl
p2848
Vhttp://trove.nla.gov.au/work/518857
p2849
sVversionCount
p2850
I15
sVholdingsCount
p2851
I16
sVrelevance
p2852
(dp2853
Vscore
p2854
V1.0
p2855
sVvalue
p2856
Vlikely to be relevant
p2857
ssVissued
p2858
V1892-2009
p2859
sVcontributor
p2860
(lp2861
VLang, Andrew, 1844-1912
p2862
asVidentifier
p2863
(lp2864
(dp2865
Vlinktype
p2866
Vrestricted
p2867
sVtype
p2868
Vurl
p2869
sVvalue
p2870
Vhttp://hdl.handle.net/2027/nyp.33433086945676
p2871
sasVtype
p2872
(lp2873
VBook
p2874
aVBook/Illustrated
p2875
asVid
p2876
V518857
p2877
sa(dp2878
Vtitle
p2879
VLarge suburban and bush Tasmanian Blue Gums (Eucalyptus globulus) and Black Gums (Eucalyptus ovata) in Mount Nelson, Tasmania, as foraging resources for the endangered Swift Parrot (Lathanzus discolor)
p2880
sVurl
p2881
V/work/188835182
p2882
sVtroveUrl
p2883
Vhttp://trove.nla.gov.au/work/188835182
p2884
sVversionCount
p2885
I1
sVholdingsCount
p2886
I1
sVrelevance
p2887
(dp2888
Vscore
p2889
V1.0
p2890
sVvalue
p2891
Vlikely to be relevant
p2892
ssVissued
p2893
I2009
sVcontributor
p2894
(lp2895
VPiech, M
p2896
asVidentifier
p2897
(lp2898
(dp2899
Vlinktype
p2900
Vfulltext
p2901
sVtype
p2902
Vurl
p2903
sVvalue
p2904
Vhttp://eprints.utas.edu.au/16383/
p2905
sasVtype
p2906
(lp2907
VThesis
p2908
asVid
p2909
V188835182
p2910
sa(dp2911
Vtitle
p2912
VThe Penguin dictionary of jokes, wisecracks, quips and quotes / compiled by Fred Metcalf
p2913
sVurl
p2914
V/work/10682060
p2915
sVtroveUrl
p2916
Vhttp://trove.nla.gov.au/work/10682060
p2917
sVversionCount
p2918
I5
sVholdingsCount
p2919
I43
sVrelevance
p2920
(dp2921
Vscore
p2922
V1.0
p2923
sVvalue
p2924
Vlikely to be relevant
p2925
ssVissued
p2926
V1993-2009
p2927
sVcontributor
p2928
(lp2929
VMetcalf, Fred
p2930
asVidentifier
p2931
(lp2932
(dp2933
Vlinktype
p2934
Vfulltext
p2935
sVtype
p2936
Vurl
p2937
sVlinktext
p2938
VDirect link to full text: http://openlibrary.org/details/penguindictionar00metc
p2939
sVvalue
p2940
Vhttp://openlibrary.org/books/OL557780M
p2941
sasVtype
p2942
(lp2943
VBook
p2944
asVid
p2945
V10682060
p2946
sa(dp2947
Vtitle
p2948
VTechnology : a world history / Daniel R. Headrick
p2949
sVurl
p2950
V/work/25341365
p2951
sVtroveUrl
p2952
Vhttp://trove.nla.gov.au/work/25341365
p2953
sVversionCount
p2954
I3
sVholdingsCount
p2955
I13
sVrelevance
p2956
(dp2957
Vscore
p2958
V1.0
p2959
sVvalue
p2960
Vlikely to be relevant
p2961
ssVissued
p2962
I2009
sVcontributor
p2963
(lp2964
VHeadrick, Daniel R
p2965
asVidentifier
p2966
(lp2967
(dp2968
Vlinktype
p2969
Vrestricted
p2970
sVtype
p2971
Vurl
p2972
sVlinktext
p2973
VBibliographic record display
p2974
sVvalue
p2975
Vhttp://www.netLibrary.com/urlapi.asp?action=summary&v=1&bookid=269649
p2976
sasVtype
p2977
(lp2978
VBook
p2979
aVBook/Illustrated
p2980
asVid
p2981
V25341365
p2982
sa(dp2983
Vtitle
p2984
ViWork '09 : portable genius / by Guy Hart-Davis
p2985
sVurl
p2986
V/work/28351206
p2987
sVtroveUrl
p2988
Vhttp://trove.nla.gov.au/work/28351206
p2989
sVversionCount
p2990
I2
sVholdingsCount
p2991
I9
sVrelevance
p2992
(dp2993
Vscore
p2994
V1.0
p2995
sVvalue
p2996
Vlikely to be relevant
p2997
ssVissued
p2998
I2009
sVcontributor
p2999
(lp3000
VHart-Davis, Guy
p3001
asVidentifier
p3002
(lp3003
(dp3004
Vlinktype
p3005
Vunknown
p3006
sVtype
p3007
Vurl
p3008
sVlinktext
p3009
VEBL - Onsite@slq + offsite access for e-services members and Queensland public library (QPL) account holders
p3010
sVvalue
p3011
Vhttp://www.SLQ.eblib.com.au/patron/FullRecord.aspx?p=448895
p3012
sasVtype
p3013
(lp3014
VBook
p3015
aVBook/Illustrated
p3016
asVid
p3017
V28351206
p3018
sa(dp3019
Vtitle
p3020
VBuilding web sites all-in-one for dummies / by Doug Sahlin, Claudia Snell
p3021
sVurl
p3022
V/work/35411832
p3023
sVtroveUrl
p3024
Vhttp://trove.nla.gov.au/work/35411832
p3025
sVversionCount
p3026
I3
sVholdingsCount
p3027
I17
sVrelevance
p3028
(dp3029
Vscore
p3030
V1.0
p3031
sVvalue
p3032
Vlikely to be relevant
p3033
ssVissued
p3034
I2009
sVcontributor
p3035
(lp3036
VSahlin, Doug
p3037
asVidentifier
p3038
(lp3039
(dp3040
Vlinktype
p3041
Vrestricted
p3042
sVtype
p3043
Vurl
p3044
sVlinktext
p3045
VView online via eBook Academic Subscription Collection - Worldwide [ANU staff and students only]
p3046
sVvalue
p3047
Vhttps://anulib.anu.edu.au/tools/generic_revproxy.html?url=http://search.ebscohost.com/login.aspx?direct=true&scope=site&db=nlebk&db=nlabk&AN=266216
p3048
sasVtype
p3049
(lp3050
VBook
p3051
aVBook/Illustrated
p3052
asVid
p3053
V35411832
p3054
sa(dp3055
Vtitle
p3056
VYellow / J. Jean Robertson
p3057
sVurl
p3058
V/work/33520051
p3059
sVtroveUrl
p3060
Vhttp://trove.nla.gov.au/work/33520051
p3061
sVversionCount
p3062
I3
sVholdingsCount
p3063
I14
sVrelevance
p3064
(dp3065
Vscore
p3066
V1.0
p3067
sVvalue
p3068
Vlikely to be relevant
p3069
ssVissued
p3070
I2009
sVcontributor
p3071
(lp3072
VRobertson, J. Jean
p3073
asVidentifier
p3074
(lp3075
(dp3076
Vlinktype
p3077
Vfulltext
p3078
sVtype
p3079
Vurl
p3080
sVlinktext
p3081
VDirect link to full text: http://openlibrary.org/details/yellow00robe
p3082
sVvalue
p3083
Vhttp://openlibrary.org/books/OL16657959M
p3084
sasVtype
p3085
(lp3086
VBook
p3087
aVBook/Illustrated
p3088
asVid
p3089
V33520051
p3090
sa(dp3091
Vtitle
p3092
VShades of twilight / Linda Howard
p3093
sVurl
p3094
V/work/24426909
p3095
sVtroveUrl
p3096
Vhttp://trove.nla.gov.au/work/24426909
p3097
sVversionCount
p3098
I6
sVholdingsCount
p3099
I7
sVrelevance
p3100
(dp3101
Vscore
p3102
V1.0
p3103
sVvalue
p3104
Vlikely to be relevant
p3105
ssVissued
p3106
V1996-2009
p3107
sVcontributor
p3108
(lp3109
VHoward, Linda, 1950-
p3110
asVidentifier
p3111
(lp3112
(dp3113
Vlinktype
p3114
Vfulltext
p3115
sVtype
p3116
Vurl
p3117
sVlinktext
p3118
VDirect link to full text: http://openlibrary.org/details/shadesoftwilight00howa
p3119
sVvalue
p3120
Vhttp://openlibrary.org/books/OL24955719M
p3121
sasVtype
p3122
(lp3123
VBook
p3124
aVAudio book
p3125
asVid
p3126
V24426909
p3127
sa(dp3128
Vtitle
p3129
VWyoming brides / Debbie Macomber
p3130
sVurl
p3131
V/work/28356808
p3132
sVtroveUrl
p3133
Vhttp://trove.nla.gov.au/work/28356808
p3134
sVversionCount
p3135
I4
sVholdingsCount
p3136
I7
sVrelevance
p3137
(dp3138
Vscore
p3139
V1.0
p3140
sVvalue
p3141
Vlikely to be relevant
p3142
ssVissued
p3143
V1900-2009
p3144
sVcontributor
p3145
(lp3146
VMacomber, Debbie
p3147
asVidentifier
p3148
(lp3149
(dp3150
Vlinktype
p3151
Vfulltext
p3152
sVtype
p3153
Vurl
p3154
sVlinktext
p3155
VDirect link to full text: http://openlibrary.org/details/wyomingbrides00maco
p3156
sVvalue
p3157
Vhttp://openlibrary.org/books/OL24238062M
p3158
sasVtype
p3159
(lp3160
VBook
p3161
aVAudio book
p3162
asVid
p3163
V28356808
p3164
sa(dp3165
Vtitle
p3166
VDeath in paradise / Robert B. Parker
p3167
sVurl
p3168
V/work/28374548
p3169
sVtroveUrl
p3170
Vhttp://trove.nla.gov.au/work/28374548
p3171
sVversionCount
p3172
I6
sVholdingsCount
p3173
I28
sVrelevance
p3174
(dp3175
Vscore
p3176
V1.0
p3177
sVvalue
p3178
Vlikely to be relevant
p3179
ssVissued
p3180
V1900-2009
p3181
sVcontributor
p3182
(lp3183
VParker, Robert B., 1932-
p3184
asVidentifier
p3185
(lp3186
(dp3187
Vlinktype
p3188
Vfulltext
p3189
sVtype
p3190
Vurl
p3191
sVlinktext
p3192
VDirect link to full text: http://openlibrary.org/details/deathinparadise00park
p3193
sVvalue
p3194
Vhttp://openlibrary.org/books/OL3946293M
p3195
sasVtype
p3196
(lp3197
VBook
p3198
aVAudio book
p3199
aVBook/Large print
p3200
asVid
p3201
V28374548
p3202
sa(dp3203
Vtitle
p3204
VMurderers in mausoleums : riding the back roads of empire between Moscow and Beijing / Jeffrey Tayler
p3205
sVurl
p3206
V/work/33644122
p3207
sVtroveUrl
p3208
Vhttp://trove.nla.gov.au/work/33644122
p3209
sVversionCount
p3210
I2
sVholdingsCount
p3211
I5
sVrelevance
p3212
(dp3213
Vscore
p3214
V1.0
p3215
sVvalue
p3216
Vlikely to be relevant
p3217
ssVissued
p3218
I2009
sVcontributor
p3219
(lp3220
VTayler, Jeffrey
p3221
asVidentifier
p3222
(lp3223
(dp3224
Vlinktype
p3225
Vfulltext
p3226
sVtype
p3227
Vurl
p3228
sVlinktext
p3229
VDirect link to full text: http://openlibrary.org/details/murderersinmauso00tayl
p3230
sVvalue
p3231
Vhttp://openlibrary.org/books/OL18895883M
p3232
sasVtype
p3233
(lp3234
VBook
p3235
aVBook/Illustrated
p3236
asVid
p3237
V33644122
p3238
sa(dp3239
Vtitle
p3240
VGrave mistake / Ngaio Marsh
p3241
sVurl
p3242
V/work/8618698
p3243
sVtroveUrl
p3244
Vhttp://trove.nla.gov.au/work/8618698
p3245
sVversionCount
p3246
I22
sVholdingsCount
p3247
I23
sVrelevance
p3248
(dp3249
Vscore
p3250
V1.0
p3251
sVvalue
p3252
Vlikely to be relevant
p3253
ssVissued
p3254
V1978-2009
p3255
sVcontributor
p3256
(lp3257
VMarsh, Ngaio, 1895-1982
p3258
asVidentifier
p3259
(lp3260
(dp3261
Vlinktype
p3262
Vfulltext
p3263
sVtype
p3264
Vurl
p3265
sVlinktext
p3266
VDirect link to full text: http://openlibrary.org/details/gravemistake00mars
p3267
sVvalue
p3268
Vhttp://openlibrary.org/books/OL4728916M
p3269
sasVtype
p3270
(lp3271
VBook
p3272
aVAudio book
p3273
aVBook/Large print
p3274
asVid
p3275
V8618698
p3276
sa(dp3277
Vtitle
p3278
VThe light of western stars / Zane Grey
p3279
sVurl
p3280
V/work/17124105
p3281
sVtroveUrl
p3282
Vhttp://trove.nla.gov.au/work/17124105
p3283
sVversionCount
p3284
I8
sVholdingsCount
p3285
I20
sVrelevance
p3286
(dp3287
Vscore
p3288
V1.0
p3289
sVvalue
p3290
Vlikely to be relevant
p3291
ssVissued
p3292
V1942-2009
p3293
sVcontributor
p3294
(lp3295
VGrey, Zane, 1872-1939
p3296
asVidentifier
p3297
(lp3298
(dp3299
Vlinktype
p3300
Vrestricted
p3301
sVtype
p3302
Vurl
p3303
sVlinktext
p3304
VBibliographic record display
p3305
sVvalue
p3306
Vhttp://www.netLibrary.com/urlapi.asp?action=summary&v=1&bookid=1004800
p3307
sasVtype
p3308
(lp3309
VBook
p3310
aVBook/Large print
p3311
asVid
p3312
V17124105
p3313
sa(dp3314
Vtitle
p3315
VThe five red herrings / Dorothy L. Sayers
p3316
sVurl
p3317
V/work/6971535
p3318
sVtroveUrl
p3319
Vhttp://trove.nla.gov.au/work/6971535
p3320
sVversionCount
p3321
I30
sVholdingsCount
p3322
I48
sVrelevance
p3323
(dp3324
Vscore
p3325
V1.0
p3326
sVvalue
p3327
Vlikely to be relevant
p3328
ssVissued
p3329
V1931-2009
p3330
sVcontributor
p3331
(lp3332
VSayers, Dorothy L. (Dorothy Leigh), 1893-1957
p3333
asVidentifier
p3334
(lp3335
(dp3336
Vlinktype
p3337
Vfulltext
p3338
sVtype
p3339
Vurl
p3340
sVlinktext
p3341
VDirect link to full text: http://openlibrary.org/details/fiveredherrings00saye
p3342
sVvalue
p3343
Vhttp://openlibrary.org/books/OL2740354M
p3344
sasVtype
p3345
(lp3346
VBook
p3347
aVAudio book
p3348
aVBook/Illustrated
p3349
aVBook/Large print
p3350
aVBook/Braille
p3351
asVid
p3352
V6971535
p3353
sa(dp3354
Vtitle
p3355
VQualitative research in applied linguistics : a practical introduction / edited by Juanita Heigham and Robert A. Croker
p3356
sVurl
p3357
V/work/163569721
p3358
sVtroveUrl
p3359
Vhttp://trove.nla.gov.au/work/163569721
p3360
sVversionCount
p3361
I1
sVholdingsCount
p3362
I2
sVrelevance
p3363
(dp3364
Vscore
p3365
V1.0
p3366
sVvalue
p3367
Vlikely to be relevant
p3368
ssVissued
p3369
I2009
sVcontributor
p3370
(lp3371
VHeigham, J
p3372
asVidentifier
p3373
(lp3374
(dp3375
Vlinktype
p3376
Vunknown
p3377
sVtype
p3378
Vurl
p3379
sVlinktext
p3380
VEBL - Onsite@slq + offsite access for e-services members and Queensland public library (QPL) account holders
p3381
sVvalue
p3382
Vhttp://www.SLQ.eblib.com.au/patron/FullRecord.aspx?p=514954
p3383
sasVtype
p3384
(lp3385
VBook
p3386
aVBook/Illustrated
p3387
asVid
p3388
V163569721
p3389
sa(dp3390
Vtitle
p3391
VEssentials of evidence-based academic interventions / by Barbara J. Wendling, Nancy Mather
p3392
sVurl
p3393
V/work/33925288
p3394
sVtroveUrl
p3395
Vhttp://trove.nla.gov.au/work/33925288
p3396
sVversionCount
p3397
I3
sVholdingsCount
p3398
I8
sVrelevance
p3399
(dp3400
Vscore
p3401
V1.0
p3402
sVvalue
p3403
Vlikely to be relevant
p3404
ssVissued
p3405
V2008-2009
p3406
sVcontributor
p3407
(lp3408
VWendling, Barbara J
p3409
asVidentifier
p3410
(lp3411
(dp3412
Vlinktype
p3413
Vunknown
p3414
sVtype
p3415
Vurl
p3416
sVlinktext
p3417
VElectronic version available via EBL
p3418
sVvalue
p3419
Vhttp://simsrad.net.ocs.mq.edu.au/login?url=http://www.MQU.eblib.com.AU/EBLWeb/patron/?target=patron&extendedid=P_380529_0
p3420
sasVtype
p3421
(lp3422
VBook
p3423
asVid
p3424
V33925288
p3425
sa(dp3426
Vtitle
p3427
VMarket risk analysis / Carol Alexander
p3428
sVurl
p3429
V/work/25401409
p3430
sVtroveUrl
p3431
Vhttp://trove.nla.gov.au/work/25401409
p3432
sVversionCount
p3433
I14
sVholdingsCount
p3434
I22
sVrelevance
p3435
(dp3436
Vscore
p3437
V1.0
p3438
sVvalue
p3439
Vlikely to be relevant
p3440
ssVissued
p3441
V2008-2009
p3442
sVcontributor
p3443
(lp3444
VAlexander, Carol
p3445
asVidentifier
p3446
(lp3447
(dp3448
Vlinktype
p3449
Vrestricted
p3450
sVtype
p3451
Vurl
p3452
sVlinktext
p3453
VMyiLibrary
p3454
sVvalue
p3455
Vhttp://ezproxy.uws.edu.au/login?url=http://www.myilibrary.com/Browse/open.asp?ID=234948
p3456
sasVtype
p3457
(lp3458
VBook
p3459
aVBook/Illustrated
p3460
asVid
p3461
V25401409
p3462
sa(dp3463
Vtitle
p3464
VEarly childhood education : society and culture / edited by Angela Anning, Joy Cullen, and Marilyn Fleer
p3465
sVurl
p3466
V/work/33558157
p3467
sVtroveUrl
p3468
Vhttp://trove.nla.gov.au/work/33558157
p3469
sVversionCount
p3470
I6
sVholdingsCount
p3471
I62
sVrelevance
p3472
(dp3473
Vscore
p3474
V1.0
p3475
sVvalue
p3476
Vlikely to be relevant
p3477
ssVissued
p3478
V2004-2009
p3479
sVcontributor
p3480
(lp3481
VAnning, Angela, 1944-
p3482
asVidentifier
p3483
(lp3484
(dp3485
Vlinktype
p3486
Vrestricted
p3487
sVtype
p3488
Vurl
p3489
sVlinktext
p3490
VView online via eBooks on EBSCOhost [ANU staff and students only]
p3491
sVvalue
p3492
Vhttps://anulib.anu.edu.au/tools/generic_revproxy.html?url=http://search.ebscohost.com/login.aspx?direct=true&scope=site&db=nlebk&db=nlabk&AN=251143
p3493
sasVtype
p3494
(lp3495
VBook
p3496
aVBook/Illustrated
p3497
asVid
p3498
V33558157
p3499
sa(dp3500
Vtitle
p3501
VTerroir rising? varietal and quality distinctiveness of Australia?s wine regions / Kym Anderson
p3502
sVurl
p3503
V/work/37701179
p3504
sVtroveUrl
p3505
Vhttp://trove.nla.gov.au/work/37701179
p3506
sVversionCount
p3507
I2
sVholdingsCount
p3508
I4
sVrelevance
p3509
(dp3510
Vscore
p3511
V1.0
p3512
sVvalue
p3513
Vlikely to be relevant
p3514
ssVissued
p3515
I2009
sVcontributor
p3516
(lp3517
VAnderson, Kym
p3518
asVidentifier
p3519
(lp3520
(dp3521
Vlinktype
p3522
Vunknown
p3523
sVtype
p3524
Vurl
p3525
sVlinktext
p3526
VPublisher site
p3527
sVvalue
p3528
Vhttp://www.economics.adelaide.edu.au/research/papers
p3529
sasVtype
p3530
(lp3531
VArticle/Conference paper
p3532
aVArticle
p3533
aVArchived website
p3534
asVid
p3535
V37701179
p3536
sasVnext
p3537
V/result?q=+&sortby=datedesc&encoding=json&l-availability=y&reclevel=brief&n=100&zone=book&s=336084
p3538
sVs
p3539
V335984
p3540
sVtotal
p3541
V5330020
p3542
sVn
p3543
V100
p3544
ssVname
p3545
Vbook
p3546
sass.