(dp0
Vresponse
p1
(dp2
Vquery
p3
V
p4
sVzone
p5
(lp6
(dp7
Vrecords
p8
(dp9
Vwork
p10
(lp11
(dp12
Vtitle
p13
VTelephone Directory, January 1937;  Page 18 Oswald-Pring
p14
sVurl
p15
V/work/16241090
p16
sVtroveUrl
p17
Vhttp://trove.nla.gov.au/work/16241090
p18
sVversionCount
p19
I1
sVholdingsCount
p20
I0
sVrelevance
p21
(dp22
Vscore
p23
V1.0
p24
sVvalue
p25
Vlikely to be relevant
p26
ssVissued
p27
V1937-2008
p28
sVcontributor
p29
(lp30
VIllinois Bell Telephone Company
p31
asVidentifier
p32
(lp33
(dp34
Vlinktype
p35
Vfulltext
p36
sVtype
p37
Vurl
p38
sVvalue
p39
Vhttp://www.digitalpast.org/u?/mountpro001,767
p40
sa(dp41
Vlinktype
p42
Vthumbnail
p43
sVtype
p44
Vurl
p45
sVvalue
p46
Vhttp://www.digitalpast.org/cgi-bin/thumbnail.exe?CISOROOT=/mountpro001&CISOPTR=767
p47
sasVtype
p48
(lp49
VUnpublished
p50
asVid
p51
V16241090
p52
sa(dp53
Vtitle
p54
VTelephone Directory, January 1937;  Page 22 Thompson-Wenzlaff
p55
sVurl
p56
V/work/16241100
p57
sVtroveUrl
p58
Vhttp://trove.nla.gov.au/work/16241100
p59
sVversionCount
p60
I1
sVholdingsCount
p61
I0
sVrelevance
p62
(dp63
Vscore
p64
V1.0
p65
sVvalue
p66
Vlikely to be relevant
p67
ssVissued
p68
V1937-2008
p69
sVcontributor
p70
(lp71
VIllinois Bell Telephone Company
p72
asVidentifier
p73
(lp74
(dp75
Vlinktype
p76
Vfulltext
p77
sVtype
p78
Vurl
p79
sVvalue
p80
Vhttp://www.digitalpast.org/u?/mountpro001,770
p81
sa(dp82
Vlinktype
p83
Vthumbnail
p84
sVtype
p85
Vurl
p86
sVvalue
p87
Vhttp://www.digitalpast.org/cgi-bin/thumbnail.exe?CISOROOT=/mountpro001&CISOPTR=770
p88
sasVtype
p89
(lp90
VUnpublished
p91
asVid
p92
V16241100
p93
sa(dp94
Vtitle
p95
VTelephone Directory, January 1937; Classified Page 05 Aut-Bea
p96
sVurl
p97
V/work/16241112
p98
sVtroveUrl
p99
Vhttp://trove.nla.gov.au/work/16241112
p100
sVversionCount
p101
I1
sVholdingsCount
p102
I0
sVrelevance
p103
(dp104
Vscore
p105
V1.0
p106
sVvalue
p107
Vlikely to be relevant
p108
ssVissued
p109
V1937-2008
p110
sVcontributor
p111
(lp112
VIllinois Bell Telephone Company
p113
asVidentifier
p114
(lp115
(dp116
Vlinktype
p117
Vfulltext
p118
sVtype
p119
Vurl
p120
sVvalue
p121
Vhttp://www.digitalpast.org/u?/mountpro001,777
p122
sa(dp123
Vlinktype
p124
Vthumbnail
p125
sVtype
p126
Vurl
p127
sVvalue
p128
Vhttp://www.digitalpast.org/cgi-bin/thumbnail.exe?CISOROOT=/mountpro001&CISOPTR=777
p129
sasVtype
p130
(lp131
VUnpublished
p132
asVid
p133
V16241112
p134
sa(dp135
Vtitle
p136
VTelephone Directory, January 1937; Classified Page 08 Dai-Dru
p137
sVurl
p138
V/work/16241121
p139
sVtroveUrl
p140
Vhttp://trove.nla.gov.au/work/16241121
p141
sVversionCount
p142
I1
sVholdingsCount
p143
I0
sVrelevance
p144
(dp145
Vscore
p146
V1.0
p147
sVvalue
p148
Vlikely to be relevant
p149
ssVissued
p150
V1937-2008
p151
sVcontributor
p152
(lp153
VIllinois Bell Telephone Company
p154
asVidentifier
p155
(lp156
(dp157
Vlinktype
p158
Vfulltext
p159
sVtype
p160
Vurl
p161
sVvalue
p162
Vhttp://www.digitalpast.org/u?/mountpro001,780
p163
sa(dp164
Vlinktype
p165
Vthumbnail
p166
sVtype
p167
Vurl
p168
sVvalue
p169
Vhttp://www.digitalpast.org/cgi-bin/thumbnail.exe?CISOROOT=/mountpro001&CISOPTR=780
p170
sasVtype
p171
(lp172
VUnpublished
p173
asVid
p174
V16241121
p175
sa(dp176
Vtitle
p177
VTelephone Directory, January 1937; Classified Page 09 Dry-Flo
p178
sVurl
p179
V/work/16241125
p180
sVtroveUrl
p181
Vhttp://trove.nla.gov.au/work/16241125
p182
sVversionCount
p183
I1
sVholdingsCount
p184
I0
sVrelevance
p185
(dp186
Vscore
p187
V1.0
p188
sVvalue
p189
Vlikely to be relevant
p190
ssVissued
p191
V1937-2008
p192
sVcontributor
p193
(lp194
VIllinois Bell Telephone Company
p195
asVidentifier
p196
(lp197
(dp198
Vlinktype
p199
Vfulltext
p200
sVtype
p201
Vurl
p202
sVvalue
p203
Vhttp://www.digitalpast.org/u?/mountpro001,781
p204
sa(dp205
Vlinktype
p206
Vthumbnail
p207
sVtype
p208
Vurl
p209
sVvalue
p210
Vhttp://www.digitalpast.org/cgi-bin/thumbnail.exe?CISOROOT=/mountpro001&CISOPTR=781
p211
sasVtype
p212
(lp213
VUnpublished
p214
asVid
p215
V16241125
p216
sa(dp217
Vtitle
p218
VTelephone Directory, January 1937; Classified Page 10 Flo-Gra
p219
sVurl
p220
V/work/16241129
p221
sVtroveUrl
p222
Vhttp://trove.nla.gov.au/work/16241129
p223
sVversionCount
p224
I1
sVholdingsCount
p225
I0
sVrelevance
p226
(dp227
Vscore
p228
V1.0
p229
sVvalue
p230
Vlikely to be relevant
p231
ssVissued
p232
V1937-2008
p233
sVcontributor
p234
(lp235
VIllinois Bell Telephone Company
p236
asVidentifier
p237
(lp238
(dp239
Vlinktype
p240
Vfulltext
p241
sVtype
p242
Vurl
p243
sVvalue
p244
Vhttp://www.digitalpast.org/u?/mountpro001,782
p245
sa(dp246
Vlinktype
p247
Vthumbnail
p248
sVtype
p249
Vurl
p250
sVvalue
p251
Vhttp://www.digitalpast.org/cgi-bin/thumbnail.exe?CISOROOT=/mountpro001&CISOPTR=782
p252
sasVtype
p253
(lp254
VUnpublished
p255
asVid
p256
V16241129
p257
sa(dp258
Vtitle
p259
VTelephone Directory, January 1937; Classified Page 11 Gro-Law
p260
sVurl
p261
V/work/16241131
p262
sVtroveUrl
p263
Vhttp://trove.nla.gov.au/work/16241131
p264
sVversionCount
p265
I1
sVholdingsCount
p266
I0
sVrelevance
p267
(dp268
Vscore
p269
V1.0
p270
sVvalue
p271
Vlikely to be relevant
p272
ssVissued
p273
V1937-2008
p274
sVcontributor
p275
(lp276
VIllinois Bell Telephone Company
p277
asVidentifier
p278
(lp279
(dp280
Vlinktype
p281
Vfulltext
p282
sVtype
p283
Vurl
p284
sVvalue
p285
Vhttp://www.digitalpast.org/u?/mountpro001,783
p286
sa(dp287
Vlinktype
p288
Vthumbnail
p289
sVtype
p290
Vurl
p291
sVvalue
p292
Vhttp://www.digitalpast.org/cgi-bin/thumbnail.exe?CISOROOT=/mountpro001&CISOPTR=783
p293
sasVtype
p294
(lp295
VUnpublished
p296
asVid
p297
V16241131
p298
sa(dp299
Vtitle
p300
VTelephone Directory, January 1937; Classified Page 12 Lig-Mea
p301
sVurl
p302
V/work/16241135
p303
sVtroveUrl
p304
Vhttp://trove.nla.gov.au/work/16241135
p305
sVversionCount
p306
I1
sVholdingsCount
p307
I0
sVrelevance
p308
(dp309
Vscore
p310
V1.0
p311
sVvalue
p312
Vlikely to be relevant
p313
ssVissued
p314
V1937-2008
p315
sVcontributor
p316
(lp317
VIllinois Bell Telephone Company
p318
asVidentifier
p319
(lp320
(dp321
Vlinktype
p322
Vfulltext
p323
sVtype
p324
Vurl
p325
sVvalue
p326
Vhttp://www.digitalpast.org/u?/mountpro001,784
p327
sa(dp328
Vlinktype
p329
Vthumbnail
p330
sVtype
p331
Vurl
p332
sVvalue
p333
Vhttp://www.digitalpast.org/cgi-bin/thumbnail.exe?CISOROOT=/mountpro001&CISOPTR=784
p334
sasVtype
p335
(lp336
VUnpublished
p337
asVid
p338
V16241135
p339
sa(dp340
Vtitle
p341
VTelephone Directory, January 1937; Classified Page 13 Mil-Oil
p342
sVurl
p343
V/work/16241137
p344
sVtroveUrl
p345
Vhttp://trove.nla.gov.au/work/16241137
p346
sVversionCount
p347
I1
sVholdingsCount
p348
I0
sVrelevance
p349
(dp350
Vscore
p351
V1.0
p352
sVvalue
p353
Vlikely to be relevant
p354
ssVissued
p355
V1937-2008
p356
sVcontributor
p357
(lp358
VIllinois Bell Telephone Company
p359
asVidentifier
p360
(lp361
(dp362
Vlinktype
p363
Vfulltext
p364
sVtype
p365
Vurl
p366
sVvalue
p367
Vhttp://www.digitalpast.org/u?/mountpro001,785
p368
sa(dp369
Vlinktype
p370
Vthumbnail
p371
sVtype
p372
Vurl
p373
sVvalue
p374
Vhttp://www.digitalpast.org/cgi-bin/thumbnail.exe?CISOROOT=/mountpro001&CISOPTR=785
p375
sasVtype
p376
(lp377
VUnpublished
p378
asVid
p379
V16241137
p380
sa(dp381
Vtitle
p382
VTelephone Directory, January 1937; Classified Page 15 Pia-Roo
p383
sVurl
p384
V/work/16241145
p385
sVtroveUrl
p386
Vhttp://trove.nla.gov.au/work/16241145
p387
sVversionCount
p388
I1
sVholdingsCount
p389
I0
sVrelevance
p390
(dp391
Vscore
p392
V1.0
p393
sVvalue
p394
Vlikely to be relevant
p395
ssVissued
p396
V1937-2008
p397
sVcontributor
p398
(lp399
VIllinois Bell Telephone Company
p400
asVidentifier
p401
(lp402
(dp403
Vlinktype
p404
Vfulltext
p405
sVtype
p406
Vurl
p407
sVvalue
p408
Vhttp://www.digitalpast.org/u?/mountpro001,787
p409
sa(dp410
Vlinktype
p411
Vthumbnail
p412
sVtype
p413
Vurl
p414
sVvalue
p415
Vhttp://www.digitalpast.org/cgi-bin/thumbnail.exe?CISOROOT=/mountpro001&CISOPTR=787
p416
sasVtype
p417
(lp418
VUnpublished
p419
asVid
p420
V16241145
p421
sa(dp422
Vtitle
p423
VTelephone Directory, January 1937; Classified Page 19 Well-Woo
p424
sVurl
p425
V/work/16241161
p426
sVtroveUrl
p427
Vhttp://trove.nla.gov.au/work/16241161
p428
sVversionCount
p429
I1
sVholdingsCount
p430
I0
sVrelevance
p431
(dp432
Vscore
p433
V1.0
p434
sVvalue
p435
Vlikely to be relevant
p436
ssVissued
p437
V1937-2008
p438
sVcontributor
p439
(lp440
VIllinois Bell Telephone Company
p441
asVidentifier
p442
(lp443
(dp444
Vlinktype
p445
Vfulltext
p446
sVtype
p447
Vurl
p448
sVvalue
p449
Vhttp://www.digitalpast.org/u?/mountpro001,791
p450
sa(dp451
Vlinktype
p452
Vthumbnail
p453
sVtype
p454
Vurl
p455
sVvalue
p456
Vhttp://www.digitalpast.org/cgi-bin/thumbnail.exe?CISOROOT=/mountpro001&CISOPTR=791
p457
sasVtype
p458
(lp459
VUnpublished
p460
asVid
p461
V16241161
p462
sa(dp463
Vtitle
p464
VTelephone Directory, January 1937
p465
sVurl
p466
V/work/16241165
p467
sVtroveUrl
p468
Vhttp://trove.nla.gov.au/work/16241165
p469
sVversionCount
p470
I1
sVholdingsCount
p471
I0
sVrelevance
p472
(dp473
Vscore
p474
V1.0
p475
sVvalue
p476
Vlikely to be relevant
p477
ssVissued
p478
I2008
sVcontributor
p479
(lp480
VIllinois Bell Telephone Company
p481
asVidentifier
p482
(lp483
(dp484
Vlinktype
p485
Vfulltext
p486
sVtype
p487
Vurl
p488
sVvalue
p489
Vhttp://www.digitalpast.org/u?/mountpro001,793
p490
sa(dp491
Vlinktype
p492
Vthumbnail
p493
sVtype
p494
Vurl
p495
sVvalue
p496
Vhttp://www.digitalpast.org/cgi-bin/thumbnail.exe?CISOROOT=/mountpro001&CISOPTR=793
p497
sasVtype
p498
(lp499
VUnpublished
p500
asVid
p501
V16241165
p502
sa(dp503
Vtitle
p504
VTelephone Directory, June 1937;  Page 06 Bacon-Briggs
p505
sVurl
p506
V/work/16241171
p507
sVtroveUrl
p508
Vhttp://trove.nla.gov.au/work/16241171
p509
sVversionCount
p510
I1
sVholdingsCount
p511
I0
sVrelevance
p512
(dp513
Vscore
p514
V1.0
p515
sVvalue
p516
Vlikely to be relevant
p517
ssVissued
p518
V1937-2008
p519
sVcontributor
p520
(lp521
VIllinois Bell Telephone Company
p522
asVidentifier
p523
(lp524
(dp525
Vlinktype
p526
Vfulltext
p527
sVtype
p528
Vurl
p529
sVvalue
p530
Vhttp://www.digitalpast.org/u?/mountpro001,802
p531
sa(dp532
Vlinktype
p533
Vthumbnail
p534
sVtype
p535
Vurl
p536
sVvalue
p537
Vhttp://www.digitalpast.org/cgi-bin/thumbnail.exe?CISOROOT=/mountpro001&CISOPTR=802
p538
sasVtype
p539
(lp540
VUnpublished
p541
asVid
p542
V16241171
p543
sa(dp544
Vtitle
p545
VTelephone Directory, June 1937;  Page 08 Conley-Evergreen
p546
sVurl
p547
V/work/16241177
p548
sVtroveUrl
p549
Vhttp://trove.nla.gov.au/work/16241177
p550
sVversionCount
p551
I1
sVholdingsCount
p552
I0
sVrelevance
p553
(dp554
Vscore
p555
V1.0
p556
sVvalue
p557
Vlikely to be relevant
p558
ssVissued
p559
V1937-2008
p560
sVcontributor
p561
(lp562
VIllinois Bell Telephone Company
p563
asVidentifier
p564
(lp565
(dp566
Vlinktype
p567
Vfulltext
p568
sVtype
p569
Vurl
p570
sVvalue
p571
Vhttp://www.digitalpast.org/u?/mountpro001,804
p572
sa(dp573
Vlinktype
p574
Vthumbnail
p575
sVtype
p576
Vurl
p577
sVvalue
p578
Vhttp://www.digitalpast.org/cgi-bin/thumbnail.exe?CISOROOT=/mountpro001&CISOPTR=804
p579
sasVtype
p580
(lp581
VUnpublished
p582
asVid
p583
V16241177
p584
sa(dp585
Vtitle
p586
VTelephone Directory, June 1937;  Page 11 Harz-Huntman
p587
sVurl
p588
V/work/16241187
p589
sVtroveUrl
p590
Vhttp://trove.nla.gov.au/work/16241187
p591
sVversionCount
p592
I1
sVholdingsCount
p593
I0
sVrelevance
p594
(dp595
Vscore
p596
V1.0
p597
sVvalue
p598
Vlikely to be relevant
p599
ssVissued
p600
V1937-2008
p601
sVcontributor
p602
(lp603
VIllinois Bell Telephone Company
p604
asVidentifier
p605
(lp606
(dp607
Vlinktype
p608
Vfulltext
p609
sVtype
p610
Vurl
p611
sVvalue
p612
Vhttp://www.digitalpast.org/u?/mountpro001,807
p613
sa(dp614
Vlinktype
p615
Vthumbnail
p616
sVtype
p617
Vurl
p618
sVvalue
p619
Vhttp://www.digitalpast.org/cgi-bin/thumbnail.exe?CISOROOT=/mountpro001&CISOPTR=807
p620
sasVtype
p621
(lp622
VUnpublished
p623
asVid
p624
V16241187
p625
sa(dp626
Vtitle
p627
VTelephone Directory, June 1937;  Page 12 Ihle-Kossack
p628
sVurl
p629
V/work/16241191
p630
sVtroveUrl
p631
Vhttp://trove.nla.gov.au/work/16241191
p632
sVversionCount
p633
I1
sVholdingsCount
p634
I0
sVrelevance
p635
(dp636
Vscore
p637
V1.0
p638
sVvalue
p639
Vlikely to be relevant
p640
ssVissued
p641
V1937-2008
p642
sVcontributor
p643
(lp644
VIllinois Bell Telephone Company
p645
asVidentifier
p646
(lp647
(dp648
Vlinktype
p649
Vfulltext
p650
sVtype
p651
Vurl
p652
sVvalue
p653
Vhttp://www.digitalpast.org/u?/mountpro001,808
p654
sa(dp655
Vlinktype
p656
Vthumbnail
p657
sVtype
p658
Vurl
p659
sVvalue
p660
Vhttp://www.digitalpast.org/cgi-bin/thumbnail.exe?CISOROOT=/mountpro001&CISOPTR=808
p661
sasVtype
p662
(lp663
VUnpublished
p664
asVid
p665
V16241191
p666
sa(dp667
Vtitle
p668
VTelephone Directory, June 1937;  Page 14 Luerssen-Mitzlaff
p669
sVurl
p670
V/work/16241195
p671
sVtroveUrl
p672
Vhttp://trove.nla.gov.au/work/16241195
p673
sVversionCount
p674
I1
sVholdingsCount
p675
I0
sVrelevance
p676
(dp677
Vscore
p678
V1.0
p679
sVvalue
p680
Vlikely to be relevant
p681
ssVissued
p682
V1937-2008
p683
sVcontributor
p684
(lp685
VIllinois Bell Telephone Company
p686
asVidentifier
p687
(lp688
(dp689
Vlinktype
p690
Vfulltext
p691
sVtype
p692
Vurl
p693
sVvalue
p694
Vhttp://www.digitalpast.org/u?/mountpro001,810
p695
sa(dp696
Vlinktype
p697
Vthumbnail
p698
sVtype
p699
Vurl
p700
sVvalue
p701
Vhttp://www.digitalpast.org/cgi-bin/thumbnail.exe?CISOROOT=/mountpro001&CISOPTR=810
p702
sasVtype
p703
(lp704
VUnpublished
p705
asVid
p706
V16241195
p707
sa(dp708
Vtitle
p709
VTelephone Directory, June 1937;  Page 16 Oliger-Post
p710
sVurl
p711
V/work/16241199
p712
sVtroveUrl
p713
Vhttp://trove.nla.gov.au/work/16241199
p714
sVversionCount
p715
I1
sVholdingsCount
p716
I0
sVrelevance
p717
(dp718
Vscore
p719
V1.0
p720
sVvalue
p721
Vlikely to be relevant
p722
ssVissued
p723
V1937-2008
p724
sVcontributor
p725
(lp726
VIllinois Bell Telephone Company
p727
asVidentifier
p728
(lp729
(dp730
Vlinktype
p731
Vfulltext
p732
sVtype
p733
Vurl
p734
sVvalue
p735
Vhttp://www.digitalpast.org/u?/mountpro001,812
p736
sa(dp737
Vlinktype
p738
Vthumbnail
p739
sVtype
p740
Vurl
p741
sVvalue
p742
Vhttp://www.digitalpast.org/cgi-bin/thumbnail.exe?CISOROOT=/mountpro001&CISOPTR=812
p743
sasVtype
p744
(lp745
VUnpublished
p746
asVid
p747
V16241199
p748
sa(dp749
Vtitle
p750
VTelephone Directory, June 1937;  Page 17 Postal-Rossiter
p751
sVurl
p752
V/work/16241201
p753
sVtroveUrl
p754
Vhttp://trove.nla.gov.au/work/16241201
p755
sVversionCount
p756
I1
sVholdingsCount
p757
I0
sVrelevance
p758
(dp759
Vscore
p760
V1.0
p761
sVvalue
p762
Vlikely to be relevant
p763
ssVissued
p764
V1937-2008
p765
sVcontributor
p766
(lp767
VIllinois Bell Telephone Company
p768
asVidentifier
p769
(lp770
(dp771
Vlinktype
p772
Vfulltext
p773
sVtype
p774
Vurl
p775
sVvalue
p776
Vhttp://www.digitalpast.org/u?/mountpro001,813
p777
sa(dp778
Vlinktype
p779
Vthumbnail
p780
sVtype
p781
Vurl
p782
sVvalue
p783
Vhttp://www.digitalpast.org/cgi-bin/thumbnail.exe?CISOROOT=/mountpro001&CISOPTR=813
p784
sasVtype
p785
(lp786
VUnpublished
p787
asVid
p788
V16241201
p789
sa(dp790
Vtitle
p791
VTelephone Directory, June 1937;  Page 19 Schulenburg-Templeton
p792
sVurl
p793
V/work/16241207
p794
sVtroveUrl
p795
Vhttp://trove.nla.gov.au/work/16241207
p796
sVversionCount
p797
I1
sVholdingsCount
p798
I0
sVrelevance
p799
(dp800
Vscore
p801
V1.0
p802
sVvalue
p803
Vlikely to be relevant
p804
ssVissued
p805
V1937-2008
p806
sVcontributor
p807
(lp808
VIllinois Bell Telephone Company
p809
asVidentifier
p810
(lp811
(dp812
Vlinktype
p813
Vfulltext
p814
sVtype
p815
Vurl
p816
sVvalue
p817
Vhttp://www.digitalpast.org/u?/mountpro001,815
p818
sa(dp819
Vlinktype
p820
Vthumbnail
p821
sVtype
p822
Vurl
p823
sVvalue
p824
Vhttp://www.digitalpast.org/cgi-bin/thumbnail.exe?CISOROOT=/mountpro001&CISOPTR=815
p825
sasVtype
p826
(lp827
VUnpublished
p828
asVid
p829
V16241207
p830
sa(dp831
Vtitle
p832
VTelephone Directory, June 1937;  Page 20 Terpning-Weidner
p833
sVurl
p834
V/work/16241209
p835
sVtroveUrl
p836
Vhttp://trove.nla.gov.au/work/16241209
p837
sVversionCount
p838
I1
sVholdingsCount
p839
I0
sVrelevance
p840
(dp841
Vscore
p842
V1.0
p843
sVvalue
p844
Vlikely to be relevant
p845
ssVissued
p846
V1937-2008
p847
sVcontributor
p848
(lp849
VIllinois Bell Telephone Company
p850
asVidentifier
p851
(lp852
(dp853
Vlinktype
p854
Vfulltext
p855
sVtype
p856
Vurl
p857
sVvalue
p858
Vhttp://www.digitalpast.org/u?/mountpro001,816
p859
sa(dp860
Vlinktype
p861
Vthumbnail
p862
sVtype
p863
Vurl
p864
sVvalue
p865
Vhttp://www.digitalpast.org/cgi-bin/thumbnail.exe?CISOROOT=/mountpro001&CISOPTR=816
p866
sasVtype
p867
(lp868
VUnpublished
p869
asVid
p870
V16241209
p871
sa(dp872
Vtitle
p873
VTelephone Directory, June 1937;  Page 21 Weigt-Work
p874
sVurl
p875
V/work/16241211
p876
sVtroveUrl
p877
Vhttp://trove.nla.gov.au/work/16241211
p878
sVversionCount
p879
I1
sVholdingsCount
p880
I0
sVrelevance
p881
(dp882
Vscore
p883
V1.0
p884
sVvalue
p885
Vlikely to be relevant
p886
ssVissued
p887
V1937-2008
p888
sVcontributor
p889
(lp890
VIllinois Bell Telephone Company
p891
asVidentifier
p892
(lp893
(dp894
Vlinktype
p895
Vfulltext
p896
sVtype
p897
Vurl
p898
sVvalue
p899
Vhttp://www.digitalpast.org/u?/mountpro001,817
p900
sa(dp901
Vlinktype
p902
Vthumbnail
p903
sVtype
p904
Vurl
p905
sVvalue
p906
Vhttp://www.digitalpast.org/cgi-bin/thumbnail.exe?CISOROOT=/mountpro001&CISOPTR=817
p907
sasVtype
p908
(lp909
VUnpublished
p910
asVid
p911
V16241211
p912
sa(dp913
Vtitle
p914
VTelephone Directory, June 1937;  Page 22 Worley-Zyc
p915
sVurl
p916
V/work/16241215
p917
sVtroveUrl
p918
Vhttp://trove.nla.gov.au/work/16241215
p919
sVversionCount
p920
I1
sVholdingsCount
p921
I0
sVrelevance
p922
(dp923
Vscore
p924
V1.0
p925
sVvalue
p926
Vlikely to be relevant
p927
ssVissued
p928
V1937-2008
p929
sVcontributor
p930
(lp931
VIllinois Bell Telephone Company
p932
asVidentifier
p933
(lp934
(dp935
Vlinktype
p936
Vfulltext
p937
sVtype
p938
Vurl
p939
sVvalue
p940
Vhttp://www.digitalpast.org/u?/mountpro001,818
p941
sa(dp942
Vlinktype
p943
Vthumbnail
p944
sVtype
p945
Vurl
p946
sVvalue
p947
Vhttp://www.digitalpast.org/cgi-bin/thumbnail.exe?CISOROOT=/mountpro001&CISOPTR=818
p948
sasVtype
p949
(lp950
VUnpublished
p951
asVid
p952
V16241215
p953
sa(dp954
Vtitle
p955
VTelephone Directory, January 1937; Classified Page 14 Oil-Phy
p956
sVurl
p957
V/work/16241142
p958
sVtroveUrl
p959
Vhttp://trove.nla.gov.au/work/16241142
p960
sVversionCount
p961
I1
sVholdingsCount
p962
I0
sVrelevance
p963
(dp964
Vscore
p965
V1.0
p966
sVvalue
p967
Vlikely to be relevant
p968
ssVissued
p969
V1937-2008
p970
sVcontributor
p971
(lp972
VIllinois Bell Telephone Company
p973
asVidentifier
p974
(lp975
(dp976
Vlinktype
p977
Vfulltext
p978
sVtype
p979
Vurl
p980
sVvalue
p981
Vhttp://www.digitalpast.org/u?/mountpro001,786
p982
sa(dp983
Vlinktype
p984
Vthumbnail
p985
sVtype
p986
Vurl
p987
sVvalue
p988
Vhttp://www.digitalpast.org/cgi-bin/thumbnail.exe?CISOROOT=/mountpro001&CISOPTR=786
p989
sasVtype
p990
(lp991
VUnpublished
p992
asVid
p993
V16241142
p994
sa(dp995
Vtitle
p996
VTelephone Directory, January 1937; Classified Page 16 Rug-Tax
p997
sVurl
p998
V/work/16241148
p999
sVtroveUrl
p1000
Vhttp://trove.nla.gov.au/work/16241148
p1001
sVversionCount
p1002
I1
sVholdingsCount
p1003
I0
sVrelevance
p1004
(dp1005
Vscore
p1006
V1.0
p1007
sVvalue
p1008
Vlikely to be relevant
p1009
ssVissued
p1010
V1937-2008
p1011
sVcontributor
p1012
(lp1013
VIllinois Bell Telephone Company
p1014
asVidentifier
p1015
(lp1016
(dp1017
Vlinktype
p1018
Vfulltext
p1019
sVtype
p1020
Vurl
p1021
sVvalue
p1022
Vhttp://www.digitalpast.org/u?/mountpro001,788
p1023
sa(dp1024
Vlinktype
p1025
Vthumbnail
p1026
sVtype
p1027
Vurl
p1028
sVvalue
p1029
Vhttp://www.digitalpast.org/cgi-bin/thumbnail.exe?CISOROOT=/mountpro001&CISOPTR=788
p1030
sasVtype
p1031
(lp1032
VUnpublished
p1033
asVid
p1034
V16241148
p1035
sa(dp1036
Vtitle
p1037
VTelephone Directory, January 1937; Classified Page 17 Tel-Tre
p1038
sVurl
p1039
V/work/16241152
p1040
sVtroveUrl
p1041
Vhttp://trove.nla.gov.au/work/16241152
p1042
sVversionCount
p1043
I1
sVholdingsCount
p1044
I0
sVrelevance
p1045
(dp1046
Vscore
p1047
V1.0
p1048
sVvalue
p1049
Vlikely to be relevant
p1050
ssVissued
p1051
V1937-2008
p1052
sVcontributor
p1053
(lp1054
VIllinois Bell Telephone Company
p1055
asVidentifier
p1056
(lp1057
(dp1058
Vlinktype
p1059
Vfulltext
p1060
sVtype
p1061
Vurl
p1062
sVvalue
p1063
Vhttp://www.digitalpast.org/u?/mountpro001,789
p1064
sa(dp1065
Vlinktype
p1066
Vthumbnail
p1067
sVtype
p1068
Vurl
p1069
sVvalue
p1070
Vhttp://www.digitalpast.org/cgi-bin/thumbnail.exe?CISOROOT=/mountpro001&CISOPTR=789
p1071
sasVtype
p1072
(lp1073
VUnpublished
p1074
asVid
p1075
V16241152
p1076
sa(dp1077
Vtitle
p1078
VTelephone Directory, January 1937; Classified Page 18 Und-Wel
p1079
sVurl
p1080
V/work/16241158
p1081
sVtroveUrl
p1082
Vhttp://trove.nla.gov.au/work/16241158
p1083
sVversionCount
p1084
I1
sVholdingsCount
p1085
I0
sVrelevance
p1086
(dp1087
Vscore
p1088
V1.0
p1089
sVvalue
p1090
Vlikely to be relevant
p1091
ssVissued
p1092
V1937-2008
p1093
sVcontributor
p1094
(lp1095
VIllinois Bell Telephone Company
p1096
asVidentifier
p1097
(lp1098
(dp1099
Vlinktype
p1100
Vfulltext
p1101
sVtype
p1102
Vurl
p1103
sVvalue
p1104
Vhttp://www.digitalpast.org/u?/mountpro001,790
p1105
sa(dp1106
Vlinktype
p1107
Vthumbnail
p1108
sVtype
p1109
Vurl
p1110
sVvalue
p1111
Vhttp://www.digitalpast.org/cgi-bin/thumbnail.exe?CISOROOT=/mountpro001&CISOPTR=790
p1112
sasVtype
p1113
(lp1114
VUnpublished
p1115
asVid
p1116
V16241158
p1117
sa(dp1118
Vtitle
p1119
VTelephone Directory, June 1937;  Page 05 A & P-Bach
p1120
sVurl
p1121
V/work/16241168
p1122
sVtroveUrl
p1123
Vhttp://trove.nla.gov.au/work/16241168
p1124
sVversionCount
p1125
I1
sVholdingsCount
p1126
I0
sVrelevance
p1127
(dp1128
Vscore
p1129
V1.0
p1130
sVvalue
p1131
Vlikely to be relevant
p1132
ssVissued
p1133
V1937-2008
p1134
sVcontributor
p1135
(lp1136
VIllinois Bell Telephone Company
p1137
asVidentifier
p1138
(lp1139
(dp1140
Vlinktype
p1141
Vfulltext
p1142
sVtype
p1143
Vurl
p1144
sVvalue
p1145
Vhttp://www.digitalpast.org/u?/mountpro001,801
p1146
sa(dp1147
Vlinktype
p1148
Vthumbnail
p1149
sVtype
p1150
Vurl
p1151
sVvalue
p1152
Vhttp://www.digitalpast.org/cgi-bin/thumbnail.exe?CISOROOT=/mountpro001&CISOPTR=801
p1153
sasVtype
p1154
(lp1155
VUnpublished
p1156
asVid
p1157
V16241168
p1158
sa(dp1159
Vtitle
p1160
VTelephone Directory, June 1937;  Page 07 Brinkman-Conklin
p1161
sVurl
p1162
V/work/16241174
p1163
sVtroveUrl
p1164
Vhttp://trove.nla.gov.au/work/16241174
p1165
sVversionCount
p1166
I1
sVholdingsCount
p1167
I0
sVrelevance
p1168
(dp1169
Vscore
p1170
V1.0
p1171
sVvalue
p1172
Vlikely to be relevant
p1173
ssVissued
p1174
V1937-2008
p1175
sVcontributor
p1176
(lp1177
VIllinois Bell Telephone Company
p1178
asVidentifier
p1179
(lp1180
(dp1181
Vlinktype
p1182
Vfulltext
p1183
sVtype
p1184
Vurl
p1185
sVvalue
p1186
Vhttp://www.digitalpast.org/u?/mountpro001,803
p1187
sa(dp1188
Vlinktype
p1189
Vthumbnail
p1190
sVtype
p1191
Vurl
p1192
sVvalue
p1193
Vhttp://www.digitalpast.org/cgi-bin/thumbnail.exe?CISOROOT=/mountpro001&CISOPTR=803
p1194
sasVtype
p1195
(lp1196
VUnpublished
p1197
asVid
p1198
V16241174
p1199
sa(dp1200
Vtitle
p1201
VTelephone Directory, June 1937;  Page 09 Evert-Gibbs
p1202
sVurl
p1203
V/work/16241180
p1204
sVtroveUrl
p1205
Vhttp://trove.nla.gov.au/work/16241180
p1206
sVversionCount
p1207
I1
sVholdingsCount
p1208
I0
sVrelevance
p1209
(dp1210
Vscore
p1211
V1.0
p1212
sVvalue
p1213
Vlikely to be relevant
p1214
ssVissued
p1215
V1937-2008
p1216
sVcontributor
p1217
(lp1218
VIllinois Bell Telephone Company
p1219
asVidentifier
p1220
(lp1221
(dp1222
Vlinktype
p1223
Vfulltext
p1224
sVtype
p1225
Vurl
p1226
sVvalue
p1227
Vhttp://www.digitalpast.org/u?/mountpro001,805
p1228
sa(dp1229
Vlinktype
p1230
Vthumbnail
p1231
sVtype
p1232
Vurl
p1233
sVvalue
p1234
Vhttp://www.digitalpast.org/cgi-bin/thumbnail.exe?CISOROOT=/mountpro001&CISOPTR=805
p1235
sasVtype
p1236
(lp1237
VUnpublished
p1238
asVid
p1239
V16241180
p1240
sa(dp1241
Vtitle
p1242
VTelephone Directory, June 1937;  Page 10 Gibbs-Harz
p1243
sVurl
p1244
V/work/16241184
p1245
sVtroveUrl
p1246
Vhttp://trove.nla.gov.au/work/16241184
p1247
sVversionCount
p1248
I1
sVholdingsCount
p1249
I0
sVrelevance
p1250
(dp1251
Vscore
p1252
V1.0
p1253
sVvalue
p1254
Vlikely to be relevant
p1255
ssVissued
p1256
V1937-2008
p1257
sVcontributor
p1258
(lp1259
VIllinois Bell Telephone Company
p1260
asVidentifier
p1261
(lp1262
(dp1263
Vlinktype
p1264
Vfulltext
p1265
sVtype
p1266
Vurl
p1267
sVvalue
p1268
Vhttp://www.digitalpast.org/u?/mountpro001,806
p1269
sa(dp1270
Vlinktype
p1271
Vthumbnail
p1272
sVtype
p1273
Vurl
p1274
sVvalue
p1275
Vhttp://www.digitalpast.org/cgi-bin/thumbnail.exe?CISOROOT=/mountpro001&CISOPTR=806
p1276
sasVtype
p1277
(lp1278
VUnpublished
p1279
asVid
p1280
V16241184
p1281
sa(dp1282
Vtitle
p1283
VTelephone Directory, June 1937;  Page 13 Kost-Luerssen
p1284
sVurl
p1285
V/work/16241192
p1286
sVtroveUrl
p1287
Vhttp://trove.nla.gov.au/work/16241192
p1288
sVversionCount
p1289
I1
sVholdingsCount
p1290
I0
sVrelevance
p1291
(dp1292
Vscore
p1293
V1.0
p1294
sVvalue
p1295
Vlikely to be relevant
p1296
ssVissued
p1297
V1937-2008
p1298
sVcontributor
p1299
(lp1300
VIllinois Bell Telephone Company
p1301
asVidentifier
p1302
(lp1303
(dp1304
Vlinktype
p1305
Vfulltext
p1306
sVtype
p1307
Vurl
p1308
sVvalue
p1309
Vhttp://www.digitalpast.org/u?/mountpro001,809
p1310
sa(dp1311
Vlinktype
p1312
Vthumbnail
p1313
sVtype
p1314
Vurl
p1315
sVvalue
p1316
Vhttp://www.digitalpast.org/cgi-bin/thumbnail.exe?CISOROOT=/mountpro001&CISOPTR=809
p1317
sasVtype
p1318
(lp1319
VUnpublished
p1320
asVid
p1321
V16241192
p1322
sa(dp1323
Vtitle
p1324
VTelephone Directory, June 1937;  Page 15 Moe-Old
p1325
sVurl
p1326
V/work/16241196
p1327
sVtroveUrl
p1328
Vhttp://trove.nla.gov.au/work/16241196
p1329
sVversionCount
p1330
I1
sVholdingsCount
p1331
I0
sVrelevance
p1332
(dp1333
Vscore
p1334
V1.0
p1335
sVvalue
p1336
Vlikely to be relevant
p1337
ssVissued
p1338
V1937-2008
p1339
sVcontributor
p1340
(lp1341
VIllinois Bell Telephone Company
p1342
asVidentifier
p1343
(lp1344
(dp1345
Vlinktype
p1346
Vfulltext
p1347
sVtype
p1348
Vurl
p1349
sVvalue
p1350
Vhttp://www.digitalpast.org/u?/mountpro001,811
p1351
sa(dp1352
Vlinktype
p1353
Vthumbnail
p1354
sVtype
p1355
Vurl
p1356
sVvalue
p1357
Vhttp://www.digitalpast.org/cgi-bin/thumbnail.exe?CISOROOT=/mountpro001&CISOPTR=811
p1358
sasVtype
p1359
(lp1360
VUnpublished
p1361
asVid
p1362
V16241196
p1363
sa(dp1364
Vtitle
p1365
VTelephone Directory, June 1937;  Page 18 Rothschild-Schuldt
p1366
sVurl
p1367
V/work/16241204
p1368
sVtroveUrl
p1369
Vhttp://trove.nla.gov.au/work/16241204
p1370
sVversionCount
p1371
I1
sVholdingsCount
p1372
I0
sVrelevance
p1373
(dp1374
Vscore
p1375
V1.0
p1376
sVvalue
p1377
Vlikely to be relevant
p1378
ssVissued
p1379
V1937-2008
p1380
sVcontributor
p1381
(lp1382
VIllinois Bell Telephone Company
p1383
asVidentifier
p1384
(lp1385
(dp1386
Vlinktype
p1387
Vfulltext
p1388
sVtype
p1389
Vurl
p1390
sVvalue
p1391
Vhttp://www.digitalpast.org/u?/mountpro001,814
p1392
sa(dp1393
Vlinktype
p1394
Vthumbnail
p1395
sVtype
p1396
Vurl
p1397
sVvalue
p1398
Vhttp://www.digitalpast.org/cgi-bin/thumbnail.exe?CISOROOT=/mountpro001&CISOPTR=814
p1399
sasVtype
p1400
(lp1401
VUnpublished
p1402
asVid
p1403
V16241204
p1404
sa(dp1405
Vtitle
p1406
VTelephone Directory, June 1937;  Classified Page 03 Agr-Att
p1407
sVurl
p1408
V/work/16241218
p1409
sVtroveUrl
p1410
Vhttp://trove.nla.gov.au/work/16241218
p1411
sVversionCount
p1412
I1
sVholdingsCount
p1413
I0
sVrelevance
p1414
(dp1415
Vscore
p1416
V1.0
p1417
sVvalue
p1418
Vlikely to be relevant
p1419
ssVissued
p1420
V1937-2008
p1421
sVcontributor
p1422
(lp1423
VIllinois Bell Telephone Company
p1424
asVidentifier
p1425
(lp1426
(dp1427
Vlinktype
p1428
Vfulltext
p1429
sVtype
p1430
Vurl
p1431
sVvalue
p1432
Vhttp://www.digitalpast.org/u?/mountpro001,824
p1433
sa(dp1434
Vlinktype
p1435
Vthumbnail
p1436
sVtype
p1437
Vurl
p1438
sVvalue
p1439
Vhttp://www.digitalpast.org/cgi-bin/thumbnail.exe?CISOROOT=/mountpro001&CISOPTR=824
p1440
sasVtype
p1441
(lp1442
VUnpublished
p1443
asVid
p1444
V16241218
p1445
sa(dp1446
Vtitle
p1447
VTelephone Directory, June 1937;  Classified Page 04 Aut-Aut
p1448
sVurl
p1449
V/work/16241222
p1450
sVtroveUrl
p1451
Vhttp://trove.nla.gov.au/work/16241222
p1452
sVversionCount
p1453
I1
sVholdingsCount
p1454
I0
sVrelevance
p1455
(dp1456
Vscore
p1457
V1.0
p1458
sVvalue
p1459
Vlikely to be relevant
p1460
ssVissued
p1461
V1937-2008
p1462
sVcontributor
p1463
(lp1464
VIllinois Bell Telephone Company
p1465
asVidentifier
p1466
(lp1467
(dp1468
Vlinktype
p1469
Vfulltext
p1470
sVtype
p1471
Vurl
p1472
sVvalue
p1473
Vhttp://www.digitalpast.org/u?/mountpro001,825
p1474
sa(dp1475
Vlinktype
p1476
Vthumbnail
p1477
sVtype
p1478
Vurl
p1479
sVvalue
p1480
Vhttp://www.digitalpast.org/cgi-bin/thumbnail.exe?CISOROOT=/mountpro001&CISOPTR=825
p1481
sasVtype
p1482
(lp1483
VUnpublished
p1484
asVid
p1485
V16241222
p1486
sa(dp1487
Vtitle
p1488
VTelephone Directory, June 1937;  Classified Page 05 Aut-Aut
p1489
sVurl
p1490
V/work/16241224
p1491
sVtroveUrl
p1492
Vhttp://trove.nla.gov.au/work/16241224
p1493
sVversionCount
p1494
I1
sVholdingsCount
p1495
I0
sVrelevance
p1496
(dp1497
Vscore
p1498
V1.0
p1499
sVvalue
p1500
Vlikely to be relevant
p1501
ssVissued
p1502
V1937-2008
p1503
sVcontributor
p1504
(lp1505
VIllinois Bell Telephone Company
p1506
asVidentifier
p1507
(lp1508
(dp1509
Vlinktype
p1510
Vfulltext
p1511
sVtype
p1512
Vurl
p1513
sVvalue
p1514
Vhttp://www.digitalpast.org/u?/mountpro001,826
p1515
sa(dp1516
Vlinktype
p1517
Vthumbnail
p1518
sVtype
p1519
Vurl
p1520
sVvalue
p1521
Vhttp://www.digitalpast.org/cgi-bin/thumbnail.exe?CISOROOT=/mountpro001&CISOPTR=826
p1522
sasVtype
p1523
(lp1524
VUnpublished
p1525
asVid
p1526
V16241224
p1527
sa(dp1528
Vtitle
p1529
VTelephone Directory, June 1937;  Classified Page 06 Aut-Bar
p1530
sVurl
p1531
V/work/16241228
p1532
sVtroveUrl
p1533
Vhttp://trove.nla.gov.au/work/16241228
p1534
sVversionCount
p1535
I1
sVholdingsCount
p1536
I0
sVrelevance
p1537
(dp1538
Vscore
p1539
V1.0
p1540
sVvalue
p1541
Vlikely to be relevant
p1542
ssVissued
p1543
V1937-2008
p1544
sVcontributor
p1545
(lp1546
VIllinois Bell Telephone Company
p1547
asVidentifier
p1548
(lp1549
(dp1550
Vlinktype
p1551
Vfulltext
p1552
sVtype
p1553
Vurl
p1554
sVvalue
p1555
Vhttp://www.digitalpast.org/u?/mountpro001,827
p1556
sa(dp1557
Vlinktype
p1558
Vthumbnail
p1559
sVtype
p1560
Vurl
p1561
sVvalue
p1562
Vhttp://www.digitalpast.org/cgi-bin/thumbnail.exe?CISOROOT=/mountpro001&CISOPTR=827
p1563
sasVtype
p1564
(lp1565
VUnpublished
p1566
asVid
p1567
V16241228
p1568
sa(dp1569
Vtitle
p1570
VTelephone Directory, June 1937;  Classified Page 07 Bar-Bus
p1571
sVurl
p1572
V/work/16241230
p1573
sVtroveUrl
p1574
Vhttp://trove.nla.gov.au/work/16241230
p1575
sVversionCount
p1576
I1
sVholdingsCount
p1577
I0
sVrelevance
p1578
(dp1579
Vscore
p1580
V1.0
p1581
sVvalue
p1582
Vlikely to be relevant
p1583
ssVissued
p1584
V1937-2008
p1585
sVcontributor
p1586
(lp1587
VIllinois Bell Telephone Company
p1588
asVidentifier
p1589
(lp1590
(dp1591
Vlinktype
p1592
Vfulltext
p1593
sVtype
p1594
Vurl
p1595
sVvalue
p1596
Vhttp://www.digitalpast.org/u?/mountpro001,828
p1597
sa(dp1598
Vlinktype
p1599
Vthumbnail
p1600
sVtype
p1601
Vurl
p1602
sVvalue
p1603
Vhttp://www.digitalpast.org/cgi-bin/thumbnail.exe?CISOROOT=/mountpro001&CISOPTR=828
p1604
sasVtype
p1605
(lp1606
VUnpublished
p1607
asVid
p1608
V16241230
p1609
sa(dp1610
Vtitle
p1611
VTelephone Directory, June 1937;  Classified Page 08 But-Cle
p1612
sVurl
p1613
V/work/16241234
p1614
sVtroveUrl
p1615
Vhttp://trove.nla.gov.au/work/16241234
p1616
sVversionCount
p1617
I1
sVholdingsCount
p1618
I0
sVrelevance
p1619
(dp1620
Vscore
p1621
V1.0
p1622
sVvalue
p1623
Vlikely to be relevant
p1624
ssVissued
p1625
V1937-2008
p1626
sVcontributor
p1627
(lp1628
VIllinois Bell Telephone Company
p1629
asVidentifier
p1630
(lp1631
(dp1632
Vlinktype
p1633
Vfulltext
p1634
sVtype
p1635
Vurl
p1636
sVvalue
p1637
Vhttp://www.digitalpast.org/u?/mountpro001,829
p1638
sa(dp1639
Vlinktype
p1640
Vthumbnail
p1641
sVtype
p1642
Vurl
p1643
sVvalue
p1644
Vhttp://www.digitalpast.org/cgi-bin/thumbnail.exe?CISOROOT=/mountpro001&CISOPTR=829
p1645
sasVtype
p1646
(lp1647
VUnpublished
p1648
asVid
p1649
V16241234
p1650
sa(dp1651
Vtitle
p1652
VTelephone Directory, June 1937;  Classified Page 09 Clu-Dai
p1653
sVurl
p1654
V/work/16241236
p1655
sVtroveUrl
p1656
Vhttp://trove.nla.gov.au/work/16241236
p1657
sVversionCount
p1658
I1
sVholdingsCount
p1659
I0
sVrelevance
p1660
(dp1661
Vscore
p1662
V1.0
p1663
sVvalue
p1664
Vlikely to be relevant
p1665
ssVissued
p1666
V1937-2008
p1667
sVcontributor
p1668
(lp1669
VIllinois Bell Telephone Company
p1670
asVidentifier
p1671
(lp1672
(dp1673
Vlinktype
p1674
Vfulltext
p1675
sVtype
p1676
Vurl
p1677
sVvalue
p1678
Vhttp://www.digitalpast.org/u?/mountpro001,830
p1679
sa(dp1680
Vlinktype
p1681
Vthumbnail
p1682
sVtype
p1683
Vurl
p1684
sVvalue
p1685
Vhttp://www.digitalpast.org/cgi-bin/thumbnail.exe?CISOROOT=/mountpro001&CISOPTR=830
p1686
sasVtype
p1687
(lp1688
VUnpublished
p1689
asVid
p1690
V16241236
p1691
sa(dp1692
Vtitle
p1693
VTelephone Directory, June 1937;  Classified Page 11 Dry-Fun
p1694
sVurl
p1695
V/work/16241243
p1696
sVtroveUrl
p1697
Vhttp://trove.nla.gov.au/work/16241243
p1698
sVversionCount
p1699
I1
sVholdingsCount
p1700
I0
sVrelevance
p1701
(dp1702
Vscore
p1703
V1.0
p1704
sVvalue
p1705
Vlikely to be relevant
p1706
ssVissued
p1707
V1937-2008
p1708
sVcontributor
p1709
(lp1710
VIllinois Bell Telephone Company
p1711
asVidentifier
p1712
(lp1713
(dp1714
Vlinktype
p1715
Vfulltext
p1716
sVtype
p1717
Vurl
p1718
sVvalue
p1719
Vhttp://www.digitalpast.org/u?/mountpro001,832
p1720
sa(dp1721
Vlinktype
p1722
Vthumbnail
p1723
sVtype
p1724
Vurl
p1725
sVvalue
p1726
Vhttp://www.digitalpast.org/cgi-bin/thumbnail.exe?CISOROOT=/mountpro001&CISOPTR=832
p1727
sasVtype
p1728
(lp1729
VUnpublished
p1730
asVid
p1731
V16241243
p1732
sa(dp1733
Vtitle
p1734
VTelephone Directory, June 1937;  Classified Page 12 Fur-Gro
p1735
sVurl
p1736
V/work/16241245
p1737
sVtroveUrl
p1738
Vhttp://trove.nla.gov.au/work/16241245
p1739
sVversionCount
p1740
I1
sVholdingsCount
p1741
I0
sVrelevance
p1742
(dp1743
Vscore
p1744
V1.0
p1745
sVvalue
p1746
Vlikely to be relevant
p1747
ssVissued
p1748
V1937-2008
p1749
sVcontributor
p1750
(lp1751
VIllinois Bell Telephone Company
p1752
asVidentifier
p1753
(lp1754
(dp1755
Vlinktype
p1756
Vfulltext
p1757
sVtype
p1758
Vurl
p1759
sVvalue
p1760
Vhttp://www.digitalpast.org/u?/mountpro001,833
p1761
sa(dp1762
Vlinktype
p1763
Vthumbnail
p1764
sVtype
p1765
Vurl
p1766
sVvalue
p1767
Vhttp://www.digitalpast.org/cgi-bin/thumbnail.exe?CISOROOT=/mountpro001&CISOPTR=833
p1768
sasVtype
p1769
(lp1770
VUnpublished
p1771
asVid
p1772
V16241245
p1773
sa(dp1774
Vtitle
p1775
VTelephone Directory, June 1937;  Classified Page 13 Hai-Liv
p1776
sVurl
p1777
V/work/16241247
p1778
sVtroveUrl
p1779
Vhttp://trove.nla.gov.au/work/16241247
p1780
sVversionCount
p1781
I1
sVholdingsCount
p1782
I0
sVrelevance
p1783
(dp1784
Vscore
p1785
V1.0
p1786
sVvalue
p1787
Vlikely to be relevant
p1788
ssVissued
p1789
V1937-2008
p1790
sVcontributor
p1791
(lp1792
VIllinois Bell Telephone Company
p1793
asVidentifier
p1794
(lp1795
(dp1796
Vlinktype
p1797
Vfulltext
p1798
sVtype
p1799
Vurl
p1800
sVvalue
p1801
Vhttp://www.digitalpast.org/u?/mountpro001,834
p1802
sa(dp1803
Vlinktype
p1804
Vthumbnail
p1805
sVtype
p1806
Vurl
p1807
sVvalue
p1808
Vhttp://www.digitalpast.org/cgi-bin/thumbnail.exe?CISOROOT=/mountpro001&CISOPTR=834
p1809
sasVtype
p1810
(lp1811
VUnpublished
p1812
asVid
p1813
V16241247
p1814
sa(dp1815
Vtitle
p1816
VTelephone Directory, June 1937;  Classified Page 16 Mov-Oil
p1817
sVurl
p1818
V/work/16241255
p1819
sVtroveUrl
p1820
Vhttp://trove.nla.gov.au/work/16241255
p1821
sVversionCount
p1822
I1
sVholdingsCount
p1823
I0
sVrelevance
p1824
(dp1825
Vscore
p1826
V1.0
p1827
sVvalue
p1828
Vlikely to be relevant
p1829
ssVissued
p1830
V1937-2008
p1831
sVcontributor
p1832
(lp1833
VIllinois Bell Telephone Company
p1834
asVidentifier
p1835
(lp1836
(dp1837
Vlinktype
p1838
Vfulltext
p1839
sVtype
p1840
Vurl
p1841
sVvalue
p1842
Vhttp://www.digitalpast.org/u?/mountpro001,837
p1843
sa(dp1844
Vlinktype
p1845
Vthumbnail
p1846
sVtype
p1847
Vurl
p1848
sVvalue
p1849
Vhttp://www.digitalpast.org/cgi-bin/thumbnail.exe?CISOROOT=/mountpro001&CISOPTR=837
p1850
sasVtype
p1851
(lp1852
VUnpublished
p1853
asVid
p1854
V16241255
p1855
sa(dp1856
Vtitle
p1857
VTelephone Directory, June 1937;  Classified Page 17 Oil-Rai
p1858
sVurl
p1859
V/work/16241261
p1860
sVtroveUrl
p1861
Vhttp://trove.nla.gov.au/work/16241261
p1862
sVversionCount
p1863
I1
sVholdingsCount
p1864
I0
sVrelevance
p1865
(dp1866
Vscore
p1867
V1.0
p1868
sVvalue
p1869
Vlikely to be relevant
p1870
ssVissued
p1871
V1937-2008
p1872
sVcontributor
p1873
(lp1874
VIllinois Bell Telephone Company
p1875
asVidentifier
p1876
(lp1877
(dp1878
Vlinktype
p1879
Vfulltext
p1880
sVtype
p1881
Vurl
p1882
sVvalue
p1883
Vhttp://www.digitalpast.org/u?/mountpro001,838
p1884
sa(dp1885
Vlinktype
p1886
Vthumbnail
p1887
sVtype
p1888
Vurl
p1889
sVvalue
p1890
Vhttp://www.digitalpast.org/cgi-bin/thumbnail.exe?CISOROOT=/mountpro001&CISOPTR=838
p1891
sasVtype
p1892
(lp1893
VUnpublished
p1894
asVid
p1895
V16241261
p1896
sa(dp1897
Vtitle
p1898
VTelephone Directory, June 1937;  Classified Page 19 Ref-Rug
p1899
sVurl
p1900
V/work/16241269
p1901
sVtroveUrl
p1902
Vhttp://trove.nla.gov.au/work/16241269
p1903
sVversionCount
p1904
I1
sVholdingsCount
p1905
I0
sVrelevance
p1906
(dp1907
Vscore
p1908
V1.0
p1909
sVvalue
p1910
Vlikely to be relevant
p1911
ssVissued
p1912
V1937-2008
p1913
sVcontributor
p1914
(lp1915
VIllinois Bell Telephone Company
p1916
asVidentifier
p1917
(lp1918
(dp1919
Vlinktype
p1920
Vfulltext
p1921
sVtype
p1922
Vurl
p1923
sVvalue
p1924
Vhttp://www.digitalpast.org/u?/mountpro001,840
p1925
sa(dp1926
Vlinktype
p1927
Vthumbnail
p1928
sVtype
p1929
Vurl
p1930
sVvalue
p1931
Vhttp://www.digitalpast.org/cgi-bin/thumbnail.exe?CISOROOT=/mountpro001&CISOPTR=840
p1932
sasVtype
p1933
(lp1934
VUnpublished
p1935
asVid
p1936
V16241269
p1937
sa(dp1938
Vtitle
p1939
VTelephone Directory, June 1937;  Classified Page 21 Tel-Tre
p1940
sVurl
p1941
V/work/16241281
p1942
sVtroveUrl
p1943
Vhttp://trove.nla.gov.au/work/16241281
p1944
sVversionCount
p1945
I1
sVholdingsCount
p1946
I0
sVrelevance
p1947
(dp1948
Vscore
p1949
V1.0
p1950
sVvalue
p1951
Vlikely to be relevant
p1952
ssVissued
p1953
V1937-2008
p1954
sVcontributor
p1955
(lp1956
VIllinois Bell Telephone Company
p1957
asVidentifier
p1958
(lp1959
(dp1960
Vlinktype
p1961
Vfulltext
p1962
sVtype
p1963
Vurl
p1964
sVvalue
p1965
Vhttp://www.digitalpast.org/u?/mountpro001,842
p1966
sa(dp1967
Vlinktype
p1968
Vthumbnail
p1969
sVtype
p1970
Vurl
p1971
sVvalue
p1972
Vhttp://www.digitalpast.org/cgi-bin/thumbnail.exe?CISOROOT=/mountpro001&CISOPTR=842
p1973
sasVtype
p1974
(lp1975
VUnpublished
p1976
asVid
p1977
V16241281
p1978
sa(dp1979
Vtitle
p1980
VTelephone Directory, June 1937;  Classified Page 23 Wel-Wom
p1981
sVurl
p1982
V/work/16241291
p1983
sVtroveUrl
p1984
Vhttp://trove.nla.gov.au/work/16241291
p1985
sVversionCount
p1986
I1
sVholdingsCount
p1987
I0
sVrelevance
p1988
(dp1989
Vscore
p1990
V1.0
p1991
sVvalue
p1992
Vlikely to be relevant
p1993
ssVissued
p1994
V1937-2008
p1995
sVcontributor
p1996
(lp1997
VIllinois Bell Telephone Company
p1998
asVidentifier
p1999
(lp2000
(dp2001
Vlinktype
p2002
Vfulltext
p2003
sVtype
p2004
Vurl
p2005
sVvalue
p2006
Vhttp://www.digitalpast.org/u?/mountpro001,844
p2007
sa(dp2008
Vlinktype
p2009
Vthumbnail
p2010
sVtype
p2011
Vurl
p2012
sVvalue
p2013
Vhttp://www.digitalpast.org/cgi-bin/thumbnail.exe?CISOROOT=/mountpro001&CISOPTR=844
p2014
sasVtype
p2015
(lp2016
VUnpublished
p2017
asVid
p2018
V16241291
p2019
sa(dp2020
Vtitle
p2021
VTelephone Directory, June 1937
p2022
sVurl
p2023
V/work/16241295
p2024
sVtroveUrl
p2025
Vhttp://trove.nla.gov.au/work/16241295
p2026
sVversionCount
p2027
I1
sVholdingsCount
p2028
I0
sVrelevance
p2029
(dp2030
Vscore
p2031
V1.0
p2032
sVvalue
p2033
Vlikely to be relevant
p2034
ssVissued
p2035
I2008
sVcontributor
p2036
(lp2037
VIllinois Bell Telephone Company
p2038
asVidentifier
p2039
(lp2040
(dp2041
Vlinktype
p2042
Vfulltext
p2043
sVtype
p2044
Vurl
p2045
sVvalue
p2046
Vhttp://www.digitalpast.org/u?/mountpro001,848
p2047
sa(dp2048
Vlinktype
p2049
Vthumbnail
p2050
sVtype
p2051
Vurl
p2052
sVvalue
p2053
Vhttp://www.digitalpast.org/cgi-bin/thumbnail.exe?CISOROOT=/mountpro001&CISOPTR=848
p2054
sasVtype
p2055
(lp2056
VUnpublished
p2057
asVid
p2058
V16241295
p2059
sa(dp2060
Vtitle
p2061
VTelephone Directory, June 1937;  Classified Page 10 Dai-Dru
p2062
sVurl
p2063
V/work/16241240
p2064
sVtroveUrl
p2065
Vhttp://trove.nla.gov.au/work/16241240
p2066
sVversionCount
p2067
I1
sVholdingsCount
p2068
I0
sVrelevance
p2069
(dp2070
Vscore
p2071
V1.0
p2072
sVvalue
p2073
Vlikely to be relevant
p2074
ssVissued
p2075
V1937-2008
p2076
sVcontributor
p2077
(lp2078
VIllinois Bell Telephone Company
p2079
asVidentifier
p2080
(lp2081
(dp2082
Vlinktype
p2083
Vfulltext
p2084
sVtype
p2085
Vurl
p2086
sVvalue
p2087
Vhttp://www.digitalpast.org/u?/mountpro001,831
p2088
sa(dp2089
Vlinktype
p2090
Vthumbnail
p2091
sVtype
p2092
Vurl
p2093
sVvalue
p2094
Vhttp://www.digitalpast.org/cgi-bin/thumbnail.exe?CISOROOT=/mountpro001&CISOPTR=831
p2095
sasVtype
p2096
(lp2097
VUnpublished
p2098
asVid
p2099
V16241240
p2100
sa(dp2101
Vtitle
p2102
VTelephone Directory, June 1937;  Classified Page 14 Loa-Mea
p2103
sVurl
p2104
V/work/16241250
p2105
sVtroveUrl
p2106
Vhttp://trove.nla.gov.au/work/16241250
p2107
sVversionCount
p2108
I1
sVholdingsCount
p2109
I0
sVrelevance
p2110
(dp2111
Vscore
p2112
V1.0
p2113
sVvalue
p2114
Vlikely to be relevant
p2115
ssVissued
p2116
V1937-2008
p2117
sVcontributor
p2118
(lp2119
VIllinois Bell Telephone Company
p2120
asVidentifier
p2121
(lp2122
(dp2123
Vlinktype
p2124
Vfulltext
p2125
sVtype
p2126
Vurl
p2127
sVvalue
p2128
Vhttp://www.digitalpast.org/u?/mountpro001,835
p2129
sa(dp2130
Vlinktype
p2131
Vthumbnail
p2132
sVtype
p2133
Vurl
p2134
sVvalue
p2135
Vhttp://www.digitalpast.org/cgi-bin/thumbnail.exe?CISOROOT=/mountpro001&CISOPTR=835
p2136
sasVtype
p2137
(lp2138
VUnpublished
p2139
asVid
p2140
V16241250
p2141
sa(dp2142
Vtitle
p2143
VTelephone Directory, June 1937;  Classified Page 15 Mil-Mon
p2144
sVurl
p2145
V/work/16241254
p2146
sVtroveUrl
p2147
Vhttp://trove.nla.gov.au/work/16241254
p2148
sVversionCount
p2149
I1
sVholdingsCount
p2150
I0
sVrelevance
p2151
(dp2152
Vscore
p2153
V1.0
p2154
sVvalue
p2155
Vlikely to be relevant
p2156
ssVissued
p2157
V1937-2008
p2158
sVcontributor
p2159
(lp2160
VIllinois Bell Telephone Company
p2161
asVidentifier
p2162
(lp2163
(dp2164
Vlinktype
p2165
Vfulltext
p2166
sVtype
p2167
Vurl
p2168
sVvalue
p2169
Vhttp://www.digitalpast.org/u?/mountpro001,836
p2170
sa(dp2171
Vlinktype
p2172
Vthumbnail
p2173
sVtype
p2174
Vurl
p2175
sVvalue
p2176
Vhttp://www.digitalpast.org/cgi-bin/thumbnail.exe?CISOROOT=/mountpro001&CISOPTR=836
p2177
sasVtype
p2178
(lp2179
VUnpublished
p2180
asVid
p2181
V16241254
p2182
sa(dp2183
Vtitle
p2184
VTelephone Directory, June 1937;  Classified Page 18 Rea-Ref
p2185
sVurl
p2186
V/work/16241264
p2187
sVtroveUrl
p2188
Vhttp://trove.nla.gov.au/work/16241264
p2189
sVversionCount
p2190
I1
sVholdingsCount
p2191
I0
sVrelevance
p2192
(dp2193
Vscore
p2194
V1.0
p2195
sVvalue
p2196
Vlikely to be relevant
p2197
ssVissued
p2198
V1937-2008
p2199
sVcontributor
p2200
(lp2201
VIllinois Bell Telephone Company
p2202
asVidentifier
p2203
(lp2204
(dp2205
Vlinktype
p2206
Vfulltext
p2207
sVtype
p2208
Vurl
p2209
sVvalue
p2210
Vhttp://www.digitalpast.org/u?/mountpro001,839
p2211
sa(dp2212
Vlinktype
p2213
Vthumbnail
p2214
sVtype
p2215
Vurl
p2216
sVvalue
p2217
Vhttp://www.digitalpast.org/cgi-bin/thumbnail.exe?CISOROOT=/mountpro001&CISOPTR=839
p2218
sasVtype
p2219
(lp2220
VUnpublished
p2221
asVid
p2222
V16241264
p2223
sa(dp2224
Vtitle
p2225
VTelephone Directory, June 1937;  Classified Page 20 Sch-Tax
p2226
sVurl
p2227
V/work/16241272
p2228
sVtroveUrl
p2229
Vhttp://trove.nla.gov.au/work/16241272
p2230
sVversionCount
p2231
I1
sVholdingsCount
p2232
I0
sVrelevance
p2233
(dp2234
Vscore
p2235
V1.0
p2236
sVvalue
p2237
Vlikely to be relevant
p2238
ssVissued
p2239
V1937-2008
p2240
sVcontributor
p2241
(lp2242
VIllinois Bell Telephone Company
p2243
asVidentifier
p2244
(lp2245
(dp2246
Vlinktype
p2247
Vfulltext
p2248
sVtype
p2249
Vurl
p2250
sVvalue
p2251
Vhttp://www.digitalpast.org/u?/mountpro001,841
p2252
sa(dp2253
Vlinktype
p2254
Vthumbnail
p2255
sVtype
p2256
Vurl
p2257
sVvalue
p2258
Vhttp://www.digitalpast.org/cgi-bin/thumbnail.exe?CISOROOT=/mountpro001&CISOPTR=841
p2259
sasVtype
p2260
(lp2261
VUnpublished
p2262
asVid
p2263
V16241272
p2264
sa(dp2265
Vtitle
p2266
VTelephone Directory, June 1937;  Classified Page 22 Und-Wel
p2267
sVurl
p2268
V/work/16241286
p2269
sVtroveUrl
p2270
Vhttp://trove.nla.gov.au/work/16241286
p2271
sVversionCount
p2272
I1
sVholdingsCount
p2273
I0
sVrelevance
p2274
(dp2275
Vscore
p2276
V1.0
p2277
sVvalue
p2278
Vlikely to be relevant
p2279
ssVissued
p2280
V1937-2008
p2281
sVcontributor
p2282
(lp2283
VIllinois Bell Telephone Company
p2284
asVidentifier
p2285
(lp2286
(dp2287
Vlinktype
p2288
Vfulltext
p2289
sVtype
p2290
Vurl
p2291
sVvalue
p2292
Vhttp://www.digitalpast.org/u?/mountpro001,843
p2293
sa(dp2294
Vlinktype
p2295
Vthumbnail
p2296
sVtype
p2297
Vurl
p2298
sVvalue
p2299
Vhttp://www.digitalpast.org/cgi-bin/thumbnail.exe?CISOROOT=/mountpro001&CISOPTR=843
p2300
sasVtype
p2301
(lp2302
VUnpublished
p2303
asVid
p2304
V16241286
p2305
sa(dp2306
Vtitle
p2307
VTelephone Directory, December 1937;  Page 04 A & P-Bainbridge
p2308
sVurl
p2309
V/work/16241298
p2310
sVtroveUrl
p2311
Vhttp://trove.nla.gov.au/work/16241298
p2312
sVversionCount
p2313
I1
sVholdingsCount
p2314
I0
sVrelevance
p2315
(dp2316
Vscore
p2317
V1.0
p2318
sVvalue
p2319
Vlikely to be relevant
p2320
ssVissued
p2321
V1937-2008
p2322
sVcontributor
p2323
(lp2324
VIllinois Bell Telephone Company
p2325
asVidentifier
p2326
(lp2327
(dp2328
Vlinktype
p2329
Vfulltext
p2330
sVtype
p2331
Vurl
p2332
sVvalue
p2333
Vhttp://www.digitalpast.org/u?/mountpro001,854
p2334
sa(dp2335
Vlinktype
p2336
Vthumbnail
p2337
sVtype
p2338
Vurl
p2339
sVvalue
p2340
Vhttp://www.digitalpast.org/cgi-bin/thumbnail.exe?CISOROOT=/mountpro001&CISOPTR=854
p2341
sasVtype
p2342
(lp2343
VUnpublished
p2344
asVid
p2345
V16241298
p2346
sa(dp2347
Vtitle
p2348
VTelephone Directory, December 1937;  Page 05 Baker-Brehm
p2349
sVurl
p2350
V/work/16241302
p2351
sVtroveUrl
p2352
Vhttp://trove.nla.gov.au/work/16241302
p2353
sVversionCount
p2354
I1
sVholdingsCount
p2355
I0
sVrelevance
p2356
(dp2357
Vscore
p2358
V1.0
p2359
sVvalue
p2360
Vlikely to be relevant
p2361
ssVissued
p2362
V1937-2008
p2363
sVcontributor
p2364
(lp2365
VIllinois Bell Telephone Company
p2366
asVidentifier
p2367
(lp2368
(dp2369
Vlinktype
p2370
Vfulltext
p2371
sVtype
p2372
Vurl
p2373
sVvalue
p2374
Vhttp://www.digitalpast.org/u?/mountpro001,855
p2375
sa(dp2376
Vlinktype
p2377
Vthumbnail
p2378
sVtype
p2379
Vurl
p2380
sVvalue
p2381
Vhttp://www.digitalpast.org/cgi-bin/thumbnail.exe?CISOROOT=/mountpro001&CISOPTR=855
p2382
sasVtype
p2383
(lp2384
VUnpublished
p2385
asVid
p2386
V16241302
p2387
sa(dp2388
Vtitle
p2389
VTelephone Directory, December 1937;  Page 07 Cosman-Engelking
p2390
sVurl
p2391
V/work/16241312
p2392
sVtroveUrl
p2393
Vhttp://trove.nla.gov.au/work/16241312
p2394
sVversionCount
p2395
I1
sVholdingsCount
p2396
I0
sVrelevance
p2397
(dp2398
Vscore
p2399
V1.0
p2400
sVvalue
p2401
Vlikely to be relevant
p2402
ssVissued
p2403
V1937-2008
p2404
sVcontributor
p2405
(lp2406
VIllinois Bell Telephone Company
p2407
asVidentifier
p2408
(lp2409
(dp2410
Vlinktype
p2411
Vfulltext
p2412
sVtype
p2413
Vurl
p2414
sVvalue
p2415
Vhttp://www.digitalpast.org/u?/mountpro001,857
p2416
sa(dp2417
Vlinktype
p2418
Vthumbnail
p2419
sVtype
p2420
Vurl
p2421
sVvalue
p2422
Vhttp://www.digitalpast.org/cgi-bin/thumbnail.exe?CISOROOT=/mountpro001&CISOPTR=857
p2423
sasVtype
p2424
(lp2425
VUnpublished
p2426
asVid
p2427
V16241312
p2428
sa(dp2429
Vtitle
p2430
VTelephone Directory, December 1937;  Page 09 Gieske-Heimsoth
p2431
sVurl
p2432
V/work/16241318
p2433
sVtroveUrl
p2434
Vhttp://trove.nla.gov.au/work/16241318
p2435
sVversionCount
p2436
I1
sVholdingsCount
p2437
I0
sVrelevance
p2438
(dp2439
Vscore
p2440
V1.0
p2441
sVvalue
p2442
Vlikely to be relevant
p2443
ssVissued
p2444
V1937-2008
p2445
sVcontributor
p2446
(lp2447
VIllinois Bell Telephone Company
p2448
asVidentifier
p2449
(lp2450
(dp2451
Vlinktype
p2452
Vfulltext
p2453
sVtype
p2454
Vurl
p2455
sVvalue
p2456
Vhttp://www.digitalpast.org/u?/mountpro001,859
p2457
sa(dp2458
Vlinktype
p2459
Vthumbnail
p2460
sVtype
p2461
Vurl
p2462
sVvalue
p2463
Vhttp://www.digitalpast.org/cgi-bin/thumbnail.exe?CISOROOT=/mountpro001&CISOPTR=859
p2464
sasVtype
p2465
(lp2466
VUnpublished
p2467
asVid
p2468
V16241318
p2469
sa(dp2470
Vtitle
p2471
VTelephone Directory, December 1937;  Page 10 Heimsoth-Irvine
p2472
sVurl
p2473
V/work/16241322
p2474
sVtroveUrl
p2475
Vhttp://trove.nla.gov.au/work/16241322
p2476
sVversionCount
p2477
I1
sVholdingsCount
p2478
I0
sVrelevance
p2479
(dp2480
Vscore
p2481
V1.0
p2482
sVvalue
p2483
Vlikely to be relevant
p2484
ssVissued
p2485
V1937-2008
p2486
sVcontributor
p2487
(lp2488
VIllinois Bell Telephone Company
p2489
asVidentifier
p2490
(lp2491
(dp2492
Vlinktype
p2493
Vfulltext
p2494
sVtype
p2495
Vurl
p2496
sVvalue
p2497
Vhttp://www.digitalpast.org/u?/mountpro001,860
p2498
sa(dp2499
Vlinktype
p2500
Vthumbnail
p2501
sVtype
p2502
Vurl
p2503
sVvalue
p2504
Vhttp://www.digitalpast.org/cgi-bin/thumbnail.exe?CISOROOT=/mountpro001&CISOPTR=860
p2505
sasVtype
p2506
(lp2507
VUnpublished
p2508
asVid
p2509
V16241322
p2510
sa(dp2511
Vtitle
p2512
VTelephone Directory, December 1937;  Page 14 Moellenkamp-Orth
p2513
sVurl
p2514
V/work/16241332
p2515
sVtroveUrl
p2516
Vhttp://trove.nla.gov.au/work/16241332
p2517
sVversionCount
p2518
I1
sVholdingsCount
p2519
I0
sVrelevance
p2520
(dp2521
Vscore
p2522
V1.0
p2523
sVvalue
p2524
Vlikely to be relevant
p2525
ssVissued
p2526
V1937-2008
p2527
sVcontributor
p2528
(lp2529
VIllinois Bell Telephone Company
p2530
asVidentifier
p2531
(lp2532
(dp2533
Vlinktype
p2534
Vfulltext
p2535
sVtype
p2536
Vurl
p2537
sVvalue
p2538
Vhttp://www.digitalpast.org/u?/mountpro001,864
p2539
sa(dp2540
Vlinktype
p2541
Vthumbnail
p2542
sVtype
p2543
Vurl
p2544
sVvalue
p2545
Vhttp://www.digitalpast.org/cgi-bin/thumbnail.exe?CISOROOT=/mountpro001&CISOPTR=864
p2546
sasVtype
p2547
(lp2548
VUnpublished
p2549
asVid
p2550
V16241332
p2551
sa(dp2552
Vtitle
p2553
VTelephone Directory, December 1937;  Page 15 Orth-Prout
p2554
sVurl
p2555
V/work/16241336
p2556
sVtroveUrl
p2557
Vhttp://trove.nla.gov.au/work/16241336
p2558
sVversionCount
p2559
I1
sVholdingsCount
p2560
I0
sVrelevance
p2561
(dp2562
Vscore
p2563
V1.0
p2564
sVvalue
p2565
Vlikely to be relevant
p2566
ssVissued
p2567
V1937-2008
p2568
sVcontributor
p2569
(lp2570
VIllinois Bell Telephone Company
p2571
asVidentifier
p2572
(lp2573
(dp2574
Vlinktype
p2575
Vfulltext
p2576
sVtype
p2577
Vurl
p2578
sVvalue
p2579
Vhttp://www.digitalpast.org/u?/mountpro001,865
p2580
sa(dp2581
Vlinktype
p2582
Vthumbnail
p2583
sVtype
p2584
Vurl
p2585
sVvalue
p2586
Vhttp://www.digitalpast.org/cgi-bin/thumbnail.exe?CISOROOT=/mountpro001&CISOPTR=865
p2587
sasVtype
p2588
(lp2589
VUnpublished
p2590
asVid
p2591
V16241336
p2592
sa(dp2593
Vtitle
p2594
VTelephone Directory, December 1937;  Page 16 Public-St John
p2595
sVurl
p2596
V/work/16241340
p2597
sVtroveUrl
p2598
Vhttp://trove.nla.gov.au/work/16241340
p2599
sVversionCount
p2600
I1
sVholdingsCount
p2601
I0
sVrelevance
p2602
(dp2603
Vscore
p2604
V1.0
p2605
sVvalue
p2606
Vlikely to be relevant
p2607
ssVissued
p2608
V1937-2008
p2609
sVcontributor
p2610
(lp2611
VIllinois Bell Telephone Company
p2612
asVidentifier
p2613
(lp2614
(dp2615
Vlinktype
p2616
Vfulltext
p2617
sVtype
p2618
Vurl
p2619
sVvalue
p2620
Vhttp://www.digitalpast.org/u?/mountpro001,866
p2621
sa(dp2622
Vlinktype
p2623
Vthumbnail
p2624
sVtype
p2625
Vurl
p2626
sVvalue
p2627
Vhttp://www.digitalpast.org/cgi-bin/thumbnail.exe?CISOROOT=/mountpro001&CISOPTR=866
p2628
sasVtype
p2629
(lp2630
VUnpublished
p2631
asVid
p2632
V16241340
p2633
sa(dp2634
Vtitle
p2635
VTelephone Directory, December 1937;  Page 17 Salvo-Seiltz
p2636
sVurl
p2637
V/work/16241342
p2638
sVtroveUrl
p2639
Vhttp://trove.nla.gov.au/work/16241342
p2640
sVversionCount
p2641
I1
sVholdingsCount
p2642
I0
sVrelevance
p2643
(dp2644
Vscore
p2645
V1.0
p2646
sVvalue
p2647
Vlikely to be relevant
p2648
ssVissued
p2649
V1937-2008
p2650
sVcontributor
p2651
(lp2652
VIllinois Bell Telephone Company
p2653
asVidentifier
p2654
(lp2655
(dp2656
Vlinktype
p2657
Vfulltext
p2658
sVtype
p2659
Vurl
p2660
sVvalue
p2661
Vhttp://www.digitalpast.org/u?/mountpro001,867
p2662
sa(dp2663
Vlinktype
p2664
Vthumbnail
p2665
sVtype
p2666
Vurl
p2667
sVvalue
p2668
Vhttp://www.digitalpast.org/cgi-bin/thumbnail.exe?CISOROOT=/mountpro001&CISOPTR=867
p2669
sasVtype
p2670
(lp2671
VUnpublished
p2672
asVid
p2673
V16241342
p2674
sa(dp2675
Vtitle
p2676
VTelephone Directory, December 1937;  Page 18 Seip-Thorson
p2677
sVurl
p2678
V/work/16241346
p2679
sVtroveUrl
p2680
Vhttp://trove.nla.gov.au/work/16241346
p2681
sVversionCount
p2682
I1
sVholdingsCount
p2683
I0
sVrelevance
p2684
(dp2685
Vscore
p2686
V1.0
p2687
sVvalue
p2688
Vlikely to be relevant
p2689
ssVissued
p2690
V1937-2008
p2691
sVcontributor
p2692
(lp2693
VIllinois Bell Telephone Company
p2694
asVidentifier
p2695
(lp2696
(dp2697
Vlinktype
p2698
Vfulltext
p2699
sVtype
p2700
Vurl
p2701
sVvalue
p2702
Vhttp://www.digitalpast.org/u?/mountpro001,868
p2703
sa(dp2704
Vlinktype
p2705
Vthumbnail
p2706
sVtype
p2707
Vurl
p2708
sVvalue
p2709
Vhttp://www.digitalpast.org/cgi-bin/thumbnail.exe?CISOROOT=/mountpro001&CISOPTR=868
p2710
sasVtype
p2711
(lp2712
VUnpublished
p2713
asVid
p2714
V16241346
p2715
sa(dp2716
Vtitle
p2717
VTelephone Directory, December 1937; Classified Page 03 Agr-Aut
p2718
sVurl
p2719
V/work/16241354
p2720
sVtroveUrl
p2721
Vhttp://trove.nla.gov.au/work/16241354
p2722
sVversionCount
p2723
I1
sVholdingsCount
p2724
I0
sVrelevance
p2725
(dp2726
Vscore
p2727
V1.0
p2728
sVvalue
p2729
Vlikely to be relevant
p2730
ssVissued
p2731
V1937-2008
p2732
sVcontributor
p2733
(lp2734
VIllinois Bell Telephone Company
p2735
asVidentifier
p2736
(lp2737
(dp2738
Vlinktype
p2739
Vfulltext
p2740
sVtype
p2741
Vurl
p2742
sVvalue
p2743
Vhttp://www.digitalpast.org/u?/mountpro001,873
p2744
sa(dp2745
Vlinktype
p2746
Vthumbnail
p2747
sVtype
p2748
Vurl
p2749
sVvalue
p2750
Vhttp://www.digitalpast.org/cgi-bin/thumbnail.exe?CISOROOT=/mountpro001&CISOPTR=873
p2751
sasVtype
p2752
(lp2753
VUnpublished
p2754
asVid
p2755
V16241354
p2756
sa(dp2757
Vtitle
p2758
VTelephone Directory, December 1937; Classified Page 06 Aut-Bea
p2759
sVurl
p2760
V/work/16241364
p2761
sVtroveUrl
p2762
Vhttp://trove.nla.gov.au/work/16241364
p2763
sVversionCount
p2764
I1
sVholdingsCount
p2765
I0
sVrelevance
p2766
(dp2767
Vscore
p2768
V1.0
p2769
sVvalue
p2770
Vlikely to be relevant
p2771
ssVissued
p2772
V1937-2008
p2773
sVcontributor
p2774
(lp2775
VIllinois Bell Telephone Company
p2776
asVidentifier
p2777
(lp2778
(dp2779
Vlinktype
p2780
Vfulltext
p2781
sVtype
p2782
Vurl
p2783
sVvalue
p2784
Vhttp://www.digitalpast.org/u?/mountpro001,876
p2785
sa(dp2786
Vlinktype
p2787
Vthumbnail
p2788
sVtype
p2789
Vurl
p2790
sVvalue
p2791
Vhttp://www.digitalpast.org/cgi-bin/thumbnail.exe?CISOROOT=/mountpro001&CISOPTR=876
p2792
sasVtype
p2793
(lp2794
VUnpublished
p2795
asVid
p2796
V16241364
p2797
sa(dp2798
Vtitle
p2799
VTelephone Directory, December 1937; Classified Page 08 Cem-Coa
p2800
sVurl
p2801
V/work/16241370
p2802
sVtroveUrl
p2803
Vhttp://trove.nla.gov.au/work/16241370
p2804
sVversionCount
p2805
I1
sVholdingsCount
p2806
I0
sVrelevance
p2807
(dp2808
Vscore
p2809
V1.0
p2810
sVvalue
p2811
Vlikely to be relevant
p2812
ssVissued
p2813
V1937-2008
p2814
sVcontributor
p2815
(lp2816
VIllinois Bell Telephone Company
p2817
asVidentifier
p2818
(lp2819
(dp2820
Vlinktype
p2821
Vfulltext
p2822
sVtype
p2823
Vurl
p2824
sVvalue
p2825
Vhttp://www.digitalpast.org/u?/mountpro001,878
p2826
sa(dp2827
Vlinktype
p2828
Vthumbnail
p2829
sVtype
p2830
Vurl
p2831
sVvalue
p2832
Vhttp://www.digitalpast.org/cgi-bin/thumbnail.exe?CISOROOT=/mountpro001&CISOPTR=878
p2833
sasVtype
p2834
(lp2835
VUnpublished
p2836
asVid
p2837
V16241370
p2838
sa(dp2839
Vtitle
p2840
VTelephone Directory, December 1937; Classified Page 09 Cok-Dai
p2841
sVurl
p2842
V/work/16241374
p2843
sVtroveUrl
p2844
Vhttp://trove.nla.gov.au/work/16241374
p2845
sVversionCount
p2846
I1
sVholdingsCount
p2847
I0
sVrelevance
p2848
(dp2849
Vscore
p2850
V1.0
p2851
sVvalue
p2852
Vlikely to be relevant
p2853
ssVissued
p2854
V1937-2008
p2855
sVcontributor
p2856
(lp2857
VIllinois Bell Telephone Company
p2858
asVidentifier
p2859
(lp2860
(dp2861
Vlinktype
p2862
Vfulltext
p2863
sVtype
p2864
Vurl
p2865
sVvalue
p2866
Vhttp://www.digitalpast.org/u?/mountpro001,879
p2867
sa(dp2868
Vlinktype
p2869
Vthumbnail
p2870
sVtype
p2871
Vurl
p2872
sVvalue
p2873
Vhttp://www.digitalpast.org/cgi-bin/thumbnail.exe?CISOROOT=/mountpro001&CISOPTR=879
p2874
sasVtype
p2875
(lp2876
VUnpublished
p2877
asVid
p2878
V16241374
p2879
sa(dp2880
Vtitle
p2881
VTelephone Directory, December 1937; Classified Page 12 Fru-Gra
p2882
sVurl
p2883
V/work/16241384
p2884
sVtroveUrl
p2885
Vhttp://trove.nla.gov.au/work/16241384
p2886
sVversionCount
p2887
I1
sVholdingsCount
p2888
I0
sVrelevance
p2889
(dp2890
Vscore
p2891
V1.0
p2892
sVvalue
p2893
Vlikely to be relevant
p2894
ssVissued
p2895
V1937-2008
p2896
sVcontributor
p2897
(lp2898
VIllinois Bell Telephone Company
p2899
asVidentifier
p2900
(lp2901
(dp2902
Vlinktype
p2903
Vfulltext
p2904
sVtype
p2905
Vurl
p2906
sVvalue
p2907
Vhttp://www.digitalpast.org/u?/mountpro001,882
p2908
sa(dp2909
Vlinktype
p2910
Vthumbnail
p2911
sVtype
p2912
Vurl
p2913
sVvalue
p2914
Vhttp://www.digitalpast.org/cgi-bin/thumbnail.exe?CISOROOT=/mountpro001&CISOPTR=882
p2915
sasVtype
p2916
(lp2917
VUnpublished
p2918
asVid
p2919
V16241384
p2920
sa(dp2921
Vtitle
p2922
VTelephone Directory, December 1937; Classified Page 14 Ice-Loa
p2923
sVurl
p2924
V/work/16241388
p2925
sVtroveUrl
p2926
Vhttp://trove.nla.gov.au/work/16241388
p2927
sVversionCount
p2928
I1
sVholdingsCount
p2929
I0
sVrelevance
p2930
(dp2931
Vscore
p2932
V1.0
p2933
sVvalue
p2934
Vlikely to be relevant
p2935
ssVissued
p2936
V1937-2008
p2937
sVcontributor
p2938
(lp2939
VIllinois Bell Telephone Company
p2940
asVidentifier
p2941
(lp2942
(dp2943
Vlinktype
p2944
Vfulltext
p2945
sVtype
p2946
Vurl
p2947
sVvalue
p2948
Vhttp://www.digitalpast.org/u?/mountpro001,884
p2949
sa(dp2950
Vlinktype
p2951
Vthumbnail
p2952
sVtype
p2953
Vurl
p2954
sVvalue
p2955
Vhttp://www.digitalpast.org/cgi-bin/thumbnail.exe?CISOROOT=/mountpro001&CISOPTR=884
p2956
sasVtype
p2957
(lp2958
VUnpublished
p2959
asVid
p2960
V16241388
p2961
sa(dp2962
Vtitle
p2963
VTelephone Directory, December 1937;  Page 06 Briggs-Cordulack
p2964
sVurl
p2965
V/work/16241305
p2966
sVtroveUrl
p2967
Vhttp://trove.nla.gov.au/work/16241305
p2968
sVversionCount
p2969
I1
sVholdingsCount
p2970
I0
sVrelevance
p2971
(dp2972
Vscore
p2973
V1.0
p2974
sVvalue
p2975
Vlikely to be relevant
p2976
ssVissued
p2977
V1937-2008
p2978
sVcontributor
p2979
(lp2980
VIllinois Bell Telephone Company
p2981
asVidentifier
p2982
(lp2983
(dp2984
Vlinktype
p2985
Vfulltext
p2986
sVtype
p2987
Vurl
p2988
sVvalue
p2989
Vhttp://www.digitalpast.org/u?/mountpro001,856
p2990
sa(dp2991
Vlinktype
p2992
Vthumbnail
p2993
sVtype
p2994
Vurl
p2995
sVvalue
p2996
Vhttp://www.digitalpast.org/cgi-bin/thumbnail.exe?CISOROOT=/mountpro001&CISOPTR=856
p2997
sasVtype
p2998
(lp2999
VUnpublished
p3000
asVid
p3001
V16241305
p3002
sa(dp3003
Vtitle
p3004
VTelephone Directory, December 1937;  Page 08 Engelking-Gieske
p3005
sVurl
p3006
V/work/16241317
p3007
sVtroveUrl
p3008
Vhttp://trove.nla.gov.au/work/16241317
p3009
sVversionCount
p3010
I1
sVholdingsCount
p3011
I0
sVrelevance
p3012
(dp3013
Vscore
p3014
V1.0
p3015
sVvalue
p3016
Vlikely to be relevant
p3017
ssVissued
p3018
V1937-2008
p3019
sVcontributor
p3020
(lp3021
VIllinois Bell Telephone Company
p3022
asVidentifier
p3023
(lp3024
(dp3025
Vlinktype
p3026
Vfulltext
p3027
sVtype
p3028
Vurl
p3029
sVvalue
p3030
Vhttp://www.digitalpast.org/u?/mountpro001,858
p3031
sa(dp3032
Vlinktype
p3033
Vthumbnail
p3034
sVtype
p3035
Vurl
p3036
sVvalue
p3037
Vhttp://www.digitalpast.org/cgi-bin/thumbnail.exe?CISOROOT=/mountpro001&CISOPTR=858
p3038
sasVtype
p3039
(lp3040
VUnpublished
p3041
asVid
p3042
V16241317
p3043
sa(dp3044
Vtitle
p3045
VTelephone Directory, December 1937;  Page 11 Israel-Krause
p3046
sVurl
p3047
V/work/16241325
p3048
sVtroveUrl
p3049
Vhttp://trove.nla.gov.au/work/16241325
p3050
sVversionCount
p3051
I1
sVholdingsCount
p3052
I0
sVrelevance
p3053
(dp3054
Vscore
p3055
V1.0
p3056
sVvalue
p3057
Vlikely to be relevant
p3058
ssVissued
p3059
V1937-2008
p3060
sVcontributor
p3061
(lp3062
VIllinois Bell Telephone Company
p3063
asVidentifier
p3064
(lp3065
(dp3066
Vlinktype
p3067
Vfulltext
p3068
sVtype
p3069
Vurl
p3070
sVvalue
p3071
Vhttp://www.digitalpast.org/u?/mountpro001,861
p3072
sa(dp3073
Vlinktype
p3074
Vthumbnail
p3075
sVtype
p3076
Vurl
p3077
sVvalue
p3078
Vhttp://www.digitalpast.org/cgi-bin/thumbnail.exe?CISOROOT=/mountpro001&CISOPTR=861
p3079
sasVtype
p3080
(lp3081
VUnpublished
p3082
asVid
p3083
V16241325
p3084
sa(dp3085
Vtitle
p3086
VTelephone Directory, December 1937;  Page 12 Krause-Lynn
p3087
sVurl
p3088
V/work/16241327
p3089
sVtroveUrl
p3090
Vhttp://trove.nla.gov.au/work/16241327
p3091
sVversionCount
p3092
I1
sVholdingsCount
p3093
I0
sVrelevance
p3094
(dp3095
Vscore
p3096
V1.0
p3097
sVvalue
p3098
Vlikely to be relevant
p3099
ssVissued
p3100
V1937-2008
p3101
sVcontributor
p3102
(lp3103
VIllinois Bell Telephone Company
p3104
asVidentifier
p3105
(lp3106
(dp3107
Vlinktype
p3108
Vfulltext
p3109
sVtype
p3110
Vurl
p3111
sVvalue
p3112
Vhttp://www.digitalpast.org/u?/mountpro001,862
p3113
sa(dp3114
Vlinktype
p3115
Vthumbnail
p3116
sVtype
p3117
Vurl
p3118
sVvalue
p3119
Vhttp://www.digitalpast.org/cgi-bin/thumbnail.exe?CISOROOT=/mountpro001&CISOPTR=862
p3120
sasVtype
p3121
(lp3122
VUnpublished
p3123
asVid
p3124
V16241327
p3125
sa(dp3126
Vtitle
p3127
VTelephone Directory, December 1937;  Page 13 Madison-Moehling
p3128
sVurl
p3129
V/work/16241329
p3130
sVtroveUrl
p3131
Vhttp://trove.nla.gov.au/work/16241329
p3132
sVversionCount
p3133
I1
sVholdingsCount
p3134
I0
sVrelevance
p3135
(dp3136
Vscore
p3137
V1.0
p3138
sVvalue
p3139
Vlikely to be relevant
p3140
ssVissued
p3141
V1937-2008
p3142
sVcontributor
p3143
(lp3144
VIllinois Bell Telephone Company
p3145
asVidentifier
p3146
(lp3147
(dp3148
Vlinktype
p3149
Vfulltext
p3150
sVtype
p3151
Vurl
p3152
sVvalue
p3153
Vhttp://www.digitalpast.org/u?/mountpro001,863
p3154
sa(dp3155
Vlinktype
p3156
Vthumbnail
p3157
sVtype
p3158
Vurl
p3159
sVvalue
p3160
Vhttp://www.digitalpast.org/cgi-bin/thumbnail.exe?CISOROOT=/mountpro001&CISOPTR=863
p3161
sasVtype
p3162
(lp3163
VUnpublished
p3164
asVid
p3165
V16241329
p3166
sa(dp3167
Vtitle
p3168
VTelephone Directory, December 1937;  Page 19 Tibbits-Weiss
p3169
sVurl
p3170
V/work/16241349
p3171
sVtroveUrl
p3172
Vhttp://trove.nla.gov.au/work/16241349
p3173
sVversionCount
p3174
I1
sVholdingsCount
p3175
I0
sVrelevance
p3176
(dp3177
Vscore
p3178
V1.0
p3179
sVvalue
p3180
Vlikely to be relevant
p3181
ssVissued
p3182
V1937-2008
p3183
sVcontributor
p3184
(lp3185
VIllinois Bell Telephone Company
p3186
asVidentifier
p3187
(lp3188
(dp3189
Vlinktype
p3190
Vfulltext
p3191
sVtype
p3192
Vurl
p3193
sVvalue
p3194
Vhttp://www.digitalpast.org/u?/mountpro001,869
p3195
sa(dp3196
Vlinktype
p3197
Vthumbnail
p3198
sVtype
p3199
Vurl
p3200
sVvalue
p3201
Vhttp://www.digitalpast.org/cgi-bin/thumbnail.exe?CISOROOT=/mountpro001&CISOPTR=869
p3202
sasVtype
p3203
(lp3204
VUnpublished
p3205
asVid
p3206
V16241349
p3207
sa(dp3208
Vtitle
p3209
VTelephone Directory, December 1937;  Page 20 Weiszmann-Zyc
p3210
sVurl
p3211
V/work/16241351
p3212
sVtroveUrl
p3213
Vhttp://trove.nla.gov.au/work/16241351
p3214
sVversionCount
p3215
I1
sVholdingsCount
p3216
I0
sVrelevance
p3217
(dp3218
Vscore
p3219
V1.0
p3220
sVvalue
p3221
Vlikely to be relevant
p3222
ssVissued
p3223
V1937-2008
p3224
sVcontributor
p3225
(lp3226
VIllinois Bell Telephone Company
p3227
asVidentifier
p3228
(lp3229
(dp3230
Vlinktype
p3231
Vfulltext
p3232
sVtype
p3233
Vurl
p3234
sVvalue
p3235
Vhttp://www.digitalpast.org/u?/mountpro001,870
p3236
sa(dp3237
Vlinktype
p3238
Vthumbnail
p3239
sVtype
p3240
Vurl
p3241
sVvalue
p3242
Vhttp://www.digitalpast.org/cgi-bin/thumbnail.exe?CISOROOT=/mountpro001&CISOPTR=870
p3243
sasVtype
p3244
(lp3245
VUnpublished
p3246
asVid
p3247
V16241351
p3248
sa(dp3249
Vtitle
p3250
VTelephone Directory, December 1937; Classified Page 04 Aut-Aut
p3251
sVurl
p3252
V/work/16241355
p3253
sVtroveUrl
p3254
Vhttp://trove.nla.gov.au/work/16241355
p3255
sVversionCount
p3256
I1
sVholdingsCount
p3257
I0
sVrelevance
p3258
(dp3259
Vscore
p3260
V1.0
p3261
sVvalue
p3262
Vlikely to be relevant
p3263
ssVissued
p3264
V1937-2008
p3265
sVcontributor
p3266
(lp3267
VIllinois Bell Telephone Company
p3268
asVidentifier
p3269
(lp3270
(dp3271
Vlinktype
p3272
Vfulltext
p3273
sVtype
p3274
Vurl
p3275
sVvalue
p3276
Vhttp://www.digitalpast.org/u?/mountpro001,874
p3277
sa(dp3278
Vlinktype
p3279
Vthumbnail
p3280
sVtype
p3281
Vurl
p3282
sVvalue
p3283
Vhttp://www.digitalpast.org/cgi-bin/thumbnail.exe?CISOROOT=/mountpro001&CISOPTR=874
p3284
sasVtype
p3285
(lp3286
VUnpublished
p3287
asVid
p3288
V16241355
p3289
sa(dp3290
Vtitle
p3291
VTelephone Directory, December 1937; Classified Page 05 Aut-Aut
p3292
sVurl
p3293
V/work/16241359
p3294
sVtroveUrl
p3295
Vhttp://trove.nla.gov.au/work/16241359
p3296
sVversionCount
p3297
I1
sVholdingsCount
p3298
I0
sVrelevance
p3299
(dp3300
Vscore
p3301
V1.0
p3302
sVvalue
p3303
Vlikely to be relevant
p3304
ssVissued
p3305
V1937-2008
p3306
sVcontributor
p3307
(lp3308
VIllinois Bell Telephone Company
p3309
asVidentifier
p3310
(lp3311
(dp3312
Vlinktype
p3313
Vfulltext
p3314
sVtype
p3315
Vurl
p3316
sVvalue
p3317
Vhttp://www.digitalpast.org/u?/mountpro001,875
p3318
sa(dp3319
Vlinktype
p3320
Vthumbnail
p3321
sVtype
p3322
Vurl
p3323
sVvalue
p3324
Vhttp://www.digitalpast.org/cgi-bin/thumbnail.exe?CISOROOT=/mountpro001&CISOPTR=875
p3325
sasVtype
p3326
(lp3327
VUnpublished
p3328
asVid
p3329
V16241359
p3330
sa(dp3331
Vtitle
p3332
VTelephone Directory, December 1937; Classified Page 07 Bee-Cas
p3333
sVurl
p3334
V/work/16241367
p3335
sVtroveUrl
p3336
Vhttp://trove.nla.gov.au/work/16241367
p3337
sVversionCount
p3338
I1
sVholdingsCount
p3339
I0
sVrelevance
p3340
(dp3341
Vscore
p3342
V1.0
p3343
sVvalue
p3344
Vlikely to be relevant
p3345
ssVissued
p3346
V1937-2008
p3347
sVcontributor
p3348
(lp3349
VIllinois Bell Telephone Company
p3350
asVidentifier
p3351
(lp3352
(dp3353
Vlinktype
p3354
Vfulltext
p3355
sVtype
p3356
Vurl
p3357
sVvalue
p3358
Vhttp://www.digitalpast.org/u?/mountpro001,877
p3359
sa(dp3360
Vlinktype
p3361
Vthumbnail
p3362
sVtype
p3363
Vurl
p3364
sVvalue
p3365
Vhttp://www.digitalpast.org/cgi-bin/thumbnail.exe?CISOROOT=/mountpro001&CISOPTR=877
p3366
sasVtype
p3367
(lp3368
VUnpublished
p3369
asVid
p3370
V16241367
p3371
sa(dp3372
Vtitle
p3373
VTelephone Directory, December 1937; Classified Page 10 Dai-Dre
p3374
sVurl
p3375
V/work/16241377
p3376
sVtroveUrl
p3377
Vhttp://trove.nla.gov.au/work/16241377
p3378
sVversionCount
p3379
I1
sVholdingsCount
p3380
I0
sVrelevance
p3381
(dp3382
Vscore
p3383
V1.0
p3384
sVvalue
p3385
Vlikely to be relevant
p3386
ssVissued
p3387
V1937-2008
p3388
sVcontributor
p3389
(lp3390
VIllinois Bell Telephone Company
p3391
asVidentifier
p3392
(lp3393
(dp3394
Vlinktype
p3395
Vfulltext
p3396
sVtype
p3397
Vurl
p3398
sVvalue
p3399
Vhttp://www.digitalpast.org/u?/mountpro001,880
p3400
sa(dp3401
Vlinktype
p3402
Vthumbnail
p3403
sVtype
p3404
Vurl
p3405
sVvalue
p3406
Vhttp://www.digitalpast.org/cgi-bin/thumbnail.exe?CISOROOT=/mountpro001&CISOPTR=880
p3407
sasVtype
p3408
(lp3409
VUnpublished
p3410
asVid
p3411
V16241377
p3412
sa(dp3413
Vtitle
p3414
VTelephone Directory, December 1937; Classified Page 11 Dri-Fri
p3415
sVurl
p3416
V/work/16241381
p3417
sVtroveUrl
p3418
Vhttp://trove.nla.gov.au/work/16241381
p3419
sVversionCount
p3420
I1
sVholdingsCount
p3421
I0
sVrelevance
p3422
(dp3423
Vscore
p3424
V1.0
p3425
sVvalue
p3426
Vlikely to be relevant
p3427
ssVissued
p3428
V1937-2008
p3429
sVcontributor
p3430
(lp3431
VIllinois Bell Telephone Company
p3432
asVidentifier
p3433
(lp3434
(dp3435
Vlinktype
p3436
Vfulltext
p3437
sVtype
p3438
Vurl
p3439
sVvalue
p3440
Vhttp://www.digitalpast.org/u?/mountpro001,881
p3441
sa(dp3442
Vlinktype
p3443
Vthumbnail
p3444
sVtype
p3445
Vurl
p3446
sVvalue
p3447
Vhttp://www.digitalpast.org/cgi-bin/thumbnail.exe?CISOROOT=/mountpro001&CISOPTR=881
p3448
sasVtype
p3449
(lp3450
VUnpublished
p3451
asVid
p3452
V16241381
p3453
sa(dp3454
Vtitle
p3455
VTelephone Directory, December 1937; Classified Page 13 Gro-Hot
p3456
sVurl
p3457
V/work/16241387
p3458
sVtroveUrl
p3459
Vhttp://trove.nla.gov.au/work/16241387
p3460
sVversionCount
p3461
I1
sVholdingsCount
p3462
I0
sVrelevance
p3463
(dp3464
Vscore
p3465
V1.0
p3466
sVvalue
p3467
Vlikely to be relevant
p3468
ssVissued
p3469
V1937-2008
p3470
sVcontributor
p3471
(lp3472
VIllinois Bell Telephone Company
p3473
asVidentifier
p3474
(lp3475
(dp3476
Vlinktype
p3477
Vfulltext
p3478
sVtype
p3479
Vurl
p3480
sVvalue
p3481
Vhttp://www.digitalpast.org/u?/mountpro001,883
p3482
sa(dp3483
Vlinktype
p3484
Vthumbnail
p3485
sVtype
p3486
Vurl
p3487
sVvalue
p3488
Vhttp://www.digitalpast.org/cgi-bin/thumbnail.exe?CISOROOT=/mountpro001&CISOPTR=883
p3489
sasVtype
p3490
(lp3491
VUnpublished
p3492
asVid
p3493
V16241387
p3494
sa(dp3495
Vtitle
p3496
VTelephone Directory, December 1937; Classified Page 15 Loa-Mil
p3497
sVurl
p3498
V/work/16241393
p3499
sVtroveUrl
p3500
Vhttp://trove.nla.gov.au/work/16241393
p3501
sVversionCount
p3502
I1
sVholdingsCount
p3503
I0
sVrelevance
p3504
(dp3505
Vscore
p3506
V1.0
p3507
sVvalue
p3508
Vlikely to be relevant
p3509
ssVissued
p3510
V1937-2008
p3511
sVcontributor
p3512
(lp3513
VIllinois Bell Telephone Company
p3514
asVidentifier
p3515
(lp3516
(dp3517
Vlinktype
p3518
Vfulltext
p3519
sVtype
p3520
Vurl
p3521
sVvalue
p3522
Vhttp://www.digitalpast.org/u?/mountpro001,885
p3523
sa(dp3524
Vlinktype
p3525
Vthumbnail
p3526
sVtype
p3527
Vurl
p3528
sVvalue
p3529
Vhttp://www.digitalpast.org/cgi-bin/thumbnail.exe?CISOROOT=/mountpro001&CISOPTR=885
p3530
sasVtype
p3531
(lp3532
VUnpublished
p3533
asVid
p3534
V16241393
p3535
sa(dp3536
Vtitle
p3537
VTelephone Directory, December 1937; Classified Page 18 Rea-Ref
p3538
sVurl
p3539
V/work/16241401
p3540
sVtroveUrl
p3541
Vhttp://trove.nla.gov.au/work/16241401
p3542
sVversionCount
p3543
I1
sVholdingsCount
p3544
I0
sVrelevance
p3545
(dp3546
Vscore
p3547
V1.0
p3548
sVvalue
p3549
Vlikely to be relevant
p3550
ssVissued
p3551
V1937-2008
p3552
sVcontributor
p3553
(lp3554
VIllinois Bell Telephone Company
p3555
asVidentifier
p3556
(lp3557
(dp3558
Vlinktype
p3559
Vfulltext
p3560
sVtype
p3561
Vurl
p3562
sVvalue
p3563
Vhttp://www.digitalpast.org/u?/mountpro001,888
p3564
sa(dp3565
Vlinktype
p3566
Vthumbnail
p3567
sVtype
p3568
Vurl
p3569
sVvalue
p3570
Vhttp://www.digitalpast.org/cgi-bin/thumbnail.exe?CISOROOT=/mountpro001&CISOPTR=888
p3571
sasVtype
p3572
(lp3573
VUnpublished
p3574
asVid
p3575
V16241401
p3576
sa(dp3577
Vtitle
p3578
VTelephone Directory, December 1937; Classified Page 19 Ref-Sch
p3579
sVurl
p3580
V/work/16241405
p3581
sVtroveUrl
p3582
Vhttp://trove.nla.gov.au/work/16241405
p3583
sVversionCount
p3584
I1
sVholdingsCount
p3585
I0
sVrelevance
p3586
(dp3587
Vscore
p3588
V1.0
p3589
sVvalue
p3590
Vlikely to be relevant
p3591
ssVissued
p3592
V1937-2008
p3593
sVcontributor
p3594
(lp3595
VIllinois Bell Telephone Company
p3596
asVidentifier
p3597
(lp3598
(dp3599
Vlinktype
p3600
Vfulltext
p3601
sVtype
p3602
Vurl
p3603
sVvalue
p3604
Vhttp://www.digitalpast.org/u?/mountpro001,889
p3605
sa(dp3606
Vlinktype
p3607
Vthumbnail
p3608
sVtype
p3609
Vurl
p3610
sVvalue
p3611
Vhttp://www.digitalpast.org/cgi-bin/thumbnail.exe?CISOROOT=/mountpro001&CISOPTR=889
p3612
sasVtype
p3613
(lp3614
VUnpublished
p3615
asVid
p3616
V16241405
p3617
sa(dp3618
Vtitle
p3619
VTelephone Directory, December 1937; Classified Page 20 Sho-Tax
p3620
sVurl
p3621
V/work/16241407
p3622
sVtroveUrl
p3623
Vhttp://trove.nla.gov.au/work/16241407
p3624
sVversionCount
p3625
I1
sVholdingsCount
p3626
I0
sVrelevance
p3627
(dp3628
Vscore
p3629
V1.0
p3630
sVvalue
p3631
Vlikely to be relevant
p3632
ssVissued
p3633
V1937-2008
p3634
sVcontributor
p3635
(lp3636
VIllinois Bell Telephone Company
p3637
asVidentifier
p3638
(lp3639
(dp3640
Vlinktype
p3641
Vfulltext
p3642
sVtype
p3643
Vurl
p3644
sVvalue
p3645
Vhttp://www.digitalpast.org/u?/mountpro001,890
p3646
sa(dp3647
Vlinktype
p3648
Vthumbnail
p3649
sVtype
p3650
Vurl
p3651
sVvalue
p3652
Vhttp://www.digitalpast.org/cgi-bin/thumbnail.exe?CISOROOT=/mountpro001&CISOPTR=890
p3653
sasVtype
p3654
(lp3655
VUnpublished
p3656
asVid
p3657
V16241407
p3658
sa(dp3659
Vtitle
p3660
VTelephone Directory, December 1937; Classified Page 21 Tax-Tre
p3661
sVurl
p3662
V/work/16241411
p3663
sVtroveUrl
p3664
Vhttp://trove.nla.gov.au/work/16241411
p3665
sVversionCount
p3666
I1
sVholdingsCount
p3667
I0
sVrelevance
p3668
(dp3669
Vscore
p3670
V1.0
p3671
sVvalue
p3672
Vlikely to be relevant
p3673
ssVissued
p3674
V1937-2008
p3675
sVcontributor
p3676
(lp3677
VIllinois Bell Telephone Company
p3678
asVidentifier
p3679
(lp3680
(dp3681
Vlinktype
p3682
Vfulltext
p3683
sVtype
p3684
Vurl
p3685
sVvalue
p3686
Vhttp://www.digitalpast.org/u?/mountpro001,891
p3687
sa(dp3688
Vlinktype
p3689
Vthumbnail
p3690
sVtype
p3691
Vurl
p3692
sVvalue
p3693
Vhttp://www.digitalpast.org/cgi-bin/thumbnail.exe?CISOROOT=/mountpro001&CISOPTR=891
p3694
sasVtype
p3695
(lp3696
VUnpublished
p3697
asVid
p3698
V16241411
p3699
sa(dp3700
Vtitle
p3701
VTelephone Directory, December 1937; Classified Page 23 Und-Wel
p3702
sVurl
p3703
V/work/16241417
p3704
sVtroveUrl
p3705
Vhttp://trove.nla.gov.au/work/16241417
p3706
sVversionCount
p3707
I1
sVholdingsCount
p3708
I0
sVrelevance
p3709
(dp3710
Vscore
p3711
V1.0
p3712
sVvalue
p3713
Vlikely to be relevant
p3714
ssVissued
p3715
V1937-2008
p3716
sVcontributor
p3717
(lp3718
VIllinois Bell Telephone Company
p3719
asVidentifier
p3720
(lp3721
(dp3722
Vlinktype
p3723
Vfulltext
p3724
sVtype
p3725
Vurl
p3726
sVvalue
p3727
Vhttp://www.digitalpast.org/u?/mountpro001,893
p3728
sa(dp3729
Vlinktype
p3730
Vthumbnail
p3731
sVtype
p3732
Vurl
p3733
sVvalue
p3734
Vhttp://www.digitalpast.org/cgi-bin/thumbnail.exe?CISOROOT=/mountpro001&CISOPTR=893
p3735
sasVtype
p3736
(lp3737
VUnpublished
p3738
asVid
p3739
V16241417
p3740
sa(dp3741
Vtitle
p3742
VTelephone Directory, December 1937; Classified Page 16 Mil-Oil
p3743
sVurl
p3744
V/work/16241396
p3745
sVtroveUrl
p3746
Vhttp://trove.nla.gov.au/work/16241396
p3747
sVversionCount
p3748
I1
sVholdingsCount
p3749
I0
sVrelevance
p3750
(dp3751
Vscore
p3752
V1.0
p3753
sVvalue
p3754
Vlikely to be relevant
p3755
ssVissued
p3756
V1937-2008
p3757
sVcontributor
p3758
(lp3759
VIllinois Bell Telephone Company
p3760
asVidentifier
p3761
(lp3762
(dp3763
Vlinktype
p3764
Vfulltext
p3765
sVtype
p3766
Vurl
p3767
sVvalue
p3768
Vhttp://www.digitalpast.org/u?/mountpro001,886
p3769
sa(dp3770
Vlinktype
p3771
Vthumbnail
p3772
sVtype
p3773
Vurl
p3774
sVvalue
p3775
Vhttp://www.digitalpast.org/cgi-bin/thumbnail.exe?CISOROOT=/mountpro001&CISOPTR=886
p3776
sasVtype
p3777
(lp3778
VUnpublished
p3779
asVid
p3780
V16241396
p3781
sa(dp3782
Vtitle
p3783
VTelephone Directory, December 1937; Classified Page 17 Oil-Rai
p3784
sVurl
p3785
V/work/16241398
p3786
sVtroveUrl
p3787
Vhttp://trove.nla.gov.au/work/16241398
p3788
sVversionCount
p3789
I1
sVholdingsCount
p3790
I0
sVrelevance
p3791
(dp3792
Vscore
p3793
V1.0
p3794
sVvalue
p3795
Vlikely to be relevant
p3796
ssVissued
p3797
V1937-2008
p3798
sVcontributor
p3799
(lp3800
VIllinois Bell Telephone Company
p3801
asVidentifier
p3802
(lp3803
(dp3804
Vlinktype
p3805
Vfulltext
p3806
sVtype
p3807
Vurl
p3808
sVvalue
p3809
Vhttp://www.digitalpast.org/u?/mountpro001,887
p3810
sa(dp3811
Vlinktype
p3812
Vthumbnail
p3813
sVtype
p3814
Vurl
p3815
sVvalue
p3816
Vhttp://www.digitalpast.org/cgi-bin/thumbnail.exe?CISOROOT=/mountpro001&CISOPTR=887
p3817
sasVtype
p3818
(lp3819
VUnpublished
p3820
asVid
p3821
V16241398
p3822
sa(dp3823
Vtitle
p3824
VTelephone Directory, December 1937; Classified Page 22 Und-Was
p3825
sVurl
p3826
V/work/16241414
p3827
sVtroveUrl
p3828
Vhttp://trove.nla.gov.au/work/16241414
p3829
sVversionCount
p3830
I1
sVholdingsCount
p3831
I0
sVrelevance
p3832
(dp3833
Vscore
p3834
V1.0
p3835
sVvalue
p3836
Vlikely to be relevant
p3837
ssVissued
p3838
V1937-2008
p3839
sVcontributor
p3840
(lp3841
VIllinois Bell Telephone Company
p3842
asVidentifier
p3843
(lp3844
(dp3845
Vlinktype
p3846
Vfulltext
p3847
sVtype
p3848
Vurl
p3849
sVvalue
p3850
Vhttp://www.digitalpast.org/u?/mountpro001,892
p3851
sa(dp3852
Vlinktype
p3853
Vthumbnail
p3854
sVtype
p3855
Vurl
p3856
sVvalue
p3857
Vhttp://www.digitalpast.org/cgi-bin/thumbnail.exe?CISOROOT=/mountpro001&CISOPTR=892
p3858
sasVtype
p3859
(lp3860
VUnpublished
p3861
asVid
p3862
V16241414
p3863
sa(dp3864
Vtitle
p3865
VTelephone Directory, December 1937; Classified Page 24 Win-Wom
p3866
sVurl
p3867
V/work/16241420
p3868
sVtroveUrl
p3869
Vhttp://trove.nla.gov.au/work/16241420
p3870
sVversionCount
p3871
I1
sVholdingsCount
p3872
I0
sVrelevance
p3873
(dp3874
Vscore
p3875
V1.0
p3876
sVvalue
p3877
Vlikely to be relevant
p3878
ssVissued
p3879
V1937-2008
p3880
sVcontributor
p3881
(lp3882
VIllinois Bell Telephone Company
p3883
asVidentifier
p3884
(lp3885
(dp3886
Vlinktype
p3887
Vfulltext
p3888
sVtype
p3889
Vurl
p3890
sVvalue
p3891
Vhttp://www.digitalpast.org/u?/mountpro001,894
p3892
sa(dp3893
Vlinktype
p3894
Vthumbnail
p3895
sVtype
p3896
Vurl
p3897
sVvalue
p3898
Vhttp://www.digitalpast.org/cgi-bin/thumbnail.exe?CISOROOT=/mountpro001&CISOPTR=894
p3899
sasVtype
p3900
(lp3901
VUnpublished
p3902
asVid
p3903
V16241420
p3904
sa(dp3905
Vtitle
p3906
VTelephone Directory, December 1937
p3907
sVurl
p3908
V/work/16241423
p3909
sVtroveUrl
p3910
Vhttp://trove.nla.gov.au/work/16241423
p3911
sVversionCount
p3912
I1
sVholdingsCount
p3913
I0
sVrelevance
p3914
(dp3915
Vscore
p3916
V1.0
p3917
sVvalue
p3918
Vlikely to be relevant
p3919
ssVissued
p3920
I2008
sVcontributor
p3921
(lp3922
VIllinois Bell Telephone Company
p3923
asVidentifier
p3924
(lp3925
(dp3926
Vlinktype
p3927
Vfulltext
p3928
sVtype
p3929
Vurl
p3930
sVvalue
p3931
Vhttp://www.digitalpast.org/u?/mountpro001,897
p3932
sa(dp3933
Vlinktype
p3934
Vthumbnail
p3935
sVtype
p3936
Vurl
p3937
sVvalue
p3938
Vhttp://www.digitalpast.org/cgi-bin/thumbnail.exe?CISOROOT=/mountpro001&CISOPTR=897
p3939
sasVtype
p3940
(lp3941
VUnpublished
p3942
asVid
p3943
V16241423
p3944
sa(dp3945
Vtitle
p3946
VCary Library Story Hour 1975_3list
p3947
sVurl
p3948
V/work/16241651
p3949
sVtroveUrl
p3950
Vhttp://trove.nla.gov.au/work/16241651
p3951
sVversionCount
p3952
I1
sVholdingsCount
p3953
I0
sVissued
p3954
V1975-2007
p3955
sVrelevance
p3956
(dp3957
Vscore
p3958
V1.0
p3959
sVvalue
p3960
Vlikely to be relevant
p3961
ssVidentifier
p3962
(lp3963
(dp3964
Vlinktype
p3965
Vfulltext
p3966
sVtype
p3967
Vurl
p3968
sVvalue
p3969
Vhttp://www.digitalpast.org/u?/caryarea001,62
p3970
sa(dp3971
Vlinktype
p3972
Vthumbnail
p3973
sVtype
p3974
Vurl
p3975
sVvalue
p3976
Vhttp://www.digitalpast.org/cgi-bin/thumbnail.exe?CISOROOT=/caryarea001&CISOPTR=62
p3977
sasVtype
p3978
(lp3979
VUnpublished
p3980
asVid
p3981
V16241651
p3982
sa(dp3983
Vtitle
p3984
VGravestone of Charles Hoeft
p3985
sVurl
p3986
V/work/16241671
p3987
sVtroveUrl
p3988
Vhttp://trove.nla.gov.au/work/16241671
p3989
sVversionCount
p3990
I1
sVholdingsCount
p3991
I0
sVrelevance
p3992
(dp3993
Vscore
p3994
V1.0
p3995
sVvalue
p3996
Vlikely to be relevant
p3997
ssVissued
p3998
I1985
sVcontributor
p3999
(lp4000
VRiter, Mary. 
p4001
aV Smith, Kay. 
p4002
aV Massman, Betty. 
p4003
aV Leukaufe, Loretta. 
p4004
aV Kopacek, Linda. 
p4005
aV Conn, Linda.
p4006
asVidentifier
p4007
(lp4008
(dp4009
Vlinktype
p4010
Vfulltext
p4011
sVtype
p4012
Vurl
p4013
sVvalue
p4014
Vhttp://www.digitalpast.org/u?/caryarea001,223
p4015
sa(dp4016
Vlinktype
p4017
Vthumbnail
p4018
sVtype
p4019
Vurl
p4020
sVvalue
p4021
Vhttp://www.digitalpast.org/cgi-bin/thumbnail.exe?CISOROOT=/caryarea001&CISOPTR=70
p4022
sasVtype
p4023
(lp4024
VUnpublished
p4025
asVid
p4026
V16241671
p4027
sa(dp4028
Vtitle
p4029
VGravestone of Helen L. & Charles J. Schwab
p4030
sVurl
p4031
V/work/16241675
p4032
sVtroveUrl
p4033
Vhttp://trove.nla.gov.au/work/16241675
p4034
sVversionCount
p4035
I1
sVholdingsCount
p4036
I0
sVrelevance
p4037
(dp4038
Vscore
p4039
V1.0
p4040
sVvalue
p4041
Vlikely to be relevant
p4042
ssVissued
p4043
I1985
sVcontributor
p4044
(lp4045
VRiter, Mary. 
p4046
aV Smith, Kay. 
p4047
aV Massman, Betty. 
p4048
aV Leukaufe, Loretta. 
p4049
aV Kopacek, Linda. 
p4050
aV Conn, Linda.
p4051
asVidentifier
p4052
(lp4053
(dp4054
Vlinktype
p4055
Vfulltext
p4056
sVtype
p4057
Vurl
p4058
sVvalue
p4059
Vhttp://www.digitalpast.org/u?/caryarea001,405
p4060
sa(dp4061
Vlinktype
p4062
Vthumbnail
p4063
sVtype
p4064
Vurl
p4065
sVvalue
p4066
Vhttp://www.digitalpast.org/cgi-bin/thumbnail.exe?CISOROOT=/caryarea001&CISOPTR=71
p4067
sasVtype
p4068
(lp4069
VUnpublished
p4070
asVid
p4071
V16241675
p4072
sa(dp4073
Vtitle
p4074
VGravestone of Dorothy Fiedler Taflinger
p4075
sVurl
p4076
V/work/16241679
p4077
sVtroveUrl
p4078
Vhttp://trove.nla.gov.au/work/16241679
p4079
sVversionCount
p4080
I1
sVholdingsCount
p4081
I0
sVrelevance
p4082
(dp4083
Vscore
p4084
V1.0
p4085
sVvalue
p4086
Vlikely to be relevant
p4087
ssVissued
p4088
I1985
sVcontributor
p4089
(lp4090
VRiter, Mary. 
p4091
aV Smith, Kay. 
p4092
aV Massman, Betty. 
p4093
aV Leukaufe, Loretta. 
p4094
aV Kopacek, Linda. 
p4095
aV Conn, Linda.
p4096
asVidentifier
p4097
(lp4098
(dp4099
Vlinktype
p4100
Vfulltext
p4101
sVtype
p4102
Vurl
p4103
sVvalue
p4104
Vhttp://www.digitalpast.org/u?/caryarea001,562
p4105
sa(dp4106
Vlinktype
p4107
Vthumbnail
p4108
sVtype
p4109
Vurl
p4110
sVvalue
p4111
Vhttp://www.digitalpast.org/cgi-bin/thumbnail.exe?CISOROOT=/caryarea001&CISOPTR=562
p4112
sasVtype
p4113
(lp4114
VUnpublished
p4115
asVid
p4116
V16241679
p4117
sasVnext
p4118
V/result?q=+&sortby=relevance&encoding=json&l-availability=y&reclevel=brief&n=100&zone=collection&s=180322
p4119
sVs
p4120
V180222
p4121
sVtotal
p4122
V372846
p4123
sVn
p4124
V100
p4125
ssVname
p4126
Vcollection
p4127
sass.