(dp0
Vresponse
p1
(dp2
Vquery
p3
V
p4
sVzone
p5
(lp6
(dp7
Vrecords
p8
(dp9
Vnext
p10
V/result?q=+&sortby=relevance&encoding=json&l-availability=y&reclevel=full&n=100&zone=list&s=626
p11
sVs
p12
V526
p13
sVtotal
p14
V33248
p15
sVlist
p16
(lp17
(dp18
VlistItemCount
p19
I15
sVcreator
p20
Vpublic:petaZadow
p21
sVurl
p22
V/list/37401
p23
sVtroveUrl
p24
Vhttp://trove.nla.gov.au/list?id=37401
p25
sVtitle
p26
Vhenry Dale
p27
sVlastupdated
p28
V2013-03-26T13:56:41Z
p29
sVcreated
p30
V2013-03-26T12:28:01Z
p31
sVcommentCount
p32
I0
sVrelevance
p33
(dp34
Vscore
p35
V1.0
p36
sVvalue
p37
Vvery relevant
p38
ssVtagCount
p39
I0
sVdate
p40
g4
sVid
p41
V37401
p42
sa(dp43
VlistItemCount
p44
I1
sVcreator
p45
Vpublic:JLBow
p46
sVurl
p47
V/list/37403
p48
sVtroveUrl
p49
Vhttp://trove.nla.gov.au/list?id=37403
p50
sVtitle
p51
VBruce rock hockey
p52
sVlastupdated
p53
V2013-03-26T14:23:55Z
p54
sVcreated
p55
V2013-03-26T14:23:55Z
p56
sVcommentCount
p57
I0
sVrelevance
p58
(dp59
Vscore
p60
V1.0
p61
sVvalue
p62
Vvery relevant
p63
ssVtagCount
p64
I0
sVdate
p65
g4
sVid
p66
V37403
p67
sa(dp68
VlistItemCount
p69
I6
sVdescription
p70
Vvarious descendants of Nicholas Laughton (born 1770 Dublin Ireland), <br/> and their involvement with iron foundries across Australia
p71
sVcreator
p72
Vpublic:snu3
p73
sVurl
p74
V/list/6191
p75
sVtroveUrl
p76
Vhttp://trove.nla.gov.au/list?id=6191
p77
sVtitle
p78
VLaughton family & Iron Foundries
p79
sVlastupdated
p80
V2013-03-26T15:30:33Z
p81
sVcreated
p82
V2011-02-10T12:41:03Z
p83
sVcommentCount
p84
I0
sVrelevance
p85
(dp86
Vscore
p87
V1.0
p88
sVvalue
p89
Vvery relevant
p90
ssVtagCount
p91
I0
sVdate
p92
g4
sVid
p93
V6191
p94
sa(dp95
VlistItemCount
p96
I1
sVdescription
p97
Vclaims a koepanger was starved on a lugger - thats what started the riot
p98
sVcreator
p99
Vpublic:kylanne
p100
sVurl
p101
V/list/37405
p102
sVtroveUrl
p103
Vhttp://trove.nla.gov.au/list?id=37405
p104
sVtitle
p105
Vriot
p106
sVlastupdated
p107
V2013-03-26T14:53:28Z
p108
sVcreated
p109
V2013-03-26T14:53:28Z
p110
sVcommentCount
p111
I0
sVrelevance
p112
(dp113
Vscore
p114
V1.0
p115
sVvalue
p116
Vvery relevant
p117
ssVtagCount
p118
I0
sVdate
p119
g4
sVid
p120
V37405
p121
sa(dp122
VlistItemCount
p123
I10
sVcreator
p124
Vpublic:Gerald-Rohan
p125
sVurl
p126
V/list/33382
p127
sVtroveUrl
p128
Vhttp://trove.nla.gov.au/list?id=33382
p129
sVtitle
p130
VLewis
p131
sVlastupdated
p132
V2013-03-26T22:05:11Z
p133
sVcreated
p134
V2012-12-29T05:02:57Z
p135
sVcommentCount
p136
I0
sVrelevance
p137
(dp138
Vscore
p139
V1.0
p140
sVvalue
p141
Vvery relevant
p142
ssVtagCount
p143
I0
sVdate
p144
g4
sVid
p145
V33382
p146
sa(dp147
VlistItemCount
p148
I39
sVcreator
p149
Vpublic:anibur
p150
sVurl
p151
V/list/3970
p152
sVtroveUrl
p153
Vhttp://trove.nla.gov.au/list?id=3970
p154
sVtitle
p155
VDaniel
p156
sVlastupdated
p157
V2013-03-31T04:47:11Z
p158
sVcreated
p159
V2010-12-18T00:25:29Z
p160
sVcommentCount
p161
I0
sVrelevance
p162
(dp163
Vscore
p164
V1.0
p165
sVvalue
p166
Vvery relevant
p167
ssVtagCount
p168
I0
sVdate
p169
g4
sVid
p170
V3970
p171
sa(dp172
VlistItemCount
p173
I31
sVdescription
p174
V1882 Formed (under mining\u2019s company act 1871) 1885 the compnay buys the all the remaining shares of Louisa James Company; the lease for the entire Garfiled company was taken over in 1896 by the Forest Creek (Victoria) Gold Reefs Limited which was backed by English investors
p175
sVcreator
p176
Vpublic:kerbent
p177
sVurl
p178
V/list/30561
p179
sVtroveUrl
p180
Vhttp://trove.nla.gov.au/list?id=30561
p181
sVtitle
p182
VMine - Garfield Company
p183
sVlastupdated
p184
V2013-03-31T04:55:55Z
p185
sVcreated
p186
V2012-10-10T00:14:02Z
p187
sVcommentCount
p188
I0
sVrelevance
p189
(dp190
Vscore
p191
V1.0
p192
sVvalue
p193
Vvery relevant
p194
ssVtagCount
p195
I0
sVdate
p196
g4
sVid
p197
V30561
p198
sa(dp199
VlistItemCount
p200
I11
sVcreator
p201
Vpublic:SmithMcRae
p202
sVurl
p203
V/list/37216
p204
sVtroveUrl
p205
Vhttp://trove.nla.gov.au/list?id=37216
p206
sVtitle
p207
VWA Lacrosse
p208
sVlastupdated
p209
V2013-03-31T04:56:13Z
p210
sVcreated
p211
V2013-03-22T13:42:15Z
p212
sVcommentCount
p213
I0
sVrelevance
p214
(dp215
Vscore
p216
V1.0
p217
sVvalue
p218
Vvery relevant
p219
ssVtagCount
p220
I0
sVdate
p221
g4
sVid
p222
V37216
p223
sa(dp224
VlistItemCount
p225
I1
sVdescription
p226
VJohn Quiggin worked in the Production department of Stewarts & Lloyds, Newcastle, from about 1957 until 1982
p227
sVcreator
p228
Vpublic:gardner42
p229
sVurl
p230
V/list/37586
p231
sVtroveUrl
p232
Vhttp://trove.nla.gov.au/list?id=37586
p233
sVtitle
p234
VQuiggin
p235
sVlastupdated
p236
V2013-03-31T06:24:25Z
p237
sVcreated
p238
V2013-03-31T06:24:25Z
p239
sVcommentCount
p240
I0
sVrelevance
p241
(dp242
Vscore
p243
V1.0
p244
sVvalue
p245
Vvery relevant
p246
ssVtagCount
p247
I0
sVdate
p248
g4
sVid
p249
V37586
p250
sa(dp251
VlistItemCount
p252
I1
sVdescription
p253
Vcompiling a list of employees
p254
sVcreator
p255
Vpublic:gardner42
p256
sVurl
p257
V/list/37587
p258
sVtroveUrl
p259
Vhttp://trove.nla.gov.au/list?id=37587
p260
sVtitle
p261
VStewarts & Lloyds Pty. Ltd. employees
p262
sVlastupdated
p263
V2013-03-31T06:25:59Z
p264
sVcreated
p265
V2013-03-31T06:25:59Z
p266
sVcommentCount
p267
I0
sVrelevance
p268
(dp269
Vscore
p270
V1.0
p271
sVvalue
p272
Vvery relevant
p273
ssVtagCount
p274
I0
sVdate
p275
g4
sVid
p276
V37587
p277
sa(dp278
VlistItemCount
p279
I3
sVdescription
p280
VDeath- George Pitches Manning Sr.
p281
sVcreator
p282
Vpublic:shaz01
p283
sVurl
p284
V/list/37590
p285
sVtroveUrl
p286
Vhttp://trove.nla.gov.au/list?id=37590
p287
sVtitle
p288
VManning Family
p289
sVlastupdated
p290
V2013-03-31T07:02:41Z
p291
sVcreated
p292
V2013-03-31T06:59:43Z
p293
sVcommentCount
p294
I0
sVrelevance
p295
(dp296
Vscore
p297
V1.0
p298
sVvalue
p299
Vvery relevant
p300
ssVtagCount
p301
I0
sVdate
p302
g4
sVid
p303
V37590
p304
sa(dp305
VlistItemCount
p306
I29
sVdescription
p307
VPrincess Dagmar Mine was next to the Johnstons Reef Company
p308
sVcreator
p309
Vpublic:kerbent
p310
sVurl
p311
V/list/34559
p312
sVtroveUrl
p313
Vhttp://trove.nla.gov.au/list?id=34559
p314
sVtitle
p315
VMine - Princess Dagmar
p316
sVlastupdated
p317
V2013-03-31T07:28:19Z
p318
sVcreated
p319
V2013-01-27T23:34:20Z
p320
sVcommentCount
p321
I0
sVrelevance
p322
(dp323
Vscore
p324
V1.0
p325
sVvalue
p326
Vvery relevant
p327
ssVtagCount
p328
I0
sVdate
p329
g4
sVid
p330
V34559
p331
sa(dp332
VlistItemCount
p333
I1
sVcreator
p334
Vpublic:familytreefinder
p335
sVurl
p336
V/list/37593
p337
sVtroveUrl
p338
Vhttp://trove.nla.gov.au/list?id=37593
p339
sVtitle
p340
VSelections
p341
sVlastupdated
p342
V2013-03-31T07:24:01Z
p343
sVcreated
p344
V2013-03-31T07:24:01Z
p345
sVcommentCount
p346
I0
sVrelevance
p347
(dp348
Vscore
p349
V1.0
p350
sVvalue
p351
Vvery relevant
p352
ssVtagCount
p353
I0
sVdate
p354
g4
sVid
p355
V37593
p356
sa(dp357
VlistItemCount
p358
I14
sVdescription
p359
VJohnstons Reef Company was next to the Princess Dagmar Mine
p360
sVcreator
p361
Vpublic:kerbent
p362
sVurl
p363
V/list/35668
p364
sVtroveUrl
p365
Vhttp://trove.nla.gov.au/list?id=35668
p366
sVtitle
p367
Vmine - Johnson's Reef Company
p368
sVlastupdated
p369
V2013-03-31T08:08:21Z
p370
sVcreated
p371
V2013-02-17T01:38:03Z
p372
sVcommentCount
p373
I0
sVrelevance
p374
(dp375
Vscore
p376
V1.0
p377
sVvalue
p378
Vvery relevant
p379
ssVtagCount
p380
I0
sVdate
p381
g4
sVid
p382
V35668
p383
sa(dp384
VlistItemCount
p385
I1
sVdescription
p386
VThis article is one of a number from the Brisbane Courier and the Queenslander relating to the conflict and controversy surrounding remarks made by the Queensland Viticulturist in 1903 about vine growing at Sunnybank.
p387
sVcreator
p388
Vpublic:platsdhg
p389
sVurl
p390
V/list/37596
p391
sVtroveUrl
p392
Vhttp://trove.nla.gov.au/list?id=37596
p393
sVtitle
p394
VFruit growing at Sunnybank
p395
sVlastupdated
p396
V2013-03-31T08:24:29Z
p397
sVcreated
p398
V2013-03-31T08:24:29Z
p399
sVcommentCount
p400
I0
sVrelevance
p401
(dp402
Vscore
p403
V1.0
p404
sVvalue
p405
Vvery relevant
p406
ssVtagCount
p407
I0
sVdate
p408
g4
sVid
p409
V37596
p410
sa(dp411
VlistItemCount
p412
I1
sVdescription
p413
VDeath of Susan Barber (nee Knowles)
p414
sVcreator
p415
Vpublic:gardner42
p416
sVurl
p417
V/list/37601
p418
sVtroveUrl
p419
Vhttp://trove.nla.gov.au/list?id=37601
p420
sVtitle
p421
VKnowles
p422
sVlastupdated
p423
V2013-03-31T09:34:20Z
p424
sVcreated
p425
V2013-03-31T09:34:19Z
p426
sVcommentCount
p427
I0
sVrelevance
p428
(dp429
Vscore
p430
V1.0
p431
sVvalue
p432
Vvery relevant
p433
ssVtagCount
p434
I0
sVdate
p435
g4
sVid
p436
V37601
p437
sa(dp438
VlistItemCount
p439
I3
sVcreator
p440
Vpublic:gardner42
p441
sVurl
p442
V/list/37600
p443
sVtroveUrl
p444
Vhttp://trove.nla.gov.au/list?id=37600
p445
sVtitle
p446
VBarber
p447
sVlastupdated
p448
V2013-03-31T09:58:00Z
p449
sVcreated
p450
V2013-03-31T09:32:56Z
p451
sVcommentCount
p452
I0
sVrelevance
p453
(dp454
Vscore
p455
V1.0
p456
sVvalue
p457
Vvery relevant
p458
ssVtagCount
p459
I0
sVdate
p460
g4
sVid
p461
V37600
p462
sa(dp463
VlistItemCount
p464
I1
sVdescription
p465
VResearching James Leonard
p466
sVcreator
p467
Vpublic:Tim.Hill
p468
sVurl
p469
V/list/37603
p470
sVtroveUrl
p471
Vhttp://trove.nla.gov.au/list?id=37603
p472
sVtitle
p473
VJames Leonard - uncertain
p474
sVlastupdated
p475
V2013-03-31T10:14:55Z
p476
sVcreated
p477
V2013-03-31T10:14:55Z
p478
sVcommentCount
p479
I0
sVrelevance
p480
(dp481
Vscore
p482
V1.0
p483
sVvalue
p484
Vvery relevant
p485
ssVtagCount
p486
I0
sVdate
p487
g4
sVid
p488
V37603
p489
sa(dp490
VlistItemCount
p491
I1
sVcreator
p492
Vpublic:marieodon
p493
sVurl
p494
V/list/37542
p495
sVtroveUrl
p496
Vhttp://trove.nla.gov.au/list?id=37542
p497
sVtitle
p498
VDeath of Gerald
p499
sVlastupdated
p500
V2013-03-29T16:22:28Z
p501
sVcreated
p502
V2013-03-29T16:22:27Z
p503
sVcommentCount
p504
I0
sVrelevance
p505
(dp506
Vscore
p507
V1.0
p508
sVvalue
p509
Vvery relevant
p510
ssVtagCount
p511
I0
sVdate
p512
g4
sVid
p513
V37542
p514
sa(dp515
VlistItemCount
p516
I13
sVdescription
p517
VAlice Fitzmaurice's second husband's surname was Grenfell.
p518
sVcreator
p519
Vpublic:lagaturn
p520
sVurl
p521
V/list/33263
p522
sVtroveUrl
p523
Vhttp://trove.nla.gov.au/list?id=33263
p524
sVtitle
p525
VFamily - Grenfell
p526
sVlastupdated
p527
V2013-03-30T01:13:38Z
p528
sVcreated
p529
V2012-12-27T20:07:04Z
p530
sVcommentCount
p531
I0
sVrelevance
p532
(dp533
Vscore
p534
V1.0
p535
sVvalue
p536
Vvery relevant
p537
ssVtagCount
p538
I0
sVdate
p539
g4
sVid
p540
V33263
p541
sa(dp542
VlistItemCount
p543
I1
sVcreator
p544
Vpublic:melissa01
p545
sVurl
p546
V/list/37544
p547
sVtroveUrl
p548
Vhttp://trove.nla.gov.au/list?id=37544
p549
sVtitle
p550
VL'Estrange
p551
sVlastupdated
p552
V2013-03-29T22:06:22Z
p553
sVcreated
p554
V2013-03-29T22:06:21Z
p555
sVcommentCount
p556
I0
sVrelevance
p557
(dp558
Vscore
p559
V1.0
p560
sVvalue
p561
Vvery relevant
p562
ssVtagCount
p563
I0
sVdate
p564
g4
sVid
p565
V37544
p566
sa(dp567
VlistItemCount
p568
I1
sVdescription
p569
VThis includes meat for exporting including live animals.
p570
sVcreator
p571
Vpublic:bookworm69
p572
sVurl
p573
V/list/37551
p574
sVtroveUrl
p575
Vhttp://trove.nla.gov.au/list?id=37551
p576
sVtitle
p577
VExport of Australian produce
p578
sVlastupdated
p579
V2013-03-30T04:39:53Z
p580
sVcreated
p581
V2013-03-30T04:39:53Z
p582
sVcommentCount
p583
I0
sVrelevance
p584
(dp585
Vscore
p586
V1.0
p587
sVvalue
p588
Vvery relevant
p589
ssVtagCount
p590
I0
sVdate
p591
g4
sVid
p592
V37551
p593
sa(dp594
VlistItemCount
p595
I2
sVcreator
p596
Vpublic:yetta
p597
sVurl
p598
V/list/37552
p599
sVtroveUrl
p600
Vhttp://trove.nla.gov.au/list?id=37552
p601
sVtitle
p602
Vedward draper
p603
sVlastupdated
p604
V2013-03-30T04:59:11Z
p605
sVcreated
p606
V2013-03-30T04:54:52Z
p607
sVcommentCount
p608
I0
sVrelevance
p609
(dp610
Vscore
p611
V1.0
p612
sVvalue
p613
Vvery relevant
p614
ssVtagCount
p615
I0
sVdate
p616
g4
sVid
p617
V37552
p618
sa(dp619
VlistItemCount
p620
I12
sVcreator
p621
Vpublic:Harvey-switzer
p622
sVurl
p623
V/list/37558
p624
sVtroveUrl
p625
Vhttp://trove.nla.gov.au/list?id=37558
p626
sVtitle
p627
VFerguson Family
p628
sVlastupdated
p629
V2013-03-30T08:16:50Z
p630
sVcreated
p631
V2013-03-30T08:01:28Z
p632
sVcommentCount
p633
I0
sVrelevance
p634
(dp635
Vscore
p636
V1.0
p637
sVvalue
p638
Vvery relevant
p639
ssVtagCount
p640
I0
sVdate
p641
g4
sVid
p642
V37558
p643
sa(dp644
VlistItemCount
p645
I17
sVdescription
p646
VMarshdale, Eugowra
p647
sVcreator
p648
Vpublic:grace486
p649
sVurl
p650
V/list/37556
p651
sVtroveUrl
p652
Vhttp://trove.nla.gov.au/list?id=37556
p653
sVtitle
p654
V-Marshdale-
p655
sVlastupdated
p656
V2013-03-30T09:11:29Z
p657
sVcreated
p658
V2013-03-30T06:41:11Z
p659
sVcommentCount
p660
I0
sVrelevance
p661
(dp662
Vscore
p663
V1.0
p664
sVvalue
p665
Vvery relevant
p666
ssVtagCount
p667
I0
sVdate
p668
g4
sVid
p669
V37556
p670
sa(dp671
VlistItemCount
p672
I49
sVdescription
p673
VFamily history
p674
sVcreator
p675
Vpublic:CarolannThomson
p676
sVurl
p677
V/list/11749
p678
sVtroveUrl
p679
Vhttp://trove.nla.gov.au/list?id=11749
p680
sVtitle
p681
VSantilla
p682
sVlastupdated
p683
V2013-03-30T09:14:18Z
p684
sVcreated
p685
V2011-07-03T13:17:38Z
p686
sVcommentCount
p687
I0
sVrelevance
p688
(dp689
Vscore
p690
V1.0
p691
sVvalue
p692
Vvery relevant
p693
ssVtagCount
p694
I0
sVdate
p695
g4
sVid
p696
V11749
p697
sa(dp698
VlistItemCount
p699
I1
sVcreator
p700
Vpublic:haileekee
p701
sVurl
p702
V/list/37562
p703
sVtroveUrl
p704
Vhttp://trove.nla.gov.au/list?id=37562
p705
sVtitle
p706
Vfrank maguire
p707
sVlastupdated
p708
V2013-03-30T10:02:51Z
p709
sVcreated
p710
V2013-03-30T10:02:48Z
p711
sVcommentCount
p712
I0
sVrelevance
p713
(dp714
Vscore
p715
V1.0
p716
sVvalue
p717
Vvery relevant
p718
ssVtagCount
p719
I0
sVdate
p720
g4
sVid
p721
V37562
p722
sa(dp723
VlistItemCount
p724
I47
sVcreator
p725
Vpublic:jenval3012
p726
sVurl
p727
V/list/37271
p728
sVtroveUrl
p729
Vhttp://trove.nla.gov.au/list?id=37271
p730
sVtitle
p731
VValentine Family
p732
sVlastupdated
p733
V2013-03-30T10:39:24Z
p734
sVcreated
p735
V2013-03-23T22:47:58Z
p736
sVcommentCount
p737
I0
sVrelevance
p738
(dp739
Vscore
p740
V1.0
p741
sVvalue
p742
Vvery relevant
p743
ssVtagCount
p744
I0
sVdate
p745
g4
sVid
p746
V37271
p747
sa(dp748
VlistItemCount
p749
I19
sVdescription
p750
VThis list is a shot in the dark, looking for an elusive ancestor.<br/> James was the father of Peter Reilly (born c.1851), and was a miner. The James I'm after may have had connections to Kerang VIC (which was renamed "Wedderburn" in 1858), and Adelaide SA, and may have been a convict.The Chinese lady is rumoured to be Peter's mother. It would be great to find out her name too.<br/>Another James Reilly list <a href='http://trove.nla.gov.au/list?id=23413'>http://trove.nla.gov.au/list?id=23413</a> is also about this same person.
p751
sVcreator
p752
Vpublic:NigelOBrien
p753
sVurl
p754
V/list/30291
p755
sVtroveUrl
p756
Vhttp://trove.nla.gov.au/list?id=30291
p757
sVtitle
p758
V4 James Reilly and ??? a Chinese lady??? SA and VIC
p759
sVlastupdated
p760
V2013-03-30T10:52:58Z
p761
sVcreated
p762
V2012-10-03T06:59:48Z
p763
sVcommentCount
p764
I0
sVrelevance
p765
(dp766
Vscore
p767
V1.0
p768
sVvalue
p769
Vvery relevant
p770
ssVtagCount
p771
I0
sVdate
p772
g4
sVid
p773
V30291
p774
sa(dp775
VlistItemCount
p776
I14
sVdescription
p777
VHistory of Ford family.
p778
sVcreator
p779
Vpublic:Yvonne
p780
sVurl
p781
V/list/35827
p782
sVtroveUrl
p783
Vhttp://trove.nla.gov.au/list?id=35827
p784
sVtitle
p785
VFORD FAMILY HISTORY
p786
sVlastupdated
p787
V2013-03-30T11:14:21Z
p788
sVcreated
p789
V2013-02-21T06:45:55Z
p790
sVcommentCount
p791
I0
sVrelevance
p792
(dp793
Vscore
p794
V1.0
p795
sVvalue
p796
Vvery relevant
p797
ssVtagCount
p798
I0
sVdate
p799
g4
sVid
p800
V35827
p801
sa(dp802
VlistItemCount
p803
I1
sVcreator
p804
Vpublic:Yvonne
p805
sVurl
p806
V/list/37563
p807
sVtroveUrl
p808
Vhttp://trove.nla.gov.au/list?id=37563
p809
sVtitle
p810
VRobbery of Ann Brumby
p811
sVlastupdated
p812
V2013-03-30T11:46:10Z
p813
sVcreated
p814
V2013-03-30T11:46:10Z
p815
sVcommentCount
p816
I0
sVrelevance
p817
(dp818
Vscore
p819
V1.0
p820
sVvalue
p821
Vvery relevant
p822
ssVtagCount
p823
I0
sVdate
p824
g4
sVid
p825
V37563
p826
sa(dp827
VlistItemCount
p828
I1
sVcreator
p829
Vpublic:Yvonne
p830
sVurl
p831
V/list/37566
p832
sVtroveUrl
p833
Vhttp://trove.nla.gov.au/list?id=37566
p834
sVtitle
p835
VBRUMBY house robbery trial
p836
sVlastupdated
p837
V2013-03-30T12:40:30Z
p838
sVcreated
p839
V2013-03-30T12:40:30Z
p840
sVcommentCount
p841
I0
sVrelevance
p842
(dp843
Vscore
p844
V1.0
p845
sVvalue
p846
Vvery relevant
p847
ssVtagCount
p848
I0
sVdate
p849
g4
sVid
p850
V37566
p851
sa(dp852
VlistItemCount
p853
I1
sVcreator
p854
Vpublic:dixieau
p855
sVurl
p856
V/list/37567
p857
sVtroveUrl
p858
Vhttp://trove.nla.gov.au/list?id=37567
p859
sVtitle
p860
VDavis
p861
sVlastupdated
p862
V2013-03-30T12:48:15Z
p863
sVcreated
p864
V2013-03-30T12:48:15Z
p865
sVcommentCount
p866
I0
sVrelevance
p867
(dp868
Vscore
p869
V1.0
p870
sVvalue
p871
Vvery relevant
p872
ssVtagCount
p873
I0
sVdate
p874
g4
sVid
p875
V37567
p876
sa(dp877
VlistItemCount
p878
I2
sVcreator
p879
Vpublic:DonnaTelfer
p880
sVurl
p881
V/list/33750
p882
sVtroveUrl
p883
Vhttp://trove.nla.gov.au/list?id=33750
p884
sVtitle
p885
VWhite/Burgess Descendants
p886
sVlastupdated
p887
V2013-03-30T21:28:41Z
p888
sVcreated
p889
V2013-01-07T09:31:15Z
p890
sVcommentCount
p891
I0
sVrelevance
p892
(dp893
Vscore
p894
V1.0
p895
sVvalue
p896
Vvery relevant
p897
ssVtagCount
p898
I0
sVdate
p899
g4
sVid
p900
V33750
p901
sa(dp902
VlistItemCount
p903
I1
sVdescription
p904
VPritchard, Thomas William Obit 1943
p905
sVcreator
p906
Vpublic:fac5
p907
sVurl
p908
V/list/37569
p909
sVtroveUrl
p910
Vhttp://trove.nla.gov.au/list?id=37569
p911
sVtitle
p912
VPritchard Family
p913
sVlastupdated
p914
V2013-03-30T23:30:49Z
p915
sVcreated
p916
V2013-03-30T23:30:49Z
p917
sVcommentCount
p918
I0
sVrelevance
p919
(dp920
Vscore
p921
V1.0
p922
sVvalue
p923
Vvery relevant
p924
ssVtagCount
p925
I0
sVdate
p926
g4
sVid
p927
V37569
p928
sa(dp929
VlistItemCount
p930
I65
sVcreator
p931
Vpublic:fac5
p932
sVurl
p933
V/list/27079
p934
sVtroveUrl
p935
Vhttp://trove.nla.gov.au/list?id=27079
p936
sVtitle
p937
VCarbis Family
p938
sVlastupdated
p939
V2013-03-30T23:55:34Z
p940
sVcreated
p941
V2012-07-06T00:24:00Z
p942
sVcommentCount
p943
I0
sVrelevance
p944
(dp945
Vscore
p946
V1.0
p947
sVvalue
p948
Vvery relevant
p949
ssVtagCount
p950
I0
sVdate
p951
g4
sVid
p952
V27079
p953
sa(dp954
VlistItemCount
p955
I52
sVdescription
p956
VThe OBERFUCHSHUBERs were a family of German immigrants in the Grafton/Ulmarra area of northern NSW. One of them, Anna, married into my HOLMES family. There are at least NINE different spellings of the surname in the NSW BDM Indexes - and one branch of the family changed their name to FOXOVER.
p957
sVcreator
p958
Vpublic:Drewy
p959
sVurl
p960
V/list/19762
p961
sVtroveUrl
p962
Vhttp://trove.nla.gov.au/list?id=19762
p963
sVtitle
p964
VOBERFUCHSHUBER family
p965
sVlastupdated
p966
V2013-03-31T00:34:29Z
p967
sVcreated
p968
V2012-01-20T00:38:35Z
p969
sVcommentCount
p970
I0
sVrelevance
p971
(dp972
Vscore
p973
V1.0
p974
sVvalue
p975
Vvery relevant
p976
ssVtagCount
p977
I0
sVdate
p978
g4
sVid
p979
V19762
p980
sa(dp981
VlistItemCount
p982
I1
sVcreator
p983
Vpublic:mjwimbridge44
p984
sVurl
p985
V/list/37572
p986
sVtroveUrl
p987
Vhttp://trove.nla.gov.au/list?id=37572
p988
sVtitle
p989
VGlimpses of Times Past
p990
sVlastupdated
p991
V2013-03-31T00:37:02Z
p992
sVcreated
p993
V2013-03-31T00:33:22Z
p994
sVcommentCount
p995
I0
sVrelevance
p996
(dp997
Vscore
p998
V1.0
p999
sVvalue
p1000
Vvery relevant
p1001
ssVtagCount
p1002
I0
sVdate
p1003
g4
sVid
p1004
V37572
p1005
sa(dp1006
VlistItemCount
p1007
I1
sVdescription
p1008
VBigamy
p1009
sVcreator
p1010
Vpublic:DeColk
p1011
sVurl
p1012
V/list/12524
p1013
sVtroveUrl
p1014
Vhttp://trove.nla.gov.au/list?id=12524
p1015
sVtitle
p1016
VJosephine McLean Colk
p1017
sVlastupdated
p1018
V2011-07-23T05:37:50Z
p1019
sVcreated
p1020
V2011-07-23T05:37:50Z
p1021
sVcommentCount
p1022
I2
sVrelevance
p1023
(dp1024
Vscore
p1025
V1.0
p1026
sVvalue
p1027
Vvery relevant
p1028
ssVtagCount
p1029
I0
sVdate
p1030
g4
sVid
p1031
V12524
p1032
sa(dp1033
VlistItemCount
p1034
I1
sVdescription
p1035
VTaylor, John Obit 1931
p1036
sVcreator
p1037
Vpublic:fac5
p1038
sVurl
p1039
V/list/37571
p1040
sVtroveUrl
p1041
Vhttp://trove.nla.gov.au/list?id=37571
p1042
sVtitle
p1043
VFrew Family
p1044
sVlastupdated
p1045
V2013-03-31T00:31:22Z
p1046
sVcreated
p1047
V2013-03-31T00:31:22Z
p1048
sVcommentCount
p1049
I0
sVrelevance
p1050
(dp1051
Vscore
p1052
V1.0
p1053
sVvalue
p1054
Vvery relevant
p1055
ssVtagCount
p1056
I0
sVdate
p1057
g4
sVid
p1058
V37571
p1059
sa(dp1060
VlistItemCount
p1061
I3
sVcreator
p1062
Vpublic:aaronb
p1063
sVurl
p1064
V/list/37573
p1065
sVtroveUrl
p1066
Vhttp://trove.nla.gov.au/list?id=37573
p1067
sVtitle
p1068
VJack Beresford Bowden (1907-1941)
p1069
sVlastupdated
p1070
V2013-03-31T00:57:10Z
p1071
sVcreated
p1072
V2013-03-31T00:54:41Z
p1073
sVcommentCount
p1074
I0
sVrelevance
p1075
(dp1076
Vscore
p1077
V1.0
p1078
sVvalue
p1079
Vvery relevant
p1080
ssVtagCount
p1081
I0
sVdate
p1082
g4
sVid
p1083
V37573
p1084
sa(dp1085
VlistItemCount
p1086
I4
sVdescription
p1087
VBruce Lowe's Figure System vindicated statistical results over 10 years.
p1088
sVcreator
p1089
Vpublic:lorenb
p1090
sVurl
p1091
V/list/6563
p1092
sVtroveUrl
p1093
Vhttp://trove.nla.gov.au/list?id=6563
p1094
sVtitle
p1095
VWilliam Allison
p1096
sVlastupdated
p1097
V2013-03-31T01:19:02Z
p1098
sVcreated
p1099
V2011-02-20T02:17:49Z
p1100
sVcommentCount
p1101
I0
sVrelevance
p1102
(dp1103
Vscore
p1104
V1.0
p1105
sVvalue
p1106
Vvery relevant
p1107
ssVtagCount
p1108
I0
sVdate
p1109
g4
sVid
p1110
V6563
p1111
sa(dp1112
VlistItemCount
p1113
I8
sVcreator
p1114
Vpublic:kerrie-hogan
p1115
sVurl
p1116
V/list/37510
p1117
sVtroveUrl
p1118
Vhttp://trove.nla.gov.au/list?id=37510
p1119
sVtitle
p1120
VShirriff Family
p1121
sVlastupdated
p1122
V2013-03-29T04:28:59Z
p1123
sVcreated
p1124
V2013-03-29T03:39:37Z
p1125
sVcommentCount
p1126
I0
sVrelevance
p1127
(dp1128
Vscore
p1129
V1.0
p1130
sVvalue
p1131
Vvery relevant
p1132
ssVtagCount
p1133
I0
sVdate
p1134
g4
sVid
p1135
V37510
p1136
sa(dp1137
VlistItemCount
p1138
I2
sVcreator
p1139
Vpublic:kerrie-hogan
p1140
sVurl
p1141
V/list/37512
p1142
sVtroveUrl
p1143
Vhttp://trove.nla.gov.au/list?id=37512
p1144
sVtitle
p1145
VCharteris
p1146
sVlastupdated
p1147
V2013-03-29T04:37:01Z
p1148
sVcreated
p1149
V2013-03-29T04:21:24Z
p1150
sVcommentCount
p1151
I0
sVrelevance
p1152
(dp1153
Vscore
p1154
V1.0
p1155
sVvalue
p1156
Vvery relevant
p1157
ssVtagCount
p1158
I0
sVdate
p1159
g4
sVid
p1160
V37512
p1161
sa(dp1162
VlistItemCount
p1163
I9
sVcreator
p1164
Vpublic:Dunhs
p1165
sVurl
p1166
V/list/37483
p1167
sVtroveUrl
p1168
Vhttp://trove.nla.gov.au/list?id=37483
p1169
sVtitle
p1170
VDunolly State School
p1171
sVlastupdated
p1172
V2013-03-29T02:20:43Z
p1173
sVcreated
p1174
V2013-03-28T22:07:01Z
p1175
sVcommentCount
p1176
I0
sVrelevance
p1177
(dp1178
Vscore
p1179
V1.0
p1180
sVvalue
p1181
Vvery relevant
p1182
ssVtagCount
p1183
I0
sVdate
p1184
g4
sVid
p1185
V37483
p1186
sa(dp1187
VlistItemCount
p1188
I2
sVcreator
p1189
Vpublic:Dunhs
p1190
sVurl
p1191
V/list/37501
p1192
sVtroveUrl
p1193
Vhttp://trove.nla.gov.au/list?id=37501
p1194
sVtitle
p1195
VDunolly Police
p1196
sVlastupdated
p1197
V2013-03-29T02:04:02Z
p1198
sVcreated
p1199
V2013-03-29T01:04:25Z
p1200
sVcommentCount
p1201
I0
sVrelevance
p1202
(dp1203
Vscore
p1204
V1.0
p1205
sVvalue
p1206
Vvery relevant
p1207
ssVtagCount
p1208
I0
sVdate
p1209
g4
sVid
p1210
V37501
p1211
sa(dp1212
VlistItemCount
p1213
I1
sVcreator
p1214
Vpublic:Dunhs
p1215
sVurl
p1216
V/list/37506
p1217
sVtroveUrl
p1218
Vhttp://trove.nla.gov.au/list?id=37506
p1219
sVtitle
p1220
VDunolly Cricket
p1221
sVlastupdated
p1222
V2013-03-29T01:35:48Z
p1223
sVcreated
p1224
V2013-03-29T01:35:47Z
p1225
sVcommentCount
p1226
I0
sVrelevance
p1227
(dp1228
Vscore
p1229
V1.0
p1230
sVvalue
p1231
Vvery relevant
p1232
ssVtagCount
p1233
I0
sVdate
p1234
g4
sVid
p1235
V37506
p1236
sa(dp1237
VlistItemCount
p1238
I24
sVdescription
p1239
VMadden family, Limerick Ireland to Victoria Australia
p1240
sVcreator
p1241
Vpublic:fishing
p1242
sVurl
p1243
V/list/19339
p1244
sVtroveUrl
p1245
Vhttp://trove.nla.gov.au/list?id=19339
p1246
sVtitle
p1247
VMadden family
p1248
sVlastupdated
p1249
V2013-03-29T02:27:08Z
p1250
sVcreated
p1251
V2012-01-11T04:06:02Z
p1252
sVcommentCount
p1253
I1
sVrelevance
p1254
(dp1255
Vscore
p1256
V1.0
p1257
sVvalue
p1258
Vvery relevant
p1259
ssVtagCount
p1260
I1
sVdate
p1261
g4
sVid
p1262
V19339
p1263
sa(dp1264
VlistItemCount
p1265
I2
sVdescription
p1266
VList of reports on Considine family members in Goulburn district.
p1267
sVcreator
p1268
Vpublic:rod.mcinnes
p1269
sVurl
p1270
V/list/37508
p1271
sVtroveUrl
p1272
Vhttp://trove.nla.gov.au/list?id=37508
p1273
sVtitle
p1274
VConsidine
p1275
sVlastupdated
p1276
V2013-03-29T02:54:25Z
p1277
sVcreated
p1278
V2013-03-29T02:44:29Z
p1279
sVcommentCount
p1280
I0
sVrelevance
p1281
(dp1282
Vscore
p1283
V1.0
p1284
sVvalue
p1285
Vvery relevant
p1286
ssVtagCount
p1287
I0
sVdate
p1288
g4
sVid
p1289
V37508
p1290
sa(dp1291
VlistItemCount
p1292
I0
sVcreator
p1293
Vpublic:kerrie-hogan
p1294
sVurl
p1295
V/list/37511
p1296
sVtroveUrl
p1297
Vhttp://trove.nla.gov.au/list?id=37511
p1298
sVtitle
p1299
VStein Family
p1300
sVlastupdated
p1301
V2013-03-29T04:03:51Z
p1302
sVcreated
p1303
V2013-03-29T04:03:51Z
p1304
sVcommentCount
p1305
I0
sVrelevance
p1306
(dp1307
Vscore
p1308
V1.0
p1309
sVvalue
p1310
Vvery relevant
p1311
ssVtagCount
p1312
I0
sVdate
p1313
g4
sVid
p1314
V37511
p1315
sa(dp1316
VlistItemCount
p1317
I55
sVdescription
p1318
VEarly days of Yuen Hoy Poy and his Family
p1319
sVcreator
p1320
Vpublic:ghp55
p1321
sVurl
p1322
V/list/14947
p1323
sVtroveUrl
p1324
Vhttp://trove.nla.gov.au/list?id=14947
p1325
sVtitle
p1326
VHoy Poy Family
p1327
sVlastupdated
p1328
V2013-03-29T05:37:38Z
p1329
sVcreated
p1330
V2011-09-18T14:58:45Z
p1331
sVcommentCount
p1332
I0
sVrelevance
p1333
(dp1334
Vscore
p1335
V1.0
p1336
sVvalue
p1337
Vvery relevant
p1338
ssVtagCount
p1339
I0
sVdate
p1340
g4
sVid
p1341
V14947
p1342
sa(dp1343
VlistItemCount
p1344
I1
sVcreator
p1345
Vpublic:peterthrupp
p1346
sVurl
p1347
V/list/37517
p1348
sVtroveUrl
p1349
Vhttp://trove.nla.gov.au/list?id=37517
p1350
sVtitle
p1351
VSarah Jane Thrupp(nee Crothers)
p1352
sVlastupdated
p1353
V2013-03-29T05:47:09Z
p1354
sVcreated
p1355
V2013-03-29T05:47:09Z
p1356
sVcommentCount
p1357
I0
sVrelevance
p1358
(dp1359
Vscore
p1360
V1.0
p1361
sVvalue
p1362
Vvery relevant
p1363
ssVtagCount
p1364
I0
sVdate
p1365
g4
sVid
p1366
V37517
p1367
sa(dp1368
VlistItemCount
p1369
I7
sVdescription
p1370
VA list of individuals who died at Sutton Forest NSW
p1371
sVcreator
p1372
Vpublic:Lavinia
p1373
sVurl
p1374
V/list/11640
p1375
sVtroveUrl
p1376
Vhttp://trove.nla.gov.au/list?id=11640
p1377
sVtitle
p1378
VSutton Forest NSW Deaths
p1379
sVlastupdated
p1380
V2013-03-29T06:40:19Z
p1381
sVcreated
p1382
V2011-06-30T13:40:47Z
p1383
sVcommentCount
p1384
I0
sVrelevance
p1385
(dp1386
Vscore
p1387
V1.0
p1388
sVvalue
p1389
Vvery relevant
p1390
ssVtagCount
p1391
I0
sVdate
p1392
g4
sVid
p1393
V11640
p1394
sa(dp1395
VlistItemCount
p1396
I1
sVcreator
p1397
Vpublic:peterthrupp
p1398
sVurl
p1399
V/list/37521
p1400
sVtroveUrl
p1401
Vhttp://trove.nla.gov.au/list?id=37521
p1402
sVtitle
p1403
VErnest William Thrupp born 1887
p1404
sVlastupdated
p1405
V2013-03-29T07:04:25Z
p1406
sVcreated
p1407
V2013-03-29T07:04:24Z
p1408
sVcommentCount
p1409
I0
sVrelevance
p1410
(dp1411
Vscore
p1412
V1.0
p1413
sVvalue
p1414
Vvery relevant
p1415
ssVtagCount
p1416
I0
sVdate
p1417
g4
sVid
p1418
V37521
p1419
sa(dp1420
VlistItemCount
p1421
I53
sVdescription
p1422
VMililya - Lancelot Shaw
p1423
sVcreator
p1424
Vpublic:pioneers
p1425
sVurl
p1426
V/list/35684
p1427
sVtroveUrl
p1428
Vhttp://trove.nla.gov.au/list?id=35684
p1429
sVtitle
p1430
VShaw family
p1431
sVlastupdated
p1432
V2013-03-29T07:27:25Z
p1433
sVcreated
p1434
V2013-02-17T07:42:21Z
p1435
sVcommentCount
p1436
I0
sVrelevance
p1437
(dp1438
Vscore
p1439
V1.0
p1440
sVvalue
p1441
Vvery relevant
p1442
ssVtagCount
p1443
I0
sVdate
p1444
g4
sVid
p1445
V35684
p1446
sa(dp1447
VlistItemCount
p1448
I3
sVcreator
p1449
Vpublic:peterthrupp
p1450
sVurl
p1451
V/list/37516
p1452
sVtroveUrl
p1453
Vhttp://trove.nla.gov.au/list?id=37516
p1454
sVtitle
p1455
VRobert Henry Thrupp
p1456
sVlastupdated
p1457
V2013-03-29T07:30:57Z
p1458
sVcreated
p1459
V2013-03-29T05:43:41Z
p1460
sVcommentCount
p1461
I0
sVrelevance
p1462
(dp1463
Vscore
p1464
V1.0
p1465
sVvalue
p1466
Vvery relevant
p1467
ssVtagCount
p1468
I0
sVdate
p1469
g4
sVid
p1470
V37516
p1471
sa(dp1472
VlistItemCount
p1473
I2
sVcreator
p1474
Vpublic:Dunhs
p1475
sVurl
p1476
V/list/37526
p1477
sVtroveUrl
p1478
Vhttp://trove.nla.gov.au/list?id=37526
p1479
sVtitle
p1480
VDunolly Railway
p1481
sVlastupdated
p1482
V2013-03-29T08:57:41Z
p1483
sVcreated
p1484
V2013-03-29T08:38:14Z
p1485
sVcommentCount
p1486
I0
sVrelevance
p1487
(dp1488
Vscore
p1489
V1.0
p1490
sVvalue
p1491
Vvery relevant
p1492
ssVtagCount
p1493
I0
sVdate
p1494
g4
sVid
p1495
V37526
p1496
sa(dp1497
VlistItemCount
p1498
I3
sVcreator
p1499
Vpublic:Dunhs
p1500
sVurl
p1501
V/list/37471
p1502
sVtroveUrl
p1503
Vhttp://trove.nla.gov.au/list?id=37471
p1504
sVtitle
p1505
VDunolly Court
p1506
sVlastupdated
p1507
V2013-03-29T08:56:13Z
p1508
sVcreated
p1509
V2013-03-28T11:43:16Z
p1510
sVcommentCount
p1511
I0
sVrelevance
p1512
(dp1513
Vscore
p1514
V1.0
p1515
sVvalue
p1516
Vvery relevant
p1517
ssVtagCount
p1518
I0
sVdate
p1519
g4
sVid
p1520
V37471
p1521
sa(dp1522
VlistItemCount
p1523
I5
sVcreator
p1524
Vpublic:Dunhs
p1525
sVurl
p1526
V/list/37500
p1527
sVtroveUrl
p1528
Vhttp://trove.nla.gov.au/list?id=37500
p1529
sVtitle
p1530
VDunolly weather reports
p1531
sVlastupdated
p1532
V2013-03-29T08:51:18Z
p1533
sVcreated
p1534
V2013-03-29T01:04:10Z
p1535
sVcommentCount
p1536
I0
sVrelevance
p1537
(dp1538
Vscore
p1539
V1.0
p1540
sVvalue
p1541
Vvery relevant
p1542
ssVtagCount
p1543
I0
sVdate
p1544
g4
sVid
p1545
V37500
p1546
sa(dp1547
VlistItemCount
p1548
I29
sVcreator
p1549
Vpublic:Dunhs
p1550
sVurl
p1551
V/list/37466
p1552
sVtroveUrl
p1553
Vhttp://trove.nla.gov.au/list?id=37466
p1554
sVtitle
p1555
VDunolly Diggings
p1556
sVlastupdated
p1557
V2013-03-29T08:47:58Z
p1558
sVcreated
p1559
V2013-03-28T11:09:07Z
p1560
sVcommentCount
p1561
I0
sVrelevance
p1562
(dp1563
Vscore
p1564
V1.0
p1565
sVvalue
p1566
Vvery relevant
p1567
ssVtagCount
p1568
I0
sVdate
p1569
g4
sVid
p1570
V37466
p1571
sa(dp1572
VlistItemCount
p1573
I6
sVcreator
p1574
Vpublic:Dunhs
p1575
sVurl
p1576
V/list/37470
p1577
sVtroveUrl
p1578
Vhttp://trove.nla.gov.au/list?id=37470
p1579
sVtitle
p1580
VDunolly Accidents
p1581
sVlastupdated
p1582
V2013-03-29T08:58:55Z
p1583
sVcreated
p1584
V2013-03-28T11:35:37Z
p1585
sVcommentCount
p1586
I0
sVrelevance
p1587
(dp1588
Vscore
p1589
V1.0
p1590
sVvalue
p1591
Vvery relevant
p1592
ssVtagCount
p1593
I0
sVdate
p1594
g4
sVid
p1595
V37470
p1596
sa(dp1597
VlistItemCount
p1598
I3
sVcreator
p1599
Vpublic:Dunhs
p1600
sVurl
p1601
V/list/37505
p1602
sVtroveUrl
p1603
Vhttp://trove.nla.gov.au/list?id=37505
p1604
sVtitle
p1605
VDunolly Deaths
p1606
sVlastupdated
p1607
V2013-03-29T08:58:54Z
p1608
sVcreated
p1609
V2013-03-29T01:18:18Z
p1610
sVcommentCount
p1611
I0
sVrelevance
p1612
(dp1613
Vscore
p1614
V1.0
p1615
sVvalue
p1616
Vvery relevant
p1617
ssVtagCount
p1618
I0
sVdate
p1619
g4
sVid
p1620
V37505
p1621
sa(dp1622
VlistItemCount
p1623
I2
sVcreator
p1624
Vpublic:Dunhs
p1625
sVurl
p1626
V/list/37527
p1627
sVtroveUrl
p1628
Vhttp://trove.nla.gov.au/list?id=37527
p1629
sVtitle
p1630
VDunolly Shire Council
p1631
sVlastupdated
p1632
V2013-03-29T08:58:13Z
p1633
sVcreated
p1634
V2013-03-29T08:52:00Z
p1635
sVcommentCount
p1636
I0
sVrelevance
p1637
(dp1638
Vscore
p1639
V1.0
p1640
sVvalue
p1641
Vvery relevant
p1642
ssVtagCount
p1643
I0
sVdate
p1644
g4
sVid
p1645
V37527
p1646
sa(dp1647
VlistItemCount
p1648
I3
sVcreator
p1649
Vpublic:narelleholmes
p1650
sVurl
p1651
V/list/21638
p1652
sVtroveUrl
p1653
Vhttp://trove.nla.gov.au/list?id=21638
p1654
sVtitle
p1655
VWillis family
p1656
sVlastupdated
p1657
V2013-03-29T09:59:40Z
p1658
sVcreated
p1659
V2012-03-02T10:37:54Z
p1660
sVcommentCount
p1661
I0
sVrelevance
p1662
(dp1663
Vscore
p1664
V1.0
p1665
sVvalue
p1666
Vvery relevant
p1667
ssVtagCount
p1668
I0
sVdate
p1669
g4
sVid
p1670
V21638
p1671
sa(dp1672
VlistItemCount
p1673
I6
sVcreator
p1674
Vpublic:Dunhs
p1675
sVurl
p1676
V/list/37474
p1677
sVtroveUrl
p1678
Vhttp://trove.nla.gov.au/list?id=37474
p1679
sVtitle
p1680
VDunolly Water Supply
p1681
sVlastupdated
p1682
V2013-03-29T09:02:25Z
p1683
sVcreated
p1684
V2013-03-28T11:52:25Z
p1685
sVcommentCount
p1686
I0
sVrelevance
p1687
(dp1688
Vscore
p1689
V1.0
p1690
sVvalue
p1691
Vvery relevant
p1692
ssVtagCount
p1693
I0
sVdate
p1694
g4
sVid
p1695
V37474
p1696
sa(dp1697
VlistItemCount
p1698
I5
sVdescription
p1699
VJohn 'Jack' Thomas Anderson was born in Balldale NSW and was the nephew of George Power Anderson (of Collingwood Football Club fame}.<br/><br/>'Jack' played for St Kilda Football Club and then moved to Western Australia. He played football for Goldfields Railways and went on to be a top player for West Perth Football Club. He started with West Perth and played 3 seasons for them after which in 1937, after getting married he returned to Victoria to rejoin St.Kilda. He was guaranteed a place in the team for 1937 season and then asked for a clearance to Melbourne Football Club which was refused by St. Kilda. He and his wife then returned to Perth.<br/><br/>He raised his family of 2 girls in Western Australia and died in 1982 in Rockingham.
p1700
sVcreator
p1701
Vpublic:nanderson
p1702
sVurl
p1703
V/list/37420
p1704
sVtroveUrl
p1705
Vhttp://trove.nla.gov.au/list?id=37420
p1706
sVtitle
p1707
VJack Anderson,  St.Kilda Football Club, West Perth Football Club
p1708
sVlastupdated
p1709
V2013-03-28T09:07:47Z
p1710
sVcreated
p1711
V2013-03-27T04:24:33Z
p1712
sVcommentCount
p1713
I0
sVrelevance
p1714
(dp1715
Vscore
p1716
V1.0
p1717
sVvalue
p1718
Vvery relevant
p1719
ssVtagCount
p1720
I0
sVdate
p1721
g4
sVid
p1722
V37420
p1723
sa(dp1724
VlistItemCount
p1725
I1
sVcreator
p1726
Vpublic:lizziehow
p1727
sVurl
p1728
V/list/37469
p1729
sVtroveUrl
p1730
Vhttp://trove.nla.gov.au/list?id=37469
p1731
sVtitle
p1732
VEverything old is new again
p1733
sVlastupdated
p1734
V2013-03-28T11:25:29Z
p1735
sVcreated
p1736
V2013-03-28T11:25:29Z
p1737
sVcommentCount
p1738
I0
sVrelevance
p1739
(dp1740
Vscore
p1741
V1.0
p1742
sVvalue
p1743
Vvery relevant
p1744
ssVtagCount
p1745
I0
sVdate
p1746
g4
sVid
p1747
V37469
p1748
sa(dp1749
VlistItemCount
p1750
I1
sVcreator
p1751
Vpublic:Yvonne
p1752
sVurl
p1753
V/list/37478
p1754
sVtroveUrl
p1755
Vhttp://trove.nla.gov.au/list?id=37478
p1756
sVtitle
p1757
VLouisa Horne death
p1758
sVlastupdated
p1759
V2013-03-28T12:38:33Z
p1760
sVcreated
p1761
V2013-03-28T12:38:32Z
p1762
sVcommentCount
p1763
I0
sVrelevance
p1764
(dp1765
Vscore
p1766
V1.0
p1767
sVvalue
p1768
Vvery relevant
p1769
ssVtagCount
p1770
I0
sVdate
p1771
g4
sVid
p1772
V37478
p1773
sa(dp1774
VlistItemCount
p1775
I4
sVcreator
p1776
Vpublic:electra
p1777
sVurl
p1778
V/list/33411
p1779
sVtroveUrl
p1780
Vhttp://trove.nla.gov.au/list?id=33411
p1781
sVtitle
p1782
VTucker Family
p1783
sVlastupdated
p1784
V2013-03-28T13:15:50Z
p1785
sVcreated
p1786
V2012-12-29T08:49:30Z
p1787
sVcommentCount
p1788
I0
sVrelevance
p1789
(dp1790
Vscore
p1791
V1.0
p1792
sVvalue
p1793
Vvery relevant
p1794
ssVtagCount
p1795
I0
sVdate
p1796
g4
sVid
p1797
V33411
p1798
sa(dp1799
VlistItemCount
p1800
I1
sVcreator
p1801
Vpublic:aaronb
p1802
sVurl
p1803
V/list/37481
p1804
sVtroveUrl
p1805
Vhttp://trove.nla.gov.au/list?id=37481
p1806
sVtitle
p1807
VVivienne Martin (1927-2012)
p1808
sVlastupdated
p1809
V2013-03-28T13:40:02Z
p1810
sVcreated
p1811
V2013-03-28T13:40:02Z
p1812
sVcommentCount
p1813
I0
sVrelevance
p1814
(dp1815
Vscore
p1816
V1.0
p1817
sVvalue
p1818
Vvery relevant
p1819
ssVtagCount
p1820
I0
sVdate
p1821
g4
sVid
p1822
V37481
p1823
sa(dp1824
VlistItemCount
p1825
I7
sVcreator
p1826
Vpublic:Yvonne
p1827
sVurl
p1828
V/list/4827
p1829
sVtroveUrl
p1830
Vhttp://trove.nla.gov.au/list?id=4827
p1831
sVtitle
p1832
VHORNE Axel
p1833
sVlastupdated
p1834
V2013-03-28T13:11:03Z
p1835
sVcreated
p1836
V2011-01-08T12:50:44Z
p1837
sVcommentCount
p1838
I0
sVrelevance
p1839
(dp1840
Vscore
p1841
V1.0
p1842
sVvalue
p1843
Vvery relevant
p1844
ssVtagCount
p1845
I0
sVdate
p1846
g4
sVid
p1847
V4827
p1848
sa(dp1849
VlistItemCount
p1850
I122
sVdescription
p1851
VViolet Riseborough  and Mr. G. Pollard
p1852
sVcreator
p1853
Vpublic:Bob1
p1854
sVurl
p1855
V/list/36566
p1856
sVtroveUrl
p1857
Vhttp://trove.nla.gov.au/list?id=36566
p1858
sVtitle
p1859
VRiseborough
p1860
sVlastupdated
p1861
V2013-03-28T16:25:02Z
p1862
sVcreated
p1863
V2013-03-08T19:10:06Z
p1864
sVcommentCount
p1865
I0
sVrelevance
p1866
(dp1867
Vscore
p1868
V1.0
p1869
sVvalue
p1870
Vvery relevant
p1871
ssVtagCount
p1872
I0
sVdate
p1873
g4
sVid
p1874
V36566
p1875
sa(dp1876
VlistItemCount
p1877
I23
sVcreator
p1878
Vpublic:snu3
p1879
sVurl
p1880
V/list/6658
p1881
sVtroveUrl
p1882
Vhttp://trove.nla.gov.au/list?id=6658
p1883
sVtitle
p1884
VROBERTS family (descendants of George ROBERTS and Mary Ann SULLIVAN)
p1885
sVlastupdated
p1886
V2013-03-28T15:25:52Z
p1887
sVcreated
p1888
V2011-02-22T18:13:33Z
p1889
sVcommentCount
p1890
I0
sVrelevance
p1891
(dp1892
Vscore
p1893
V1.0
p1894
sVvalue
p1895
Vvery relevant
p1896
ssVtagCount
p1897
I0
sVdate
p1898
g4
sVid
p1899
V6658
p1900
sa(dp1901
VlistItemCount
p1902
I1
sVcreator
p1903
Vpublic:Dunhs
p1904
sVurl
p1905
V/list/37484
p1906
sVtroveUrl
p1907
Vhttp://trove.nla.gov.au/list?id=37484
p1908
sVtitle
p1909
VSt George Masonic Lodge Dunolly VIC
p1910
sVlastupdated
p1911
V2013-03-28T22:10:05Z
p1912
sVcreated
p1913
V2013-03-28T22:10:04Z
p1914
sVcommentCount
p1915
I0
sVrelevance
p1916
(dp1917
Vscore
p1918
V1.0
p1919
sVvalue
p1920
Vvery relevant
p1921
ssVtagCount
p1922
I0
sVdate
p1923
g4
sVid
p1924
V37484
p1925
sa(dp1926
VlistItemCount
p1927
I5
sVcreator
p1928
Vpublic:Dunhs
p1929
sVurl
p1930
V/list/37467
p1931
sVtroveUrl
p1932
Vhttp://trove.nla.gov.au/list?id=37467
p1933
sVtitle
p1934
VDunolly Horse Racing
p1935
sVlastupdated
p1936
V2013-03-28T22:58:00Z
p1937
sVcreated
p1938
V2013-03-28T11:16:26Z
p1939
sVcommentCount
p1940
I0
sVrelevance
p1941
(dp1942
Vscore
p1943
V1.0
p1944
sVvalue
p1945
Vvery relevant
p1946
ssVtagCount
p1947
I0
sVdate
p1948
g4
sVid
p1949
V37467
p1950
sa(dp1951
VlistItemCount
p1952
I2
sVcreator
p1953
Vpublic:Dunhs
p1954
sVurl
p1955
V/list/37477
p1956
sVtroveUrl
p1957
Vhttp://trove.nla.gov.au/list?id=37477
p1958
sVtitle
p1959
VDunolly township
p1960
sVlastupdated
p1961
V2013-03-28T23:19:36Z
p1962
sVcreated
p1963
V2013-03-28T12:22:13Z
p1964
sVcommentCount
p1965
I0
sVrelevance
p1966
(dp1967
Vscore
p1968
V1.0
p1969
sVvalue
p1970
Vvery relevant
p1971
ssVtagCount
p1972
I0
sVdate
p1973
g4
sVid
p1974
V37477
p1975
sa(dp1976
VlistItemCount
p1977
I51
sVcreator
p1978
Vpublic:Drewy
p1979
sVurl
p1980
V/list/11292
p1981
sVtroveUrl
p1982
Vhttp://trove.nla.gov.au/list?id=11292
p1983
sVtitle
p1984
VAustralian authors
p1985
sVlastupdated
p1986
V2013-03-29T00:00:42Z
p1987
sVcreated
p1988
V2011-06-20T13:40:56Z
p1989
sVcommentCount
p1990
I0
sVrelevance
p1991
(dp1992
Vscore
p1993
V1.0
p1994
sVvalue
p1995
Vvery relevant
p1996
ssVtagCount
p1997
I0
sVdate
p1998
g4
sVid
p1999
V11292
p2000
sa(dp2001
VlistItemCount
p2002
I1
sVcreator
p2003
Vpublic:Dunhs
p2004
sVurl
p2005
V/list/37492
p2006
sVtroveUrl
p2007
Vhttp://trove.nla.gov.au/list?id=37492
p2008
sVtitle
p2009
VDunolly Hotels
p2010
sVlastupdated
p2011
V2013-03-28T23:35:05Z
p2012
sVcreated
p2013
V2013-03-28T23:35:03Z
p2014
sVcommentCount
p2015
I0
sVrelevance
p2016
(dp2017
Vscore
p2018
V1.0
p2019
sVvalue
p2020
Vvery relevant
p2021
ssVtagCount
p2022
I0
sVdate
p2023
g4
sVid
p2024
V37492
p2025
sa(dp2026
VlistItemCount
p2027
I4
sVcreator
p2028
Vpublic:Dunhs
p2029
sVurl
p2030
V/list/37468
p2031
sVtroveUrl
p2032
Vhttp://trove.nla.gov.au/list?id=37468
p2033
sVtitle
p2034
VDunolly businesses
p2035
sVlastupdated
p2036
V2013-03-29T00:32:46Z
p2037
sVcreated
p2038
V2013-03-28T11:23:09Z
p2039
sVcommentCount
p2040
I0
sVrelevance
p2041
(dp2042
Vscore
p2043
V1.0
p2044
sVvalue
p2045
Vvery relevant
p2046
ssVtagCount
p2047
I0
sVdate
p2048
g4
sVid
p2049
V37468
p2050
sa(dp2051
VlistItemCount
p2052
I6
sVcreator
p2053
Vpublic:Dunhs
p2054
sVurl
p2055
V/list/37489
p2056
sVtroveUrl
p2057
Vhttp://trove.nla.gov.au/list?id=37489
p2058
sVtitle
p2059
VDunolly Mining
p2060
sVlastupdated
p2061
V2013-03-29T00:34:49Z
p2062
sVcreated
p2063
V2013-03-28T22:47:42Z
p2064
sVcommentCount
p2065
I0
sVrelevance
p2066
(dp2067
Vscore
p2068
V1.0
p2069
sVvalue
p2070
Vvery relevant
p2071
ssVtagCount
p2072
I0
sVdate
p2073
g4
sVid
p2074
V37489
p2075
sa(dp2076
VlistItemCount
p2077
I0
sVcreator
p2078
Vpublic:Dunhs
p2079
sVurl
p2080
V/list/37497
p2081
sVtroveUrl
p2082
Vhttp://trove.nla.gov.au/list?id=37497
p2083
sVtitle
p2084
VDunolly farming
p2085
sVlastupdated
p2086
V2013-03-29T00:35:02Z
p2087
sVcreated
p2088
V2013-03-29T00:34:49Z
p2089
sVcommentCount
p2090
I0
sVrelevance
p2091
(dp2092
Vscore
p2093
V1.0
p2094
sVvalue
p2095
Vvery relevant
p2096
ssVtagCount
p2097
I0
sVdate
p2098
g4
sVid
p2099
V37497
p2100
sa(dp2101
VlistItemCount
p2102
I1
sVcreator
p2103
Vpublic:Dunhs
p2104
sVurl
p2105
V/list/37496
p2106
sVtroveUrl
p2107
Vhttp://trove.nla.gov.au/list?id=37496
p2108
sVtitle
p2109
VDunolly Common
p2110
sVlastupdated
p2111
V2013-03-29T00:31:52Z
p2112
sVcreated
p2113
V2013-03-29T00:31:52Z
p2114
sVcommentCount
p2115
I0
sVrelevance
p2116
(dp2117
Vscore
p2118
V1.0
p2119
sVvalue
p2120
Vvery relevant
p2121
ssVtagCount
p2122
I0
sVdate
p2123
g4
sVid
p2124
V37496
p2125
sa(dp2126
VlistItemCount
p2127
I1
sVcreator
p2128
Vpublic:Dunhs
p2129
sVurl
p2130
V/list/37502
p2131
sVtroveUrl
p2132
Vhttp://trove.nla.gov.au/list?id=37502
p2133
sVtitle
p2134
VDunolly gardening
p2135
sVlastupdated
p2136
V2013-03-29T01:08:01Z
p2137
sVcreated
p2138
V2013-03-29T01:08:00Z
p2139
sVcommentCount
p2140
I0
sVrelevance
p2141
(dp2142
Vscore
p2143
V1.0
p2144
sVvalue
p2145
Vvery relevant
p2146
ssVtagCount
p2147
I0
sVdate
p2148
g4
sVid
p2149
V37502
p2150
sa(dp2151
VlistItemCount
p2152
I2
sVcreator
p2153
Vpublic:Dunhs
p2154
sVurl
p2155
V/list/37486
p2156
sVtroveUrl
p2157
Vhttp://trove.nla.gov.au/list?id=37486
p2158
sVtitle
p2159
VDunolly Epidemics
p2160
sVlastupdated
p2161
V2013-03-29T00:34:01Z
p2162
sVcreated
p2163
V2013-03-28T22:26:17Z
p2164
sVcommentCount
p2165
I0
sVrelevance
p2166
(dp2167
Vscore
p2168
V1.0
p2169
sVvalue
p2170
Vvery relevant
p2171
ssVtagCount
p2172
I0
sVdate
p2173
g4
sVid
p2174
V37486
p2175
sa(dp2176
VlistItemCount
p2177
I1
sVcreator
p2178
Vpublic:Dunhs
p2179
sVurl
p2180
V/list/37499
p2181
sVtroveUrl
p2182
Vhttp://trove.nla.gov.au/list?id=37499
p2183
sVtitle
p2184
VDunolly M.U.I.O.O.F
p2185
sVlastupdated
p2186
V2013-03-29T01:02:44Z
p2187
sVcreated
p2188
V2013-03-29T01:02:44Z
p2189
sVcommentCount
p2190
I0
sVrelevance
p2191
(dp2192
Vscore
p2193
V1.0
p2194
sVvalue
p2195
Vvery relevant
p2196
ssVtagCount
p2197
I0
sVdate
p2198
g4
sVid
p2199
V37499
p2200
sa(dp2201
VlistItemCount
p2202
I1
sVcreator
p2203
Vpublic:Dunhs
p2204
sVurl
p2205
V/list/37503
p2206
sVtroveUrl
p2207
Vhttp://trove.nla.gov.au/list?id=37503
p2208
sVtitle
p2209
VDunolly Horticultural Society
p2210
sVlastupdated
p2211
V2013-03-29T01:10:28Z
p2212
sVcreated
p2213
V2013-03-29T01:10:27Z
p2214
sVcommentCount
p2215
I0
sVrelevance
p2216
(dp2217
Vscore
p2218
V1.0
p2219
sVvalue
p2220
Vvery relevant
p2221
ssVtagCount
p2222
I0
sVdate
p2223
g4
sVid
p2224
V37503
p2225
sa(dp2226
VlistItemCount
p2227
I7
sVcreator
p2228
Vpublic:Dunhs
p2229
sVurl
p2230
V/list/37473
p2231
sVtroveUrl
p2232
Vhttp://trove.nla.gov.au/list?id=37473
p2233
sVtitle
p2234
VDunolly Hospital Victoria
p2235
sVlastupdated
p2236
V2013-03-29T01:43:14Z
p2237
sVcreated
p2238
V2013-03-28T11:49:56Z
p2239
sVcommentCount
p2240
I0
sVrelevance
p2241
(dp2242
Vscore
p2243
V1.0
p2244
sVvalue
p2245
Vvery relevant
p2246
ssVtagCount
p2247
I0
sVdate
p2248
g4
sVid
p2249
V37473
p2250
sa(dp2251
VlistItemCount
p2252
I4
sVcreator
p2253
Vpublic:Dunhs
p2254
sVurl
p2255
V/list/37487
p2256
sVtroveUrl
p2257
Vhttp://trove.nla.gov.au/list?id=37487
p2258
sVtitle
p2259
VDunolly weather events
p2260
sVlastupdated
p2261
V2013-03-29T01:30:28Z
p2262
sVcreated
p2263
V2013-03-28T22:33:54Z
p2264
sVcommentCount
p2265
I0
sVrelevance
p2266
(dp2267
Vscore
p2268
V1.0
p2269
sVvalue
p2270
Vvery relevant
p2271
ssVtagCount
p2272
I0
sVdate
p2273
g4
sVid
p2274
V37487
p2275
sa(dp2276
VlistItemCount
p2277
I4
sVcreator
p2278
Vpublic:Dunhs
p2279
sVurl
p2280
V/list/37498
p2281
sVtroveUrl
p2282
Vhttp://trove.nla.gov.au/list?id=37498
p2283
sVtitle
p2284
VDunolly Football
p2285
sVlastupdated
p2286
V2013-03-29T01:34:47Z
p2287
sVcreated
p2288
V2013-03-29T00:35:50Z
p2289
sVcommentCount
p2290
I0
sVrelevance
p2291
(dp2292
Vscore
p2293
V1.0
p2294
sVvalue
p2295
Vvery relevant
p2296
ssVtagCount
p2297
I0
sVdate
p2298
g4
sVid
p2299
V37498
p2300
sa(dp2301
VlistItemCount
p2302
I4
sVcreator
p2303
Vpublic:Dunhs
p2304
sVurl
p2305
V/list/37491
p2306
sVtroveUrl
p2307
Vhttp://trove.nla.gov.au/list?id=37491
p2308
sVtitle
p2309
VDunolly Crimes
p2310
sVlastupdated
p2311
V2013-03-29T02:01:55Z
p2312
sVcreated
p2313
V2013-03-28T23:13:03Z
p2314
sVcommentCount
p2315
I0
sVrelevance
p2316
(dp2317
Vscore
p2318
V1.0
p2319
sVvalue
p2320
Vvery relevant
p2321
ssVtagCount
p2322
I0
sVdate
p2323
g4
sVid
p2324
V37491
p2325
sa(dp2326
VlistItemCount
p2327
I9
sVcreator
p2328
Vpublic:Dunhs
p2329
sVurl
p2330
V/list/37475
p2331
sVtroveUrl
p2332
Vhttp://trove.nla.gov.au/list?id=37475
p2333
sVtitle
p2334
VDunolly residents
p2335
sVlastupdated
p2336
V2013-03-29T02:07:23Z
p2337
sVcreated
p2338
V2013-03-28T11:56:43Z
p2339
sVcommentCount
p2340
I0
sVrelevance
p2341
(dp2342
Vscore
p2343
V1.0
p2344
sVvalue
p2345
Vvery relevant
p2346
ssVtagCount
p2347
I0
sVdate
p2348
g4
sVid
p2349
V37475
p2350
sa(dp2351
VlistItemCount
p2352
I16
sVcreator
p2353
Vpublic:Dunhs
p2354
sVurl
p2355
V/list/37472
p2356
sVtroveUrl
p2357
Vhttp://trove.nla.gov.au/list?id=37472
p2358
sVtitle
p2359
VDunolly politics
p2360
sVlastupdated
p2361
V2013-03-29T02:06:18Z
p2362
sVcreated
p2363
V2013-03-28T11:46:37Z
p2364
sVcommentCount
p2365
I0
sVrelevance
p2366
(dp2367
Vscore
p2368
V1.0
p2369
sVvalue
p2370
Vvery relevant
p2371
ssVtagCount
p2372
I0
sVdate
p2373
g4
sVid
p2374
V37472
p2375
sa(dp2376
VlistItemCount
p2377
I2
sVcreator
p2378
Vpublic:Dunhs
p2379
sVurl
p2380
V/list/37504
p2381
sVtroveUrl
p2382
Vhttp://trove.nla.gov.au/list?id=37504
p2383
sVtitle
p2384
VDunolly  Agricultural Show
p2385
sVlastupdated
p2386
V2013-03-29T01:57:51Z
p2387
sVcreated
p2388
V2013-03-29T01:12:10Z
p2389
sVcommentCount
p2390
I0
sVrelevance
p2391
(dp2392
Vscore
p2393
V1.0
p2394
sVvalue
p2395
Vvery relevant
p2396
ssVtagCount
p2397
I0
sVdate
p2398
g4
sVid
p2399
V37504
p2400
sa(dp2401
VlistItemCount
p2402
I4
sVcreator
p2403
Vpublic:jmglover
p2404
sVurl
p2405
V/list/4789
p2406
sVtroveUrl
p2407
Vhttp://trove.nla.gov.au/list?id=4789
p2408
sVtitle
p2409
VThom family
p2410
sVlastupdated
p2411
V2013-03-29T10:19:14Z
p2412
sVcreated
p2413
V2011-01-08T04:14:35Z
p2414
sVcommentCount
p2415
I0
sVrelevance
p2416
(dp2417
Vscore
p2418
V1.0
p2419
sVvalue
p2420
Vvery relevant
p2421
ssVtagCount
p2422
I0
sVdate
p2423
g4
sVid
p2424
V4789
p2425
sa(dp2426
VlistItemCount
p2427
I1
sVcreator
p2428
Vpublic:peterthrupp
p2429
sVurl
p2430
V/list/37531
p2431
sVtroveUrl
p2432
Vhttp://trove.nla.gov.au/list?id=37531
p2433
sVtitle
p2434
VRobert Henry Thrupp born 1898
p2435
sVlastupdated
p2436
V2013-03-29T10:28:05Z
p2437
sVcreated
p2438
V2013-03-29T10:28:05Z
p2439
sVcommentCount
p2440
I0
sVrelevance
p2441
(dp2442
Vscore
p2443
V1.0
p2444
sVvalue
p2445
Vvery relevant
p2446
ssVtagCount
p2447
I0
sVdate
p2448
g4
sVid
p2449
V37531
p2450
sa(dp2451
VlistItemCount
p2452
I2
sVcreator
p2453
Vpublic:peterthrupp
p2454
sVurl
p2455
V/list/37518
p2456
sVtroveUrl
p2457
Vhttp://trove.nla.gov.au/list?id=37518
p2458
sVtitle
p2459
VBertram  Moffat Thrupp
p2460
sVlastupdated
p2461
V2013-03-29T10:54:02Z
p2462
sVcreated
p2463
V2013-03-29T06:17:01Z
p2464
sVcommentCount
p2465
I0
sVrelevance
p2466
(dp2467
Vscore
p2468
V1.0
p2469
sVvalue
p2470
Vvery relevant
p2471
ssVtagCount
p2472
I0
sVdate
p2473
g4
sVid
p2474
V37518
p2475
sa(dp2476
VlistItemCount
p2477
I2
sVcreator
p2478
Vpublic:peterthrupp
p2479
sVurl
p2480
V/list/37532
p2481
sVtroveUrl
p2482
Vhttp://trove.nla.gov.au/list?id=37532
p2483
sVtitle
p2484
VCharles Herbert Thrupp born 1872
p2485
sVlastupdated
p2486
V2013-03-29T10:47:53Z
p2487
sVcreated
p2488
V2013-03-29T10:47:20Z
p2489
sVcommentCount
p2490
I0
sVrelevance
p2491
(dp2492
Vscore
p2493
V1.0
p2494
sVvalue
p2495
Vvery relevant
p2496
ssVtagCount
p2497
I0
sVdate
p2498
g4
sVid
p2499
V37532
p2500
sa(dp2501
VlistItemCount
p2502
I1
sVdescription
p2503
VArticles relating to Hendersons at "Rosslyn, Woodhouselee" (now Roslyn).
p2504
sVcreator
p2505
Vpublic:rod.mcinnes
p2506
sVurl
p2507
V/list/37533
p2508
sVtroveUrl
p2509
Vhttp://trove.nla.gov.au/list?id=37533
p2510
sVtitle
p2511
VHenderson
p2512
sVlastupdated
p2513
V2013-03-29T10:48:29Z
p2514
sVcreated
p2515
V2013-03-29T10:48:29Z
p2516
sVcommentCount
p2517
I0
sVrelevance
p2518
(dp2519
Vscore
p2520
V1.0
p2521
sVvalue
p2522
Vvery relevant
p2523
ssVtagCount
p2524
I0
sVdate
p2525
g4
sVid
p2526
V37533
p2527
sa(dp2528
VlistItemCount
p2529
I1
sVcreator
p2530
Vpublic:peterthrupp
p2531
sVurl
p2532
V/list/37534
p2533
sVtroveUrl
p2534
Vhttp://trove.nla.gov.au/list?id=37534
p2535
sVtitle
p2536
VCyril Lloyd Thrupp born 1896
p2537
sVlastupdated
p2538
V2013-03-29T11:15:22Z
p2539
sVcreated
p2540
V2013-03-29T11:15:22Z
p2541
sVcommentCount
p2542
I0
sVrelevance
p2543
(dp2544
Vscore
p2545
V1.0
p2546
sVvalue
p2547
Vvery relevant
p2548
ssVtagCount
p2549
I0
sVdate
p2550
g4
sVid
p2551
V37534
p2552
sa(dp2553
VlistItemCount
p2554
I1
sVcreator
p2555
Vpublic:smart376
p2556
sVurl
p2557
V/list/37540
p2558
sVtroveUrl
p2559
Vhttp://trove.nla.gov.au/list?id=37540
p2560
sVtitle
p2561
Vgilbank
p2562
sVlastupdated
p2563
V2013-03-29T13:45:40Z
p2564
sVcreated
p2565
V2013-03-29T13:45:40Z
p2566
sVcommentCount
p2567
I0
sVrelevance
p2568
(dp2569
Vscore
p2570
V1.0
p2571
sVvalue
p2572
Vvery relevant
p2573
ssVtagCount
p2574
I0
sVdate
p2575
g4
sVid
p2576
V37540
p2577
sasVn
p2578
V100
p2579
ssVname
p2580
Vlist
p2581
sass.