(dp0
Vresponse
p1
(dp2
Vquery
p3
V
p4
sVzone
p5
(lp6
(dp7
Vrecords
p8
(dp9
Vwork
p10
(lp11
(dp12
Vtitle
p13
VThe Asian connection: preliminary report on Indonesian trepang sites on the Kimberley coast, N. W. Australia
p14
sVurl
p15
V/work/39019424
p16
sVtroveUrl
p17
Vhttp://trove.nla.gov.au/work/39019424
p18
sVversionCount
p19
I1
sVisPartOf
p20
VArchaeology in Oceania
p21
sVholdingsCount
p22
I0
sVrelevance
p23
(dp24
Vscore
p25
V1.0
p26
sVvalue
p27
Vlikely to be relevant
p28
ssVissued
p29
I1997
sVcontributor
p30
(lp31
VMorwood, M. J
p32
aV Hobbs, D. R
p33
asVtype
p34
(lp35
VMap
p36
aVArticle
p37
aVArticle/Journal or magazine article
p38
asVid
p39
V39019424
p40
sa(dp41
Vtitle
p42
VCarved and painted rock images in the Marquesas Islands, French Polynesia
p43
sVurl
p44
V/work/39019423
p45
sVtroveUrl
p46
Vhttp://trove.nla.gov.au/work/39019423
p47
sVversionCount
p48
I1
sVisPartOf
p49
VArchaeology in Oceania
p50
sVholdingsCount
p51
I0
sVrelevance
p52
(dp53
Vscore
p54
V1.0
p55
sVvalue
p56
Vlikely to be relevant
p57
ssVissued
p58
I1997
sVcontributor
p59
(lp60
VMillerstrom, Sidsel N
p61
asVtype
p62
(lp63
VMap
p64
aVArticle
p65
aVArticle/Journal or magazine article
p66
asVid
p67
V39019423
p68
sa(dp69
Vtitle
p70
VThe prehistoric chronology of Raoul Island, the Kermadec Group
p71
sVurl
p72
V/work/39019425
p73
sVtroveUrl
p74
Vhttp://trove.nla.gov.au/work/39019425
p75
sVversionCount
p76
I1
sVisPartOf
p77
VArchaeology in Oceania
p78
sVholdingsCount
p79
I0
sVrelevance
p80
(dp81
Vscore
p82
V1.0
p83
sVvalue
p84
Vlikely to be relevant
p85
ssVissued
p86
I1997
sVcontributor
p87
(lp88
VHigham, Thomas
p89
aV Johnson, Leigh
p90
asVtype
p91
(lp92
VMap
p93
aVArticle
p94
aVArticle/Journal or magazine article
p95
asVid
p96
V39019425
p97
sa(dp98
Vtitle
p99
VBotany Bay Francaise. -The National Library's French holdings offer a fascinating perspective on Australia's convict past-
p100
sVurl
p101
V/work/39019863
p102
sVtroveUrl
p103
Vhttp://trove.nla.gov.au/work/39019863
p104
sVversionCount
p105
I1
sVisPartOf
p106
VNational Library of Australia News
p107
sVholdingsCount
p108
I0
sVrelevance
p109
(dp110
Vscore
p111
V1.0
p112
sVvalue
p113
Vlikely to be relevant
p114
ssVissued
p115
I1997
sVcontributor
p116
(lp117
VForster, Honore
p118
asVidentifier
p119
(lp120
(dp121
Vlinktype
p122
Vfulltext
p123
sVtype
p124
Vurl
p125
sVvalue
p126
Vhttp://www.nla.gov.au/pub/nlanews/1997/nov97/story-1.pdf
p127
sasVtype
p128
(lp129
VMap
p130
aVArticle
p131
aVArticle/Journal or magazine article
p132
asVid
p133
V39019863
p134
sa(dp135
Vtitle
p136
VPlanners on top: surveying 30 years of the NCDC [Edited version of a talk given to the Canberra and District Historical Society, March 1997.]
p137
sVurl
p138
V/work/39020030
p139
sVtroveUrl
p140
Vhttp://trove.nla.gov.au/work/39020030
p141
sVversionCount
p142
I1
sVisPartOf
p143
VCanberra Historical Journal
p144
sVholdingsCount
p145
I0
sVrelevance
p146
(dp147
Vscore
p148
V1.0
p149
sVvalue
p150
Vlikely to be relevant
p151
ssVissued
p152
I1997
sVcontributor
p153
(lp154
VKillen, Darryl
p155
asVtype
p156
(lp157
VMap
p158
aVArticle
p159
aVArticle/Journal or magazine article
p160
asVid
p161
V39020030
p162
sa(dp163
Vtitle
p164
VEvaluating a corporate geographic information system (GIS): a case study in a coastal rural catchment
p165
sVurl
p166
V/work/39020235
p167
sVtroveUrl
p168
Vhttp://trove.nla.gov.au/work/39020235
p169
sVversionCount
p170
I1
sVisPartOf
p171
VAustralian Journal of Environmental Management
p172
sVholdingsCount
p173
I0
sVrelevance
p174
(dp175
Vscore
p176
V1.0
p177
sVvalue
p178
Vlikely to be relevant
p179
ssVissued
p180
I1997
sVcontributor
p181
(lp182
VJohnson, Andrew
p183
aV Walker, Daniel
p184
asVtype
p185
(lp186
VMap
p187
aVArticle
p188
aVArticle/Journal or magazine article
p189
asVid
p190
V39020235
p191
sa(dp192
Vtitle
p193
VControlling places: a history of spatial intent in Western Australian convictism
p194
sVurl
p195
V/work/39020784
p196
sVtroveUrl
p197
Vhttp://trove.nla.gov.au/work/39020784
p198
sVversionCount
p199
I1
sVisPartOf
p200
VStudies in Western Australian History
p201
sVholdingsCount
p202
I0
sVrelevance
p203
(dp204
Vscore
p205
V1.0
p206
sVvalue
p207
Vlikely to be relevant
p208
ssVissued
p209
I1997
sVcontributor
p210
(lp211
VTrinca, Mathew
p212
asVtype
p213
(lp214
VMap
p215
aVArticle
p216
aVArticle/Journal or magazine article
p217
asVid
p218
V39020784
p219
sa(dp220
Vtitle
p221
VLandscapes of meaning: Joseph Lucas Horrocks and the Gwalla Estate, Northampton
p222
sVurl
p223
V/work/39020785
p224
sVtroveUrl
p225
Vhttp://trove.nla.gov.au/work/39020785
p226
sVversionCount
p227
I1
sVisPartOf
p228
VStudies in Western Australian History
p229
sVholdingsCount
p230
I0
sVrelevance
p231
(dp232
Vscore
p233
V1.0
p234
sVvalue
p235
Vlikely to be relevant
p236
ssVissued
p237
I1997
sVcontributor
p238
(lp239
VGibbs, Martin
p240
asVtype
p241
(lp242
VMap
p243
aVArticle
p244
aVArticle/Journal or magazine article
p245
asVid
p246
V39020785
p247
sa(dp248
Vtitle
p249
VPlacing the past: Aboriginal historical places in East Gippsland, Victoria
p250
sVurl
p251
V/work/39020808
p252
sVtroveUrl
p253
Vhttp://trove.nla.gov.au/work/39020808
p254
sVversionCount
p255
I1
sVisPartOf
p256
VHistoric Environment
p257
sVholdingsCount
p258
I0
sVrelevance
p259
(dp260
Vscore
p261
V1.0
p262
sVvalue
p263
Vlikely to be relevant
p264
ssVissued
p265
I1997
sVcontributor
p266
(lp267
VGoulding, Megan
p268
asVtype
p269
(lp270
VMap
p271
aVArticle
p272
aVArticle/Journal or magazine article
p273
asVid
p274
V39020808
p275
sa(dp276
Vtitle
p277
VItalian influence on 'The Parade': Norwood's main street
p278
sVurl
p279
V/work/39020807
p280
sVtroveUrl
p281
Vhttp://trove.nla.gov.au/work/39020807
p282
sVversionCount
p283
I1
sVisPartOf
p284
VHistoric Environment
p285
sVholdingsCount
p286
I0
sVrelevance
p287
(dp288
Vscore
p289
V1.0
p290
sVvalue
p291
Vlikely to be relevant
p292
ssVissued
p293
I1997
sVcontributor
p294
(lp295
VChessell, Diana
p296
asVtype
p297
(lp298
VMap
p299
aVArticle
p300
aVArticle/Journal or magazine article
p301
asVid
p302
V39020807
p303
sa(dp304
Vtitle
p305
VLiving traditions and cultural heritage: Silver Plains homestead
p306
sVurl
p307
V/work/39020809
p308
sVtroveUrl
p309
Vhttp://trove.nla.gov.au/work/39020809
p310
sVversionCount
p311
I1
sVisPartOf
p312
VHistoric Environment
p313
sVholdingsCount
p314
I0
sVrelevance
p315
(dp316
Vscore
p317
V1.0
p318
sVvalue
p319
Vlikely to be relevant
p320
ssVissued
p321
I1997
sVcontributor
p322
(lp323
VJolly, Lesley
p324
aV Jolly, Paul
p325
asVtype
p326
(lp327
VMap
p328
aVArticle
p329
aVArticle/Journal or magazine article
p330
asVid
p331
V39020809
p332
sa(dp333
Vtitle
p334
VAge structure of the karri forest [Series of two parts]: Part 1: Defining and mapping structural development stages. Part 2: Projections of future forest structure and implications for management
p335
sVurl
p336
V/work/39020924
p337
sVtroveUrl
p338
Vhttp://trove.nla.gov.au/work/39020924
p339
sVversionCount
p340
I1
sVisPartOf
p341
VAustralian Forestry
p342
sVholdingsCount
p343
I0
sVrelevance
p344
(dp345
Vscore
p346
V1.0
p347
sVvalue
p348
Vlikely to be relevant
p349
ssVissued
p350
I1997
sVcontributor
p351
(lp352
VBradshaw, F. J
p353
aV Rayner, M. E
p354
asVtype
p355
(lp356
VMap
p357
aVArticle
p358
aVArticle/Journal or magazine article
p359
asVid
p360
V39020924
p361
sa(dp362
Vtitle
p363
VThe Xinjiang question of the 1940s: the story behind the Sino Soviet Treaty of August 1945
p364
sVurl
p365
V/work/39021298
p366
sVtroveUrl
p367
Vhttp://trove.nla.gov.au/work/39021298
p368
sVversionCount
p369
I1
sVisPartOf
p370
VAsian Studies Review
p371
sVholdingsCount
p372
I0
sVrelevance
p373
(dp374
Vscore
p375
V1.0
p376
sVvalue
p377
Vlikely to be relevant
p378
ssVissued
p379
I1997
sVcontributor
p380
(lp381
VWang, David
p382
asVtype
p383
(lp384
VMap
p385
aVArticle
p386
aVArticle/Journal or magazine article
p387
asVid
p388
V39021298
p389
sa(dp390
Vtitle
p391
VMental maps of Asia: the geographical knowledge of Australian university students
p392
sVurl
p393
V/work/39021300
p394
sVtroveUrl
p395
Vhttp://trove.nla.gov.au/work/39021300
p396
sVversionCount
p397
I1
sVisPartOf
p398
VAsian Studies Review
p399
sVholdingsCount
p400
I0
sVrelevance
p401
(dp402
Vscore
p403
V1.0
p404
sVvalue
p405
Vlikely to be relevant
p406
ssVissued
p407
I1997
sVcontributor
p408
(lp409
VAndressen, Curtis
p410
asVtype
p411
(lp412
VMap
p413
aVArticle
p414
aVArticle/Journal or magazine article
p415
asVid
p416
V39021300
p417
sa(dp418
Vtitle
p419
VDam mania and the mighty Mekong [People and environments in the Mekong River basin are sure to suffer if proposals to construct nearly 60 dams along the river and its tributaries proceed.]
p420
sVurl
p421
V/work/39021320
p422
sVtroveUrl
p423
Vhttp://trove.nla.gov.au/work/39021320
p424
sVversionCount
p425
I1
sVisPartOf
p426
VHabitat Australia
p427
sVholdingsCount
p428
I0
sVrelevance
p429
(dp430
Vscore
p431
V1.0
p432
sVvalue
p433
Vlikely to be relevant
p434
ssVissued
p435
I1997
sVcontributor
p436
(lp437
VRhiannon, Lee
p438
aV Brooke, Celia
p439
asVtype
p440
(lp441
VMap
p442
aVArticle
p443
aVArticle/Journal or magazine article
p444
asVid
p445
V39021320
p446
sa(dp447
Vtitle
p448
VEarly pottery exchange along the South coast of Papua New Guinea
p449
sVurl
p450
V/work/39021443
p451
sVtroveUrl
p452
Vhttp://trove.nla.gov.au/work/39021443
p453
sVversionCount
p454
I1
sVisPartOf
p455
VArchaeology in Oceania
p456
sVholdingsCount
p457
I0
sVrelevance
p458
(dp459
Vscore
p460
V1.0
p461
sVvalue
p462
Vlikely to be relevant
p463
ssVissued
p464
I1997
sVcontributor
p465
(lp466
VBickler, Simon Hillel
p467
asVtype
p468
(lp469
VMap
p470
aVArticle
p471
aVArticle/Journal or magazine article
p472
asVid
p473
V39021443
p474
sa(dp475
Vtitle
p476
VBone collagen diagenesis at Roonka Flat, South Australia: implications for isotopic analysis
p477
sVurl
p478
V/work/39021445
p479
sVtroveUrl
p480
Vhttp://trove.nla.gov.au/work/39021445
p481
sVversionCount
p482
I1
sVisPartOf
p483
VArchaeology in Oceania
p484
sVholdingsCount
p485
I0
sVrelevance
p486
(dp487
Vscore
p488
V1.0
p489
sVvalue
p490
Vlikely to be relevant
p491
ssVissued
p492
I1997
sVcontributor
p493
(lp494
VPate, F. Donald
p495
asVtype
p496
(lp497
VMap
p498
aVArticle
p499
aVArticle/Journal or magazine article
p500
asVid
p501
V39021445
p502
sa(dp503
Vtitle
p504
VThe urban land market in Shanghai
p505
sVurl
p506
V/work/39021390
p507
sVtroveUrl
p508
Vhttp://trove.nla.gov.au/work/39021390
p509
sVversionCount
p510
I1
sVisPartOf
p511
VValuer and Land Economist
p512
sVholdingsCount
p513
I0
sVrelevance
p514
(dp515
Vscore
p516
V1.0
p517
sVvalue
p518
Vlikely to be relevant
p519
ssVissued
p520
I1997
sVcontributor
p521
(lp522
VLi, Ling Hin
p523
asVtype
p524
(lp525
VMap
p526
aVArticle
p527
aVArticle/Journal or magazine article
p528
asVid
p529
V39021390
p530
sa(dp531
Vtitle
p532
VThe morphology, function and antiquity of Australian grinding implements
p533
sVurl
p534
V/work/39021442
p535
sVtroveUrl
p536
Vhttp://trove.nla.gov.au/work/39021442
p537
sVversionCount
p538
I1
sVisPartOf
p539
VArchaeology in Oceania
p540
sVholdingsCount
p541
I0
sVrelevance
p542
(dp543
Vscore
p544
V1.0
p545
sVvalue
p546
Vlikely to be relevant
p547
ssVissued
p548
I1997
sVcontributor
p549
(lp550
VGorecki, Paul and others
p551
asVtype
p552
(lp553
VMap
p554
aVArticle
p555
aVArticle/Journal or magazine article
p556
asVid
p557
V39021442
p558
sa(dp559
Vtitle
p560
VAmino acid racemisation and radiocarbon dating of a contact period midden, Greenglade rockshelter, New South Wales
p561
sVurl
p562
V/work/39021444
p563
sVtroveUrl
p564
Vhttp://trove.nla.gov.au/work/39021444
p565
sVversionCount
p566
I1
sVisPartOf
p567
VArchaeology in Oceania
p568
sVholdingsCount
p569
I0
sVrelevance
p570
(dp571
Vscore
p572
V1.0
p573
sVvalue
p574
Vlikely to be relevant
p575
ssVissued
p576
I1997
sVcontributor
p577
(lp578
VMurray-Wallace, Colin V
p579
aV Colley, Sarah
p580
asVtype
p581
(lp582
VMap
p583
aVArticle
p584
aVArticle/Journal or magazine article
p585
asVid
p586
V39021444
p587
sa(dp588
Vtitle
p589
VEscape!. -National Library of Australia's holdings of classic World War 2 escape stories-
p590
sVurl
p591
V/work/39021628
p592
sVtroveUrl
p593
Vhttp://trove.nla.gov.au/work/39021628
p594
sVversionCount
p595
I1
sVisPartOf
p596
VNational Library of Australia News
p597
sVholdingsCount
p598
I0
sVrelevance
p599
(dp600
Vscore
p601
V1.0
p602
sVvalue
p603
Vlikely to be relevant
p604
ssVissued
p605
I1997
sVcontributor
p606
(lp607
VDuyker, Edward
p608
asVidentifier
p609
(lp610
(dp611
Vlinktype
p612
Vfulltext
p613
sVtype
p614
Vurl
p615
sVvalue
p616
Vhttp://www.nla.gov.au/pub/nlanews/1997/aug97/story-2.pdf
p617
sasVtype
p618
(lp619
VMap
p620
aVArticle
p621
aVArticle/Journal or magazine article
p622
asVid
p623
V39021628
p624
sa(dp625
Vtitle
p626
VBank branch closures in rural communities. [Taken from the Report on the Impact of Bank Branch Closure on Rural Communities]
p627
sVurl
p628
V/work/39021603
p629
sVtroveUrl
p630
Vhttp://trove.nla.gov.au/work/39021603
p631
sVversionCount
p632
I1
sVisPartOf
p633
VAustralian Banker (Melbourne)
p634
sVholdingsCount
p635
I0
sVrelevance
p636
(dp637
Vscore
p638
V1.0
p639
sVvalue
p640
Vlikely to be relevant
p641
ssVissued
p642
I1997
sVcontributor
p643
(lp644
VRalston, Deborah
p645
aV Beal, Diana J
p646
asVtype
p647
(lp648
VMap
p649
aVArticle
p650
aVArticle/Journal or magazine article
p651
asVid
p652
V39021603
p653
sa(dp654
Vtitle
p655
VMilitary maps
p656
sVurl
p657
V/work/39021630
p658
sVtroveUrl
p659
Vhttp://trove.nla.gov.au/work/39021630
p660
sVversionCount
p661
I1
sVisPartOf
p662
VNational Library of Australia News
p663
sVholdingsCount
p664
I0
sVrelevance
p665
(dp666
Vscore
p667
V1.0
p668
sVvalue
p669
Vlikely to be relevant
p670
ssVissued
p671
I1997
sVcontributor
p672
(lp673
VAnthony, Marion
p674
asVidentifier
p675
(lp676
(dp677
Vlinktype
p678
Vfulltext
p679
sVtype
p680
Vurl
p681
sVvalue
p682
Vhttp://www.nla.gov.au/pub/nlanews/1997/aug97/story-4.pdf
p683
sasVtype
p684
(lp685
VMap
p686
aVArticle
p687
aVArticle/Journal or magazine article
p688
asVid
p689
V39021630
p690
sa(dp691
Vtitle
p692
VRegional botany in mid nineteenth century Australia: Mueller's Murray River collecting network
p693
sVurl
p694
V/work/39021714
p695
sVtroveUrl
p696
Vhttp://trove.nla.gov.au/work/39021714
p697
sVversionCount
p698
I1
sVisPartOf
p699
VHistorical Records of Australian Science
p700
sVholdingsCount
p701
I0
sVrelevance
p702
(dp703
Vscore
p704
V1.0
p705
sVvalue
p706
Vlikely to be relevant
p707
ssVissued
p708
I1997
sVcontributor
p709
(lp710
VOrchard, Ken
p711
asVtype
p712
(lp713
VMap
p714
aVArticle
p715
aVArticle/Journal or magazine article
p716
asVid
p717
V39021714
p718
sa(dp719
Vtitle
p720
VFitting forestry on your farm
p721
sVurl
p722
V/work/39021735
p723
sVtroveUrl
p724
Vhttp://trove.nla.gov.au/work/39021735
p725
sVversionCount
p726
I1
sVisPartOf
p727
VTrees and Natural Resources
p728
sVholdingsCount
p729
I0
sVrelevance
p730
(dp731
Vscore
p732
V1.0
p733
sVvalue
p734
Vlikely to be relevant
p735
ssVissued
p736
I1997
sVcontributor
p737
(lp738
VNicholas, Sarah
p739
asVtype
p740
(lp741
VMap
p742
aVArticle
p743
aVArticle/Journal or magazine article
p744
asVid
p745
V39021735
p746
sa(dp747
Vtitle
p748
VAgriculture: outlook for 1997/ 98
p749
sVurl
p750
V/work/39021801
p751
sVtroveUrl
p752
Vhttp://trove.nla.gov.au/work/39021801
p753
sVversionCount
p754
I3
sVisPartOf
p755
VAustralian Commodities
p756
sVholdingsCount
p757
I0
sVrelevance
p758
(dp759
Vscore
p760
V1.0
p761
sVvalue
p762
Vlikely to be relevant
p763
ssVissued
p764
I1997
sVcontributor
p765
(lp766
VTreadwell, Rhonda
p767
asVtype
p768
(lp769
VArticle
p770
aVArticle/Journal or magazine article
p771
aVMap
p772
asVid
p773
V39021801
p774
sa(dp775
Vtitle
p776
VQueensland sugar industry: impact of policy changes on growers' incomes
p777
sVurl
p778
V/work/39021803
p779
sVtroveUrl
p780
Vhttp://trove.nla.gov.au/work/39021803
p781
sVversionCount
p782
I1
sVisPartOf
p783
VAustralian Commodities
p784
sVholdingsCount
p785
I0
sVrelevance
p786
(dp787
Vscore
p788
V1.0
p789
sVvalue
p790
Vlikely to be relevant
p791
ssVissued
p792
I1997
sVcontributor
p793
(lp794
VDanzi, Eric
p795
aV Rudwick, Vernon
p796
aV Topp, Vernon
p797
asVtype
p798
(lp799
VMap
p800
aVArticle
p801
aVArticle/Journal or magazine article
p802
asVid
p803
V39021803
p804
sa(dp805
Vtitle
p806
VThe failure of Christian response to Tasmanian Aboriginals 1803/ 1901: a valid assessment
p807
sVurl
p808
V/work/39021784
p809
sVtroveUrl
p810
Vhttp://trove.nla.gov.au/work/39021784
p811
sVversionCount
p812
I1
sVisPartOf
p813
VPapers and Proceedings (Tasmanian Historical Research Association)
p814
sVholdingsCount
p815
I0
sVrelevance
p816
(dp817
Vscore
p818
V1.0
p819
sVvalue
p820
Vlikely to be relevant
p821
ssVissued
p822
I1997
sVcontributor
p823
(lp824
VGuenther, John
p825
asVtype
p826
(lp827
VMap
p828
aVArticle
p829
aVArticle/Journal or magazine article
p830
asVid
p831
V39021784
p832
sa(dp833
Vtitle
p834
VUranium: Australia's role in an evolving world market
p835
sVurl
p836
V/work/39021804
p837
sVtroveUrl
p838
Vhttp://trove.nla.gov.au/work/39021804
p839
sVversionCount
p840
I1
sVisPartOf
p841
VAustralian Commodities
p842
sVholdingsCount
p843
I0
sVrelevance
p844
(dp845
Vscore
p846
V1.0
p847
sVvalue
p848
Vlikely to be relevant
p849
ssVissued
p850
I1997
sVcontributor
p851
(lp852
VStubbs, Daniel
p853
aV Graham, Paul
p854
aV Donaldson, Kim
p855
asVtype
p856
(lp857
VMap
p858
aVArticle
p859
aVArticle/Journal or magazine article
p860
asVid
p861
V39021804
p862
sa(dp863
Vtitle
p864
VPlanning in a peripheral postcolonial state [Ireland.]
p865
sVurl
p866
V/work/39021806
p867
sVtroveUrl
p868
Vhttp://trove.nla.gov.au/work/39021806
p869
sVversionCount
p870
I1
sVisPartOf
p871
VAustralian Planner
p872
sVholdingsCount
p873
I0
sVrelevance
p874
(dp875
Vscore
p876
V1.0
p877
sVvalue
p878
Vlikely to be relevant
p879
ssVissued
p880
I1997
sVcontributor
p881
(lp882
VGrist, Berna
p883
asVtype
p884
(lp885
VMap
p886
aVArticle
p887
aVArticle/Journal or magazine article
p888
asVid
p889
V39021806
p890
sa(dp891
Vtitle
p892
VSydney and the bush ... Sydney or the bush?: urban growth and urban bushland [Extract from Limits to Growth: Sydney's Environmental Futures. Dowling, R.; Forrest, J. and Rich, D. C.  (eds). (1997).]
p893
sVurl
p894
V/work/39021812
p895
sVtroveUrl
p896
Vhttp://trove.nla.gov.au/work/39021812
p897
sVversionCount
p898
I1
sVisPartOf
p899
VAustralian Planner
p900
sVholdingsCount
p901
I0
sVrelevance
p902
(dp903
Vscore
p904
V1.0
p905
sVvalue
p906
Vlikely to be relevant
p907
ssVissued
p908
I1997
sVcontributor
p909
(lp910
VMcLoughlin, Lynne
p911
asVtype
p912
(lp913
VMap
p914
aVArticle
p915
aVArticle/Journal or magazine article
p916
asVid
p917
V39021812
p918
sa(dp919
Vtitle
p920
VThe working places concept: a multi/ nodal metropolitan centre within the City of Logan, Qld [Paper presented at the Royal Australian Planning Institute. Congress (1996: Perth).]
p921
sVurl
p922
V/work/39021814
p923
sVtroveUrl
p924
Vhttp://trove.nla.gov.au/work/39021814
p925
sVversionCount
p926
I1
sVisPartOf
p927
VAustralian Planner
p928
sVholdingsCount
p929
I0
sVrelevance
p930
(dp931
Vscore
p932
V1.0
p933
sVvalue
p934
Vlikely to be relevant
p935
ssVissued
p936
I1997
sVcontributor
p937
(lp938
VShaw, Ray
p939
asVtype
p940
(lp941
VMap
p942
aVArticle
p943
aVArticle/Journal or magazine article
p944
asVid
p945
V39021814
p946
sa(dp947
Vtitle
p948
VArt that moves. -The National Library of Australia's travelling exhibitions program-
p949
sVurl
p950
V/work/39021925
p951
sVtroveUrl
p952
Vhttp://trove.nla.gov.au/work/39021925
p953
sVversionCount
p954
I1
sVisPartOf
p955
VNational Library of Australia News
p956
sVholdingsCount
p957
I0
sVrelevance
p958
(dp959
Vscore
p960
V1.0
p961
sVvalue
p962
Vlikely to be relevant
p963
ssVissued
p964
I1997
sVcontributor
p965
(lp966
VWillsford, Anne
p967
asVidentifier
p968
(lp969
(dp970
Vlinktype
p971
Vfulltext
p972
sVtype
p973
Vurl
p974
sVvalue
p975
Vhttp://www.nla.gov.au/pub/nlanews/1997/jun97/story-1.pdf
p976
sasVtype
p977
(lp978
VMap
p979
aVArticle
p980
aVArticle/Journal or magazine article
p981
asVid
p982
V39021925
p983
sa(dp984
Vtitle
p985
VSmall town small business networking: some empirical evidence from regional New South Wales
p986
sVurl
p987
V/work/39021932
p988
sVtroveUrl
p989
Vhttp://trove.nla.gov.au/work/39021932
p990
sVversionCount
p991
I1
sVisPartOf
p992
VRegional Policy and Practice
p993
sVholdingsCount
p994
I0
sVrelevance
p995
(dp996
Vscore
p997
V1.0
p998
sVvalue
p999
Vlikely to be relevant
p1000
ssVissued
p1001
I1997
sVcontributor
p1002
(lp1003
VHoward, Dennis
p1004
aV Hine, Damian
p1005
asVtype
p1006
(lp1007
VMap
p1008
aVArticle
p1009
aVArticle/Journal or magazine article
p1010
asVid
p1011
V39021932
p1012
sa(dp1013
Vtitle
p1014
VUprooted from the Caucasus: the deportation of the Karachais, Chechens, Ingush and Balkars
p1015
sVurl
p1016
V/work/39022230
p1017
sVtroveUrl
p1018
Vhttp://trove.nla.gov.au/work/39022230
p1019
sVversionCount
p1020
I1
sVisPartOf
p1021
VQuadrant (Sydney)
p1022
sVholdingsCount
p1023
I0
sVrelevance
p1024
(dp1025
Vscore
p1026
V1.0
p1027
sVvalue
p1028
Vlikely to be relevant
p1029
ssVissued
p1030
I1997
sVcontributor
p1031
(lp1032
VPohl, J. Otto
p1033
asVtype
p1034
(lp1035
VMap
p1036
aVArticle
p1037
aVArticle/Journal or magazine article
p1038
asVid
p1039
V39022230
p1040
sa(dp1041
Vtitle
p1042
VGondwana's revenge. -The effects of introducing animals and plants from Australia into other countries is potentially as problematic as introducing animals and plants from other countries into Australia-
p1043
sVurl
p1044
V/work/39022415
p1045
sVtroveUrl
p1046
Vhttp://trove.nla.gov.au/work/39022415
p1047
sVversionCount
p1048
I1
sVisPartOf
p1049
VIssues (South Melbourne)
p1050
sVholdingsCount
p1051
I0
sVrelevance
p1052
(dp1053
Vscore
p1054
V1.0
p1055
sVvalue
p1056
Vlikely to be relevant
p1057
ssVissued
p1058
I1997
sVcontributor
p1059
(lp1060
VPreuss, Peter
p1061
asVtype
p1062
(lp1063
VMap
p1064
aVArticle
p1065
aVArticle/Journal or magazine article
p1066
asVid
p1067
V39022415
p1068
sa(dp1069
Vtitle
p1070
VKangaroo Island: the koala problem can be solved. -with commitment by governments, landholders, community groups, the scientific community and the general public-
p1071
sVurl
p1072
V/work/39022437
p1073
sVtroveUrl
p1074
Vhttp://trove.nla.gov.au/work/39022437
p1075
sVversionCount
p1076
I1
sVisPartOf
p1077
VIssues (South Melbourne)
p1078
sVholdingsCount
p1079
I0
sVrelevance
p1080
(dp1081
Vscore
p1082
V1.0
p1083
sVvalue
p1084
Vlikely to be relevant
p1085
ssVissued
p1086
I1997
sVcontributor
p1087
(lp1088
VAustralian Koala Foundation
p1089
asVtype
p1090
(lp1091
VMap
p1092
aVArticle
p1093
aVArticle/Journal or magazine article
p1094
asVid
p1095
V39022437
p1096
sa(dp1097
Vtitle
p1098
VMusic and meaning: the Aboriginal rock album. [Article based on a paper given at the International Council for Traditional Music. Conference ( 33rd: 1995: Canberra)]
p1099
sVurl
p1100
V/work/39022483
p1101
sVtroveUrl
p1102
Vhttp://trove.nla.gov.au/work/39022483
p1103
sVversionCount
p1104
I1
sVisPartOf
p1105
VAustralian Aboriginal Studies (Canberra)
p1106
sVholdingsCount
p1107
I0
sVrelevance
p1108
(dp1109
Vscore
p1110
V1.0
p1111
sVvalue
p1112
Vlikely to be relevant
p1113
ssVissued
p1114
I1997
sVcontributor
p1115
(lp1116
VDunbar-Hall, Peter
p1117
asVtype
p1118
(lp1119
VMap
p1120
aVArticle
p1121
aVArticle/Journal or magazine article
p1122
asVid
p1123
V39022483
p1124
sa(dp1125
Vtitle
p1126
VFactors in accessibility of general practice in rural Australia
p1127
sVurl
p1128
V/work/39022514
p1129
sVtroveUrl
p1130
Vhttp://trove.nla.gov.au/work/39022514
p1131
sVversionCount
p1132
I1
sVisPartOf
p1133
VMedical Journal of Australia
p1134
sVholdingsCount
p1135
I0
sVrelevance
p1136
(dp1137
Vscore
p1138
V1.0
p1139
sVvalue
p1140
Vlikely to be relevant
p1141
ssVissued
p1142
I1997
sVcontributor
p1143
(lp1144
VHumphreys, J. S
p1145
aV Mathews-Cowey, Shari
p1146
aV Weinand, H. C
p1147
asVidentifier
p1148
(lp1149
(dp1150
Vlinktype
p1151
Vfulltext
p1152
sVtype
p1153
Vurl
p1154
sVvalue
p1155
Vhttp://www.mja.com.au/public/issues/jun2/humphrey/humphrey.html
p1156
sasVtype
p1157
(lp1158
VMap
p1159
aVArticle
p1160
aVArticle/Journal or magazine article
p1161
asVid
p1162
V39022514
p1163
sa(dp1164
Vtitle
p1165
VWater points: where pastoralism and biodiversity meet
p1166
sVurl
p1167
V/work/39022711
p1168
sVtroveUrl
p1169
Vhttp://trove.nla.gov.au/work/39022711
p1170
sVversionCount
p1171
I2
sVisPartOf
p1172
VEcos
p1173
sVholdingsCount
p1174
I0
sVrelevance
p1175
(dp1176
Vscore
p1177
V1.0
p1178
sVvalue
p1179
Vlikely to be relevant
p1180
ssVissued
p1181
I1997
sVcontributor
p1182
(lp1183
VBennett, Bryony
p1184
asVtype
p1185
(lp1186
VMap
p1187
aVArticle
p1188
aVArticle/Journal or magazine article
p1189
aVPhotograph
p1190
asVid
p1191
V39022711
p1192
sa(dp1193
Vtitle
p1194
VAustralians on the ceasefire line in Kashmir [The United Nations' peacekeeping operation in India and Pakistan.]
p1195
sVurl
p1196
V/work/39022847
p1197
sVtroveUrl
p1198
Vhttp://trove.nla.gov.au/work/39022847
p1199
sVversionCount
p1200
I1
sVisPartOf
p1201
VSabretache
p1202
sVholdingsCount
p1203
I0
sVrelevance
p1204
(dp1205
Vscore
p1206
V1.0
p1207
sVvalue
p1208
Vlikely to be relevant
p1209
ssVissued
p1210
I1997
sVcontributor
p1211
(lp1212
VClissold, Barry
p1213
asVtype
p1214
(lp1215
VMap
p1216
aVArticle
p1217
aVArticle/Journal or magazine article
p1218
asVid
p1219
V39022847
p1220
sa(dp1221
Vtitle
p1222
VRural resettlement: past lessons for the Three Gorges [Dam] Project
p1223
sVurl
p1224
V/work/39023000
p1225
sVtroveUrl
p1226
Vhttp://trove.nla.gov.au/work/39023000
p1227
sVversionCount
p1228
I1
sVisPartOf
p1229
VChina Journal (Canberra, ACT)
p1230
sVholdingsCount
p1231
I0
sVrelevance
p1232
(dp1233
Vscore
p1234
V1.0
p1235
sVvalue
p1236
Vlikely to be relevant
p1237
ssVissued
p1238
I1997
sVcontributor
p1239
(lp1240
VJing, Jun
p1241
asVtype
p1242
(lp1243
VMap
p1244
aVArticle
p1245
aVArticle/Journal or magazine article
p1246
asVid
p1247
V39023000
p1248
sa(dp1249
Vtitle
p1250
VMuddying the waters ...: (less than 'good oil' from The West Australian)
p1251
sVurl
p1252
V/work/39023064
p1253
sVtroveUrl
p1254
Vhttp://trove.nla.gov.au/work/39023064
p1255
sVversionCount
p1256
I1
sVisPartOf
p1257
VInstitute of Public Affairs Review
p1258
sVholdingsCount
p1259
I0
sVrelevance
p1260
(dp1261
Vscore
p1262
V1.0
p1263
sVvalue
p1264
Vlikely to be relevant
p1265
ssVissued
p1266
I1997
sVcontributor
p1267
(lp1268
VPurcell, Peter G
p1269
asVidentifier
p1270
(lp1271
(dp1272
Vlinktype
p1273
Vfulltext
p1274
sVtype
p1275
Vurl
p1276
sVvalue
p1277
Vhttp://www.ipa.org.au/library/publication/1226023398_document_1211162509_document_review1997_vol.49no.4.pdf
p1278
sasVtype
p1279
(lp1280
VMap
p1281
aVArticle
p1282
aVArticle/Journal or magazine article
p1283
asVid
p1284
V39023064
p1285
sa(dp1286
Vtitle
p1287
VIs this the first printed record of the Dutch discovery of Australia?
p1288
sVurl
p1289
V/work/39027719
p1290
sVtroveUrl
p1291
Vhttp://trove.nla.gov.au/work/39027719
p1292
sVversionCount
p1293
I1
sVisPartOf
p1294
VAustralian Antique Collector
p1295
sVholdingsCount
p1296
I0
sVrelevance
p1297
(dp1298
Vscore
p1299
V1.0
p1300
sVvalue
p1301
Vlikely to be relevant
p1302
ssVissued
p1303
V1996-1997
p1304
sVcontributor
p1305
(lp1306
VDewez, Simon
p1307
asVtype
p1308
(lp1309
VMap
p1310
aVArticle
p1311
aVArticle/Journal or magazine article
p1312
asVid
p1313
V39027719
p1314
sa(dp1315
Vtitle
p1316
VDarwin 1942
p1317
sVurl
p1318
V/work/39030085
p1319
sVtroveUrl
p1320
Vhttp://trove.nla.gov.au/work/39030085
p1321
sVversionCount
p1322
I1
sVisPartOf
p1323
VAustralian Defence Force Journal
p1324
sVholdingsCount
p1325
I0
sVrelevance
p1326
(dp1327
Vscore
p1328
V1.0
p1329
sVvalue
p1330
Vlikely to be relevant
p1331
ssVissued
p1332
I1997
sVcontributor
p1333
(lp1334
VGarrisson, A. D
p1335
asVidentifier
p1336
(lp1337
(dp1338
Vlinktype
p1339
Vfulltext
p1340
sVtype
p1341
Vurl
p1342
sVvalue
p1343
Vhttp://www.adfjournal.adc.edu.au/UserFiles/issues/122%201997%20Jan_Feb.pdf
p1344
sasVtype
p1345
(lp1346
VMap
p1347
aVArticle
p1348
aVArticle/Journal or magazine article
p1349
asVid
p1350
V39030085
p1351
sa(dp1352
Vtitle
p1353
VAustralia's cereal producing lands: the state of the resource base
p1354
sVurl
p1355
V/work/39030080
p1356
sVtroveUrl
p1357
Vhttp://trove.nla.gov.au/work/39030080
p1358
sVversionCount
p1359
I1
sVisPartOf
p1360
VAgricultural Science (Melbourne)
p1361
sVholdingsCount
p1362
I0
sVrelevance
p1363
(dp1364
Vscore
p1365
V1.0
p1366
sVvalue
p1367
Vlikely to be relevant
p1368
ssVissued
p1369
I1997
sVcontributor
p1370
(lp1371
VKarssies, Linda
p1372
aV East, Jon
p1373
asVtype
p1374
(lp1375
VMap
p1376
aVArticle
p1377
aVArticle/Journal or magazine article
p1378
asVid
p1379
V39030080
p1380
sa(dp1381
Vtitle
p1382
VThe colour of blood [H. A. Willis discovers in a 19th century Australian colonial journal the seeds of a race conflict yet to be resolved.]
p1383
sVurl
p1384
V/work/39030314
p1385
sVtroveUrl
p1386
Vhttp://trove.nla.gov.au/work/39030314
p1387
sVversionCount
p1388
I1
sVisPartOf
p1389
VEureka Street
p1390
sVholdingsCount
p1391
I0
sVrelevance
p1392
(dp1393
Vscore
p1394
V1.0
p1395
sVvalue
p1396
Vlikely to be relevant
p1397
ssVissued
p1398
I1997
sVcontributor
p1399
(lp1400
VWillis, H. A
p1401
asVtype
p1402
(lp1403
VMap
p1404
aVArticle
p1405
aVArticle/Journal or magazine article
p1406
asVid
p1407
V39030314
p1408
sa(dp1409
Vtitle
p1410
VThe Snowy River: opportunity costs of introducing environmental flows
p1411
sVurl
p1412
V/work/39031206
p1413
sVtroveUrl
p1414
Vhttp://trove.nla.gov.au/work/39031206
p1415
sVversionCount
p1416
I2
sVisPartOf
p1417
VAustralian Commodities
p1418
sVholdingsCount
p1419
I1
sVrelevance
p1420
(dp1421
Vscore
p1422
V1.0
p1423
sVvalue
p1424
Vlikely to be relevant
p1425
ssVissued
p1426
I1997
sVcontributor
p1427
(lp1428
VScoccimarro, Michelle
p1429
asVtype
p1430
(lp1431
VBook
p1432
aVMap
p1433
aVArticle
p1434
aVArticle/Journal or magazine article
p1435
asVid
p1436
V39031206
p1437
sa(dp1438
Vtitle
p1439
VCommodities sector: outlook and issues for the medium term
p1440
sVurl
p1441
V/work/39031205
p1442
sVtroveUrl
p1443
Vhttp://trove.nla.gov.au/work/39031205
p1444
sVversionCount
p1445
I1
sVisPartOf
p1446
VAustralian Commodities
p1447
sVholdingsCount
p1448
I0
sVrelevance
p1449
(dp1450
Vscore
p1451
V1.0
p1452
sVvalue
p1453
Vlikely to be relevant
p1454
ssVissued
p1455
I1997
sVcontributor
p1456
(lp1457
VFisher, Brian
p1458
asVtype
p1459
(lp1460
VMap
p1461
aVArticle
p1462
aVArticle/Journal or magazine article
p1463
asVid
p1464
V39031205
p1465
sa(dp1466
Vtitle
p1467
VSister Winifred Marion Petrie (1890/ 1960 -i.e.1966-) [First charge sister, Obstetrics, Canberra Hospital, 1927; proprietor, Allawah Private Hospital ACT, 1936/ 48.]
p1468
sVurl
p1469
V/work/39031280
p1470
sVtroveUrl
p1471
Vhttp://trove.nla.gov.au/work/39031280
p1472
sVversionCount
p1473
I1
sVisPartOf
p1474
VCanberra Historical Journal
p1475
sVholdingsCount
p1476
I0
sVrelevance
p1477
(dp1478
Vscore
p1479
V1.0
p1480
sVvalue
p1481
Vlikely to be relevant
p1482
ssVissued
p1483
I1997
sVcontributor
p1484
(lp1485
VKnowles, Beth
p1486
asVtype
p1487
(lp1488
VMap
p1489
aVArticle
p1490
aVArticle/Journal or magazine article
p1491
asVid
p1492
V39031280
p1493
sa(dp1494
Vtitle
p1495
VA strategy for north west Adelaide: new directions in strategic planning
p1496
sVurl
p1497
V/work/39031476
p1498
sVtroveUrl
p1499
Vhttp://trove.nla.gov.au/work/39031476
p1500
sVversionCount
p1501
I1
sVisPartOf
p1502
VAustralian Planner
p1503
sVholdingsCount
p1504
I0
sVrelevance
p1505
(dp1506
Vscore
p1507
V1.0
p1508
sVvalue
p1509
Vlikely to be relevant
p1510
ssVissued
p1511
I1997
sVcontributor
p1512
(lp1513
VBennett, C
p1514
aV Lloyd, Christine
p1515
aV Hutchinson, John
p1516
asVtype
p1517
(lp1518
VMap
p1519
aVArticle
p1520
aVArticle/Journal or magazine article
p1521
asVid
p1522
V39031476
p1523
sa(dp1524
Vtitle
p1525
VStrategies, planning and Adelaide
p1526
sVurl
p1527
V/work/39031473
p1528
sVtroveUrl
p1529
Vhttp://trove.nla.gov.au/work/39031473
p1530
sVversionCount
p1531
I1
sVisPartOf
p1532
VAustralian Planner
p1533
sVholdingsCount
p1534
I0
sVrelevance
p1535
(dp1536
Vscore
p1537
V1.0
p1538
sVvalue
p1539
Vlikely to be relevant
p1540
ssVissued
p1541
I1997
sVcontributor
p1542
(lp1543
VBunker, Raymond
p1544
asVtype
p1545
(lp1546
VMap
p1547
aVArticle
p1548
aVArticle/Journal or magazine article
p1549
asVid
p1550
V39031473
p1551
sa(dp1552
Vtitle
p1553
VEl Salvador: in search of a nonviolent peace
p1554
sVurl
p1555
V/work/39031499
p1556
sVtroveUrl
p1557
Vhttp://trove.nla.gov.au/work/39031499
p1558
sVversionCount
p1559
I1
sVisPartOf
p1560
VSocial Alternatives
p1561
sVholdingsCount
p1562
I0
sVrelevance
p1563
(dp1564
Vscore
p1565
V1.0
p1566
sVvalue
p1567
Vlikely to be relevant
p1568
ssVissued
p1569
I1997
sVcontributor
p1570
(lp1571
VLopez-Reyes, Ramon
p1572
asVtype
p1573
(lp1574
VMap
p1575
aVArticle
p1576
aVArticle/Journal or magazine article
p1577
asVid
p1578
V39031499
p1579
sa(dp1580
Vtitle
p1581
VMediating environmental conflict: the Muckatah Drainage Scheme mediation
p1582
sVurl
p1583
V/work/39031646
p1584
sVtroveUrl
p1585
Vhttp://trove.nla.gov.au/work/39031646
p1586
sVversionCount
p1587
I1
sVisPartOf
p1588
VAustralian Journal of Environmental Management
p1589
sVholdingsCount
p1590
I0
sVrelevance
p1591
(dp1592
Vscore
p1593
V1.0
p1594
sVvalue
p1595
Vlikely to be relevant
p1596
ssVissued
p1597
I1997
sVcontributor
p1598
(lp1599
VSaunders, Robin
p1600
aV Turner, Bruce
p1601
asVtype
p1602
(lp1603
VMap
p1604
aVArticle
p1605
aVArticle/Journal or magazine article
p1606
asVid
p1607
V39031646
p1608
sa(dp1609
Vtitle
p1610
VAssessment and management of beach camping impacts within Fraser Island World Heritage Area, South East Queensland
p1611
sVurl
p1612
V/work/39031647
p1613
sVtroveUrl
p1614
Vhttp://trove.nla.gov.au/work/39031647
p1615
sVversionCount
p1616
I1
sVisPartOf
p1617
VAustralian Journal of Environmental Management
p1618
sVholdingsCount
p1619
I0
sVrelevance
p1620
(dp1621
Vscore
p1622
V1.0
p1623
sVvalue
p1624
Vlikely to be relevant
p1625
ssVissued
p1626
I1997
sVcontributor
p1627
(lp1628
VHockings, Marc
p1629
aV Twyford, Keith
p1630
asVtype
p1631
(lp1632
VMap
p1633
aVArticle
p1634
aVArticle/Journal or magazine article
p1635
asVid
p1636
V39031647
p1637
sa(dp1638
Vtitle
p1639
VThe rabbit, the fox and the cat [Outline of the Vertebrate Biocontrol Centre's work to develop immunocontraceptive vaccines for the control of feral mammals.]
p1640
sVurl
p1641
V/work/39031846
p1642
sVtroveUrl
p1643
Vhttp://trove.nla.gov.au/work/39031846
p1644
sVversionCount
p1645
I1
sVisPartOf
p1646
VTrees and Natural Resources
p1647
sVholdingsCount
p1648
I0
sVrelevance
p1649
(dp1650
Vscore
p1651
V1.0
p1652
sVvalue
p1653
Vlikely to be relevant
p1654
ssVissued
p1655
I1997
sVcontributor
p1656
(lp1657
VO'Neill, Graeme
p1658
asVtype
p1659
(lp1660
VMap
p1661
aVArticle
p1662
aVArticle/Journal or magazine article
p1663
asVid
p1664
V39031846
p1665
sa(dp1666
Vtitle
p1667
VThe Aboriginal cosmic landscape of southern South Australia
p1668
sVurl
p1669
V/work/39031892
p1670
sVtroveUrl
p1671
Vhttp://trove.nla.gov.au/work/39031892
p1672
sVversionCount
p1673
I1
sVisPartOf
p1674
VRecords of the South Australian Museum
p1675
sVholdingsCount
p1676
I0
sVrelevance
p1677
(dp1678
Vscore
p1679
V1.0
p1680
sVvalue
p1681
Vlikely to be relevant
p1682
ssVissued
p1683
I1997
sVcontributor
p1684
(lp1685
VClarke, Philip A
p1686
asVidentifier
p1687
(lp1688
(dp1689
Vlinktype
p1690
Vfulltext
p1691
sVtype
p1692
Vurl
p1693
sVvalue
p1694
Vhttp://www.samuseum.sa.gov.au/Journals/RSAM/RSAM_v029/rsam_v029_p125p146.pdf
p1695
sasVtype
p1696
(lp1697
VMap
p1698
aVArticle
p1699
aVArticle/Journal or magazine article
p1700
asVid
p1701
V39031892
p1702
sa(dp1703
Vtitle
p1704
VIdentifying specialisation, production and exchange in the archaeological record: the case of shell bead manufacture on Motupore Island, Papua
p1705
sVurl
p1706
V/work/39032004
p1707
sVtroveUrl
p1708
Vhttp://trove.nla.gov.au/work/39032004
p1709
sVversionCount
p1710
I1
sVisPartOf
p1711
VArchaeology in Oceania
p1712
sVholdingsCount
p1713
I0
sVrelevance
p1714
(dp1715
Vscore
p1716
V1.0
p1717
sVvalue
p1718
Vlikely to be relevant
p1719
ssVissued
p1720
I1997
sVcontributor
p1721
(lp1722
VAllen, Jim
p1723
aV Holdaway, Simon
p1724
aV Fullagar, Richard
p1725
asVtype
p1726
(lp1727
VMap
p1728
aVArticle
p1729
aVArticle/Journal or magazine article
p1730
asVid
p1731
V39032004
p1732
sa(dp1733
Vtitle
p1734
VCharacterisation of cherts from sites in southwest Tasmania
p1735
sVurl
p1736
V/work/39032006
p1737
sVtroveUrl
p1738
Vhttp://trove.nla.gov.au/work/39032006
p1739
sVversionCount
p1740
I1
sVisPartOf
p1741
VArchaeology in Oceania
p1742
sVholdingsCount
p1743
I0
sVrelevance
p1744
(dp1745
Vscore
p1746
V1.0
p1747
sVvalue
p1748
Vlikely to be relevant
p1749
ssVissued
p1750
I1997
sVcontributor
p1751
(lp1752
VSheppard, Peter J
p1753
asVtype
p1754
(lp1755
VMap
p1756
aVArticle
p1757
aVArticle/Journal or magazine article
p1758
asVid
p1759
V39032006
p1760
sa(dp1761
Vtitle
p1762
VNew Britain obsidian sources
p1763
sVurl
p1764
V/work/39032008
p1765
sVtroveUrl
p1766
Vhttp://trove.nla.gov.au/work/39032008
p1767
sVversionCount
p1768
I1
sVisPartOf
p1769
VArchaeology in Oceania
p1770
sVholdingsCount
p1771
I0
sVrelevance
p1772
(dp1773
Vscore
p1774
V1.0
p1775
sVvalue
p1776
Vlikely to be relevant
p1777
ssVissued
p1778
I1997
sVcontributor
p1779
(lp1780
VBird, Roger and others
p1781
asVtype
p1782
(lp1783
VMap
p1784
aVArticle
p1785
aVArticle/Journal or magazine article
p1786
asVid
p1787
V39032008
p1788
sa(dp1789
Vtitle
p1790
VSociality and the short distance trader: intraregional obsidian exchange in the Willaumez region, Papau New Guinea
p1791
sVurl
p1792
V/work/39032010
p1793
sVtroveUrl
p1794
Vhttp://trove.nla.gov.au/work/39032010
p1795
sVversionCount
p1796
I1
sVisPartOf
p1797
VArchaeology in Oceania
p1798
sVholdingsCount
p1799
I0
sVrelevance
p1800
(dp1801
Vscore
p1802
V1.0
p1803
sVvalue
p1804
Vlikely to be relevant
p1805
ssVissued
p1806
I1997
sVcontributor
p1807
(lp1808
VTorrence, Robin
p1809
aV Summerhayes, Glenn R. (Glenn Reginald)
p1810
asVtype
p1811
(lp1812
VMap
p1813
aVArticle
p1814
aVArticle/Journal or magazine article
p1815
asVid
p1816
V39032010
p1817
sa(dp1818
Vtitle
p1819
VChanging sources: early Lapita period obsidian in the Bismarck Archipelago
p1820
sVurl
p1821
V/work/39032012
p1822
sVtroveUrl
p1823
Vhttp://trove.nla.gov.au/work/39032012
p1824
sVversionCount
p1825
I1
sVisPartOf
p1826
VArchaeology in Oceania
p1827
sVholdingsCount
p1828
I0
sVrelevance
p1829
(dp1830
Vscore
p1831
V1.0
p1832
sVvalue
p1833
Vlikely to be relevant
p1834
ssVissued
p1835
I1997
sVcontributor
p1836
(lp1837
VWhite, J. Peter
p1838
aV Harris, Mary-Noel
p1839
asVtype
p1840
(lp1841
VMap
p1842
aVArticle
p1843
aVArticle/Journal or magazine article
p1844
asVid
p1845
V39032012
p1846
sa(dp1847
Vtitle
p1848
VContinuity and change in Lapita and post Lapita ceramics: a review of evidence from the Admiralty Islands and New Ireland, Papua New Guinea
p1849
sVurl
p1850
V/work/39032014
p1851
sVtroveUrl
p1852
Vhttp://trove.nla.gov.au/work/39032014
p1853
sVversionCount
p1854
I1
sVisPartOf
p1855
VArchaeology in Oceania
p1856
sVholdingsCount
p1857
I0
sVrelevance
p1858
(dp1859
Vscore
p1860
V1.0
p1861
sVvalue
p1862
Vlikely to be relevant
p1863
ssVissued
p1864
I1997
sVcontributor
p1865
(lp1866
VWahome, E. Wachira
p1867
asVtype
p1868
(lp1869
VMap
p1870
aVArticle
p1871
aVArticle/Journal or magazine article
p1872
asVid
p1873
V39032014
p1874
sa(dp1875
Vtitle
p1876
VTaking information services to the community: multimedia initiatives within the ACT Government
p1877
sVurl
p1878
V/work/39031965
p1879
sVtroveUrl
p1880
Vhttp://trove.nla.gov.au/work/39031965
p1881
sVversionCount
p1882
I1
sVisPartOf
p1883
VAustralasian Information Online and On Disc Conference and Exhibition  (8th: 1997: Sydney, NSW). Information Online and On Disc 97: Proceedings
p1884
sVholdingsCount
p1885
I0
sVrelevance
p1886
(dp1887
Vscore
p1888
V1.0
p1889
sVvalue
p1890
Vlikely to be relevant
p1891
ssVissued
p1892
I1997
sVcontributor
p1893
(lp1894
VJones, Peter
p1895
asVidentifier
p1896
(lp1897
(dp1898
Vlinktype
p1899
Vfulltext
p1900
sVtype
p1901
Vurl
p1902
sVvalue
p1903
Vhttp://www.csu.edu.au/special/online97/proceedings/onl302.htm#one
p1904
sasVtype
p1905
(lp1906
VMap
p1907
aVArticle/Book chapter
p1908
aVArticle
p1909
asVid
p1910
V39031965
p1911
sa(dp1912
Vtitle
p1913
VChanges in Admiralty Islands obsidian source use: the view from Pamwak
p1914
sVurl
p1915
V/work/39032009
p1916
sVtroveUrl
p1917
Vhttp://trove.nla.gov.au/work/39032009
p1918
sVversionCount
p1919
I1
sVisPartOf
p1920
VArchaeology in Oceania
p1921
sVholdingsCount
p1922
I0
sVrelevance
p1923
(dp1924
Vscore
p1925
V1.0
p1926
sVvalue
p1927
Vlikely to be relevant
p1928
ssVissued
p1929
I1997
sVcontributor
p1930
(lp1931
VFredericksen, C. F. K
p1932
asVtype
p1933
(lp1934
VMap
p1935
aVArticle
p1936
aVArticle/Journal or magazine article
p1937
asVid
p1938
V39032009
p1939
sa(dp1940
Vtitle
p1941
VThe loneliness of an obsidian source in southwest Manus
p1942
sVurl
p1943
V/work/39032011
p1944
sVtroveUrl
p1945
Vhttp://trove.nla.gov.au/work/39032011
p1946
sVversionCount
p1947
I1
sVisPartOf
p1948
VArchaeology in Oceania
p1949
sVholdingsCount
p1950
I0
sVrelevance
p1951
(dp1952
Vscore
p1953
V1.0
p1954
sVvalue
p1955
Vlikely to be relevant
p1956
ssVissued
p1957
I1997
sVcontributor
p1958
(lp1959
VKennedy, Jean
p1960
asVtype
p1961
(lp1962
VMap
p1963
aVArticle
p1964
aVArticle/Journal or magazine article
p1965
asVid
p1966
V39032011
p1967
sa(dp1968
Vtitle
p1969
VThe 'Wik' peoples of western Cape York
p1970
sVurl
p1971
V/work/39032073
p1972
sVtroveUrl
p1973
Vhttp://trove.nla.gov.au/work/39032073
p1974
sVversionCount
p1975
I1
sVisPartOf
p1976
VIndigenous Law Bulletin
p1977
sVholdingsCount
p1978
I0
sVrelevance
p1979
(dp1980
Vscore
p1981
V1.0
p1982
sVvalue
p1983
Vlikely to be relevant
p1984
ssVissued
p1985
I1997
sVcontributor
p1986
(lp1987
VMartin, D. F. (David F.)
p1988
asVidentifier
p1989
(lp1990
(dp1991
Vlinktype
p1992
Vfulltext
p1993
sVtype
p1994
Vurl
p1995
sVvalue
p1996
Vhttp://www.austlii.edu.au/au/journals/ILB/1997/30.html
p1997
sasVtype
p1998
(lp1999
VMap
p2000
aVArticle
p2001
aVArticle/Journal or magazine article
p2002
asVid
p2003
V39032073
p2004
sa(dp2005
Vtitle
p2006
VAustralian freshwater crayfish: exploitation by fishing and aquaculture
p2007
sVurl
p2008
V/work/39032104
p2009
sVtroveUrl
p2010
Vhttp://trove.nla.gov.au/work/39032104
p2011
sVversionCount
p2012
I1
sVisPartOf
p2013
VAustralian Biologist
p2014
sVholdingsCount
p2015
I0
sVrelevance
p2016
(dp2017
Vscore
p2018
V1.0
p2019
sVvalue
p2020
Vlikely to be relevant
p2021
ssVissued
p2022
I1997
sVcontributor
p2023
(lp2024
VGeddes, Michael C
p2025
aV Jones, Clive
p2026
asVtype
p2027
(lp2028
VMap
p2029
aVArticle
p2030
aVArticle/Journal or magazine article
p2031
asVid
p2032
V39032104
p2033
sa(dp2034
Vtitle
p2035
VHarvesting black cockatoos in the Northern Territory: catastrophe or conservation?
p2036
sVurl
p2037
V/work/39032106
p2038
sVtroveUrl
p2039
Vhttp://trove.nla.gov.au/work/39032106
p2040
sVversionCount
p2041
I1
sVisPartOf
p2042
VAustralian Biologist
p2043
sVholdingsCount
p2044
I0
sVrelevance
p2045
(dp2046
Vscore
p2047
V1.0
p2048
sVvalue
p2049
Vlikely to be relevant
p2050
ssVissued
p2051
I1997
sVcontributor
p2052
(lp2053
VVardon, Michael J
p2054
aV Noske, Richard A
p2055
aV Moyle, Brendan J
p2056
asVtype
p2057
(lp2058
VMap
p2059
aVArticle
p2060
aVArticle/Journal or magazine article
p2061
asVid
p2062
V39032106
p2063
sa(dp2064
Vtitle
p2065
VProtecting our unprotected lands
p2066
sVurl
p2067
V/work/39032180
p2068
sVtroveUrl
p2069
Vhttp://trove.nla.gov.au/work/39032180
p2070
sVversionCount
p2071
I1
sVisPartOf
p2072
VHabitat Australia
p2073
sVholdingsCount
p2074
I0
sVrelevance
p2075
(dp2076
Vscore
p2077
V1.0
p2078
sVvalue
p2079
Vlikely to be relevant
p2080
ssVissued
p2081
I1997
sVcontributor
p2082
(lp2083
VKrockenberger, Michael and others
p2084
asVtype
p2085
(lp2086
VMap
p2087
aVArticle
p2088
aVArticle/Journal or magazine article
p2089
asVid
p2090
V39032180
p2091
sa(dp2092
Vtitle
p2093
V"A little north of Peel's Well": a landscape history of Darwin's first hospital
p2094
sVurl
p2095
V/work/39032188
p2096
sVtroveUrl
p2097
Vhttp://trove.nla.gov.au/work/39032188
p2098
sVversionCount
p2099
I1
sVisPartOf
p2100
VJournal of Northern Territory History
p2101
sVholdingsCount
p2102
I0
sVrelevance
p2103
(dp2104
Vscore
p2105
V1.0
p2106
sVvalue
p2107
Vlikely to be relevant
p2108
ssVissued
p2109
I1997
sVcontributor
p2110
(lp2111
VReid, Brian
p2112
asVtype
p2113
(lp2114
VMap
p2115
aVArticle
p2116
aVArticle/Journal or magazine article
p2117
asVid
p2118
V39032188
p2119
sa(dp2120
Vtitle
p2121
VLand rights: the road ahead. -Ping, Alistair interviews Galarrwuy Yunupingu, one of the most powerful Aboriginal leaders in Australia-
p2122
sVurl
p2123
V/work/39032330
p2124
sVtroveUrl
p2125
Vhttp://trove.nla.gov.au/work/39032330
p2126
sVversionCount
p2127
I1
sVisPartOf
p2128
VCompany Director
p2129
sVholdingsCount
p2130
I0
sVrelevance
p2131
(dp2132
Vscore
p2133
V1.0
p2134
sVvalue
p2135
Vlikely to be relevant
p2136
ssVissued
p2137
I1997
sVcontributor
p2138
(lp2139
VYunupingu, Galarrwuy
p2140
asVtype
p2141
(lp2142
VMap
p2143
aVArticle
p2144
aVArticle/Journal or magazine article
p2145
asVid
p2146
V39032330
p2147
sa(dp2148
Vtitle
p2149
VEritrea: lessons for Australia's language policy
p2150
sVurl
p2151
V/work/39032611
p2152
sVtroveUrl
p2153
Vhttp://trove.nla.gov.au/work/39032611
p2154
sVversionCount
p2155
I1
sVisPartOf
p2156
VBabel
p2157
sVholdingsCount
p2158
I0
sVrelevance
p2159
(dp2160
Vscore
p2161
V1.0
p2162
sVvalue
p2163
Vlikely to be relevant
p2164
ssVissued
p2165
I1997
sVcontributor
p2166
(lp2167
VAndreoni, Helen
p2168
asVtype
p2169
(lp2170
VMap
p2171
aVArticle
p2172
aVArticle/Journal or magazine article
p2173
asVid
p2174
V39032611
p2175
sa(dp2176
Vtitle
p2177
VMining and processing of jarosite near Torquay in the 1920s
p2178
sVurl
p2179
V/work/39032834
p2180
sVtroveUrl
p2181
Vhttp://trove.nla.gov.au/work/39032834
p2182
sVversionCount
p2183
I1
sVisPartOf
p2184
VVictorian Historical Journal (1987)
p2185
sVholdingsCount
p2186
I0
sVrelevance
p2187
(dp2188
Vscore
p2189
V1.0
p2190
sVvalue
p2191
Vlikely to be relevant
p2192
ssVissued
p2193
I1997
sVcontributor
p2194
(lp2195
VRae, Ian D
p2196
aV Williams, M
p2197
asVtype
p2198
(lp2199
VMap
p2200
aVArticle
p2201
aVArticle/Journal or magazine article
p2202
asVid
p2203
V39032834
p2204
sa(dp2205
Vtitle
p2206
VA memorable memorial: John Gardiner and the first house in Hawthorn [( Vic ).]
p2207
sVurl
p2208
V/work/39032840
p2209
sVtroveUrl
p2210
Vhttp://trove.nla.gov.au/work/39032840
p2211
sVversionCount
p2212
I1
sVisPartOf
p2213
VVictorian Historical Journal (1987)
p2214
sVholdingsCount
p2215
I0
sVrelevance
p2216
(dp2217
Vscore
p2218
V1.0
p2219
sVvalue
p2220
Vlikely to be relevant
p2221
ssVissued
p2222
I1997
sVcontributor
p2223
(lp2224
VMcWilliam, G
p2225
asVtype
p2226
(lp2227
VMap
p2228
aVArticle
p2229
aVArticle/Journal or magazine article
p2230
asVid
p2231
V39032840
p2232
sa(dp2233
Vtitle
p2234
VAnalysis of NSW rural land performance 1985/ 1995
p2235
sVurl
p2236
V/work/39033183
p2237
sVtroveUrl
p2238
Vhttp://trove.nla.gov.au/work/39033183
p2239
sVversionCount
p2240
I1
sVisPartOf
p2241
VValuer and Land Economist
p2242
sVholdingsCount
p2243
I0
sVrelevance
p2244
(dp2245
Vscore
p2246
V1.0
p2247
sVvalue
p2248
Vlikely to be relevant
p2249
ssVissued
p2250
I1997
sVcontributor
p2251
(lp2252
VEves, Chris
p2253
asVtype
p2254
(lp2255
VMap
p2256
aVArticle
p2257
aVArticle/Journal or magazine article
p2258
asVid
p2259
V39033183
p2260
sa(dp2261
Vtitle
p2262
VAustralia's nuclear headache. -Disposal of nuclear waste-
p2263
sVurl
p2264
V/work/39033770
p2265
sVtroveUrl
p2266
Vhttp://trove.nla.gov.au/work/39033770
p2267
sVversionCount
p2268
I1
sVisPartOf
p2269
VSearch (Sydney)
p2270
sVholdingsCount
p2271
I0
sVrelevance
p2272
(dp2273
Vscore
p2274
V1.0
p2275
sVvalue
p2276
Vlikely to be relevant
p2277
ssVissued
p2278
I1997
sVcontributor
p2279
(lp2280
VMarinova, Dora
p2281
asVtype
p2282
(lp2283
VMap
p2284
aVArticle
p2285
aVArticle/Journal or magazine article
p2286
asVid
p2287
V39033770
p2288
sa(dp2289
Vtitle
p2290
VAustralian coal supply: risks and prospects to 2002
p2291
sVurl
p2292
V/work/39033951
p2293
sVtroveUrl
p2294
Vhttp://trove.nla.gov.au/work/39033951
p2295
sVversionCount
p2296
I1
sVisPartOf
p2297
VAustralian Commodities
p2298
sVholdingsCount
p2299
I0
sVrelevance
p2300
(dp2301
Vscore
p2302
V1.0
p2303
sVvalue
p2304
Vlikely to be relevant
p2305
ssVissued
p2306
I1997
sVcontributor
p2307
(lp2308
VMiddleton, Simon
p2309
aV Graham, Paul
p2310
asVtype
p2311
(lp2312
VMap
p2313
aVArticle
p2314
aVArticle/Journal or magazine article
p2315
asVid
p2316
V39033951
p2317
sa(dp2318
Vtitle
p2319
VWas it for the want of dry feet that a legend was born?
p2320
sVurl
p2321
V/work/39034111
p2322
sVtroveUrl
p2323
Vhttp://trove.nla.gov.au/work/39034111
p2324
sVversionCount
p2325
I1
sVisPartOf
p2326
VSabretache
p2327
sVholdingsCount
p2328
I0
sVrelevance
p2329
(dp2330
Vscore
p2331
V1.0
p2332
sVvalue
p2333
Vlikely to be relevant
p2334
ssVissued
p2335
I1997
sVcontributor
p2336
(lp2337
VClissold, Barry
p2338
asVtype
p2339
(lp2340
VMap
p2341
aVArticle
p2342
aVArticle/Journal or magazine article
p2343
asVid
p2344
V39034111
p2345
sa(dp2346
Vtitle
p2347
VRecent trends in access to Australia's mineral resources
p2348
sVurl
p2349
V/work/39034167
p2350
sVtroveUrl
p2351
Vhttp://trove.nla.gov.au/work/39034167
p2352
sVversionCount
p2353
I1
sVisPartOf
p2354
VAusIMM Bulletin
p2355
sVholdingsCount
p2356
I0
sVrelevance
p2357
(dp2358
Vscore
p2359
V1.0
p2360
sVvalue
p2361
Vlikely to be relevant
p2362
ssVissued
p2363
I1997
sVcontributor
p2364
(lp2365
VEast, Jon and others
p2366
asVtype
p2367
(lp2368
VMap
p2369
aVArticle
p2370
aVArticle/Journal or magazine article
p2371
asVid
p2372
V39034167
p2373
sa(dp2374
Vtitle
p2375
VThe future of Hong Kong [Collection of three articles.]
p2376
sVurl
p2377
V/work/39034206
p2378
sVtroveUrl
p2379
Vhttp://trove.nla.gov.au/work/39034206
p2380
sVversionCount
p2381
I1
sVisPartOf
p2382
VInstitute of Public Affairs Review
p2383
sVholdingsCount
p2384
I0
sVrelevance
p2385
(dp2386
Vscore
p2387
V1.0
p2388
sVvalue
p2389
Vlikely to be relevant
p2390
ssVissued
p2391
I1997
sVcontributor
p2392
(lp2393
VArmstrong, David
p2394
aV Oxley, Alan
p2395
aV O'Connor, Michael
p2396
asVidentifier
p2397
(lp2398
(dp2399
Vlinktype
p2400
Vfulltext
p2401
sVtype
p2402
Vurl
p2403
sVvalue
p2404
Vhttp://www.ipa.org.au/library/publication/1211162463_document_review1997_vol.49no.3.pdf
p2405
sasVtype
p2406
(lp2407
VMap
p2408
aVArticle
p2409
aVArticle/Journal or magazine article
p2410
asVid
p2411
V39034206
p2412
sa(dp2413
Vtitle
p2414
VFour myths about globalisation [defined as a single world society.]
p2415
sVurl
p2416
V/work/39034225
p2417
sVtroveUrl
p2418
Vhttp://trove.nla.gov.au/work/39034225
p2419
sVversionCount
p2420
I1
sVisPartOf
p2421
VFlinders Journal of History and Politics
p2422
sVholdingsCount
p2423
I0
sVrelevance
p2424
(dp2425
Vscore
p2426
V1.0
p2427
sVvalue
p2428
Vlikely to be relevant
p2429
ssVissued
p2430
I1997
sVcontributor
p2431
(lp2432
VHolton, R. J
p2433
asVtype
p2434
(lp2435
VMap
p2436
aVArticle
p2437
aVArticle/Journal or magazine article
p2438
asVid
p2439
V39034225
p2440
sa(dp2441
Vtitle
p2442
VManaging price risk: grain farmers
p2443
sVurl
p2444
V/work/39034324
p2445
sVtroveUrl
p2446
Vhttp://trove.nla.gov.au/work/39034324
p2447
sVversionCount
p2448
I1
sVisPartOf
p2449
VAustralian Farm Surveys Report
p2450
sVholdingsCount
p2451
I0
sVrelevance
p2452
(dp2453
Vscore
p2454
V1.0
p2455
sVvalue
p2456
Vlikely to be relevant
p2457
ssVissued
p2458
I1997
sVcontributor
p2459
(lp2460
VLubulwa, Milly
p2461
aV Lim-Applegate, Hazel
p2462
aV Martin, Peter
p2463
asVtype
p2464
(lp2465
VMap
p2466
aVArticle
p2467
aVArticle/Journal or magazine article
p2468
asVid
p2469
V39034324
p2470
sa(dp2471
Vtitle
p2472
VThe Kimberley at the crossroads
p2473
sVurl
p2474
V/work/39034395
p2475
sVtroveUrl
p2476
Vhttp://trove.nla.gov.au/work/39034395
p2477
sVversionCount
p2478
I1
sVisPartOf
p2479
VHabitat Australia
p2480
sVholdingsCount
p2481
I0
sVrelevance
p2482
(dp2483
Vscore
p2484
V1.0
p2485
sVvalue
p2486
Vlikely to be relevant
p2487
ssVissued
p2488
I1997
sVcontributor
p2489
(lp2490
VFisher, Tim and others
p2491
asVtype
p2492
(lp2493
VMap
p2494
aVArticle
p2495
aVArticle/Journal or magazine article
p2496
asVid
p2497
V39034395
p2498
sa(dp2499
Vtitle
p2500
V'A large and efficient establishment': preliminary report on fieldwork at the Ross Female Factory
p2501
sVurl
p2502
V/work/39262862
p2503
sVtroveUrl
p2504
Vhttp://trove.nla.gov.au/work/39262862
p2505
sVversionCount
p2506
I2
sVisPartOf
p2507
VAustralasian Historical Archaeology
p2508
sVholdingsCount
p2509
I0
sVrelevance
p2510
(dp2511
Vscore
p2512
V1.0
p2513
sVvalue
p2514
Vlikely to be relevant
p2515
ssVissued
p2516
I1997
sVcontributor
p2517
(lp2518
VCasella, Eleanor
p2519
asVtype
p2520
(lp2521
VMap
p2522
aVArticle
p2523
aVArticle/Journal or magazine article
p2524
asVid
p2525
V39262862
p2526
sa(dp2527
Vtitle
p2528
VWater powered flourmills in nineteenth century Tasmania
p2529
sVurl
p2530
V/work/39262861
p2531
sVtroveUrl
p2532
Vhttp://trove.nla.gov.au/work/39262861
p2533
sVversionCount
p2534
I1
sVisPartOf
p2535
VAustralasian Historical Archaeology
p2536
sVholdingsCount
p2537
I0
sVrelevance
p2538
(dp2539
Vscore
p2540
V1.0
p2541
sVvalue
p2542
Vlikely to be relevant
p2543
ssVissued
p2544
I1997
sVcontributor
p2545
(lp2546
VPearson, Warwick
p2547
asVtype
p2548
(lp2549
VMap
p2550
aVArticle
p2551
aVArticle/Journal or magazine article
p2552
asVid
p2553
V39262861
p2554
sa(dp2555
Vtitle
p2556
VPlanning and delivering effective bus services in a new residential area
p2557
sVurl
p2558
V/work/39264368
p2559
sVtroveUrl
p2560
Vhttp://trove.nla.gov.au/work/39264368
p2561
sVversionCount
p2562
I1
sVisPartOf
p2563
VAustralian Planner
p2564
sVholdingsCount
p2565
I0
sVrelevance
p2566
(dp2567
Vscore
p2568
V1.0
p2569
sVvalue
p2570
Vlikely to be relevant
p2571
ssVissued
p2572
I1997
sVcontributor
p2573
(lp2574
VPund, George
p2575
aV Fleming, Dick
p2576
asVtype
p2577
(lp2578
VMap
p2579
aVArticle
p2580
aVArticle/Journal or magazine article
p2581
asVid
p2582
V39264368
p2583
sa(dp2584
Vtitle
p2585
VDocumenting land use change on LeFevre Peninsula, South Australia, 1935 to 1994
p2586
sVurl
p2587
V/work/39268190
p2588
sVtroveUrl
p2589
Vhttp://trove.nla.gov.au/work/39268190
p2590
sVversionCount
p2591
I1
sVisPartOf
p2592
VSouth Australian Geographical Journal
p2593
sVholdingsCount
p2594
I0
sVrelevance
p2595
(dp2596
Vscore
p2597
V1.0
p2598
sVvalue
p2599
Vlikely to be relevant
p2600
ssVissued
p2601
I1997
sVcontributor
p2602
(lp2603
VHall, Linda-Marie
p2604
asVtype
p2605
(lp2606
VMap
p2607
aVArticle
p2608
aVArticle/Journal or magazine article
p2609
asVid
p2610
V39268190
p2611
sa(dp2612
Vtitle
p2613
VRural crises and local farm/ non farm business linkages: a case study of Kangaroo Island
p2614
sVurl
p2615
V/work/39268189
p2616
sVtroveUrl
p2617
Vhttp://trove.nla.gov.au/work/39268189
p2618
sVversionCount
p2619
I1
sVisPartOf
p2620
VSouth Australian Geographical Journal
p2621
sVholdingsCount
p2622
I0
sVrelevance
p2623
(dp2624
Vscore
p2625
V1.0
p2626
sVvalue
p2627
Vlikely to be relevant
p2628
ssVissued
p2629
I1997
sVcontributor
p2630
(lp2631
VArgent, Neil
p2632
asVtype
p2633
(lp2634
VMap
p2635
aVArticle
p2636
aVArticle/Journal or magazine article
p2637
asVid
p2638
V39268189
p2639
sa(dp2640
Vtitle
p2641
V'I hope you will be my frend': Tasmanian aborigines in the Furneaux Group in the ninteenth century - population and land tenure
p2642
sVurl
p2643
V/work/39279588
p2644
sVtroveUrl
p2645
Vhttp://trove.nla.gov.au/work/39279588
p2646
sVversionCount
p2647
I1
sVisPartOf
p2648
VAboriginal History
p2649
sVholdingsCount
p2650
I0
sVrelevance
p2651
(dp2652
Vscore
p2653
V1.0
p2654
sVvalue
p2655
Vlikely to be relevant
p2656
ssVissued
p2657
I1997
sVcontributor
p2658
(lp2659
VSkira, Irynej
p2660
asVtype
p2661
(lp2662
VMap
p2663
aVArticle
p2664
aVArticle/Journal or magazine article
p2665
asVid
p2666
V39279588
p2667
sa(dp2668
Vtitle
p2669
VActivities of the National Tidal Facility
p2670
sVurl
p2671
V/work/39362211
p2672
sVtroveUrl
p2673
Vhttp://trove.nla.gov.au/work/39362211
p2674
sVversionCount
p2675
I1
sVisPartOf
p2676
VMaritime Studies
p2677
sVholdingsCount
p2678
I0
sVrelevance
p2679
(dp2680
Vscore
p2681
V1.0
p2682
sVvalue
p2683
Vlikely to be relevant
p2684
ssVissued
p2685
I1997
sVcontributor
p2686
(lp2687
VMurty, T. S
p2688
aV Mitchell, W. M
p2689
asVtype
p2690
(lp2691
VMap
p2692
aVArticle
p2693
aVArticle/Journal or magazine article
p2694
asVid
p2695
V39362211
p2696
sa(dp2697
Vtitle
p2698
VCirculation salary survey. (magazines)(Brief Article)
p2699
sVurl
p2700
V/work/43123780
p2701
sVtroveUrl
p2702
Vhttp://trove.nla.gov.au/work/43123780
p2703
sVversionCount
p2704
I1
sVisPartOf
p2705
VFolio: the Magazine for Magazine Management
p2706
sVholdingsCount
p2707
I0
sVrelevance
p2708
(dp2709
Vscore
p2710
V1.0
p2711
sVvalue
p2712
Vlikely to be relevant
p2713
ssVissued
p2714
I1997
sVcontributor
p2715
(lp2716
VSilber, Tony
p2717
asVtype
p2718
(lp2719
VMap
p2720
aVArticle
p2721
aVArticle/Journal or magazine article
p2722
asVid
p2723
V43123780
p2724
sa(dp2725
Vtitle
p2726
VProduction salary survey
p2727
sVurl
p2728
V/work/43123788
p2729
sVtroveUrl
p2730
Vhttp://trove.nla.gov.au/work/43123788
p2731
sVversionCount
p2732
I2
sVisPartOf
p2733
VFolio: the Magazine for Magazine Management
p2734
sVholdingsCount
p2735
I0
sVrelevance
p2736
(dp2737
Vscore
p2738
V1.0
p2739
sVvalue
p2740
Vlikely to be relevant
p2741
ssVissued
p2742
V1996-1997
p2743
sVcontributor
p2744
(lp2745
VSilber, Tony
p2746
asVtype
p2747
(lp2748
VMap
p2749
aVArticle
p2750
aVArticle/Journal or magazine article
p2751
asVid
p2752
V43123788
p2753
sa(dp2754
Vtitle
p2755
VAd sales salary surveys: both base salaries and bonuses for ad\u000asales directors decline.(trade-magazine and consumer-magazine salary\u000asurvey results)
p2756
sVurl
p2757
V/work/43123803
p2758
sVtroveUrl
p2759
Vhttp://trove.nla.gov.au/work/43123803
p2760
sVversionCount
p2761
I1
sVisPartOf
p2762
VFolio: the Magazine for Magazine Management
p2763
sVholdingsCount
p2764
I0
sVrelevance
p2765
(dp2766
Vscore
p2767
V1.0
p2768
sVvalue
p2769
Vlikely to be relevant
p2770
ssVissued
p2771
I1997
sVcontributor
p2772
(lp2773
VSilber, Tony
p2774
asVtype
p2775
(lp2776
VMap
p2777
aVArticle
p2778
aVArticle/Journal or magazine article
p2779
asVid
p2780
V43123803
p2781
sa(dp2782
Vtitle
p2783
VEditorial salary survey: increased demands and slim salary\u000aincreases reported by senior editors
p2784
sVurl
p2785
V/work/43123811
p2786
sVtroveUrl
p2787
Vhttp://trove.nla.gov.au/work/43123811
p2788
sVversionCount
p2789
I1
sVisPartOf
p2790
VFolio: the Magazine for Magazine Management
p2791
sVholdingsCount
p2792
I0
sVrelevance
p2793
(dp2794
Vscore
p2795
V1.0
p2796
sVvalue
p2797
Vlikely to be relevant
p2798
ssVissued
p2799
I1997
sVcontributor
p2800
(lp2801
VSilber, Tony
p2802
asVtype
p2803
(lp2804
VMap
p2805
aVArticle
p2806
aVArticle/Journal or magazine article
p2807
asVid
p2808
V43123811
p2809
sa(dp2810
Vtitle
p2811
VOne for the ages. (Race Across America)(includes related articles\u000aon women cyclists and solow winner Danny Chew of Pittsburgh,\u000aPennsylvania)
p2812
sVurl
p2813
V/work/43123942
p2814
sVtroveUrl
p2815
Vhttp://trove.nla.gov.au/work/43123942
p2816
sVversionCount
p2817
I1
sVisPartOf
p2818
VBicycling
p2819
sVholdingsCount
p2820
I0
sVrelevance
p2821
(dp2822
Vscore
p2823
V1.0
p2824
sVvalue
p2825
Vlikely to be relevant
p2826
ssVissued
p2827
I1997
sVcontributor
p2828
(lp2829
VKita, Joe
p2830
asVtype
p2831
(lp2832
VMap
p2833
aVPhotograph
p2834
aVArticle
p2835
aVArticle/Journal or magazine article
p2836
asVid
p2837
V43123942
p2838
sa(dp2839
Vtitle
p2840
VSanta Fe: surreal riding in the Southwest. (Santa Fe, New\u000aMexico)(includes related article on bicycle tracks)(Breakaways)
p2841
sVurl
p2842
V/work/43123939
p2843
sVtroveUrl
p2844
Vhttp://trove.nla.gov.au/work/43123939
p2845
sVversionCount
p2846
I1
sVisPartOf
p2847
VBicycling
p2848
sVholdingsCount
p2849
I0
sVrelevance
p2850
(dp2851
Vscore
p2852
V1.0
p2853
sVvalue
p2854
Vlikely to be relevant
p2855
ssVissued
p2856
I1997
sVcontributor
p2857
(lp2858
VKessler, Michael
p2859
asVtype
p2860
(lp2861
VMap
p2862
aVPhotograph
p2863
aVArticle
p2864
aVArticle/Journal or magazine article
p2865
asVid
p2866
V43123939
p2867
sa(dp2868
Vtitle
p2869
VKillington softly: yes, Virginia, there is live after the access\u000aroad.(Vermont ski resort)(includes related travel information)
p2870
sVurl
p2871
V/work/43124110
p2872
sVtroveUrl
p2873
Vhttp://trove.nla.gov.au/work/43124110
p2874
sVversionCount
p2875
I1
sVisPartOf
p2876
VSkiing
p2877
sVholdingsCount
p2878
I0
sVrelevance
p2879
(dp2880
Vscore
p2881
V1.0
p2882
sVvalue
p2883
Vlikely to be relevant
p2884
ssVissued
p2885
I1997
sVcontributor
p2886
(lp2887
VFinnell, Janice
p2888
asVtype
p2889
(lp2890
VMap
p2891
aVPhotograph
p2892
aVArticle
p2893
aVArticle/Journal or magazine article
p2894
asVid
p2895
V43124110
p2896
sa(dp2897
Vtitle
p2898
VAlaska: the land of dreams.(Cover Story)
p2899
sVurl
p2900
V/work/43124118
p2901
sVtroveUrl
p2902
Vhttp://trove.nla.gov.au/work/43124118
p2903
sVversionCount
p2904
I1
sVisPartOf
p2905
VBackpacker
p2906
sVholdingsCount
p2907
I0
sVrelevance
p2908
(dp2909
Vscore
p2910
V1.0
p2911
sVvalue
p2912
Vlikely to be relevant
p2913
ssVissued
p2914
I1997
sVcontributor
p2915
(lp2916
VRennicke, Jeff
p2917
asVtype
p2918
(lp2919
VMap
p2920
aVPhotograph
p2921
aVArticle
p2922
aVArticle/Journal or magazine article
p2923
asVid
p2924
V43124118
p2925
sa(dp2926
Vtitle
p2927
VMaine's Camden Hills.(Weekend Wilderness)(includes travel\u000ainformation)
p2928
sVurl
p2929
V/work/43124126
p2930
sVtroveUrl
p2931
Vhttp://trove.nla.gov.au/work/43124126
p2932
sVversionCount
p2933
I1
sVisPartOf
p2934
VBackpacker
p2935
sVholdingsCount
p2936
I0
sVrelevance
p2937
(dp2938
Vscore
p2939
V1.0
p2940
sVvalue
p2941
Vlikely to be relevant
p2942
ssVissued
p2943
I1997
sVcontributor
p2944
(lp2945
VSeymour, Tom
p2946
asVtype
p2947
(lp2948
VMap
p2949
aVPhotograph
p2950
aVArticle
p2951
aVArticle/Journal or magazine article
p2952
asVid
p2953
V43124126
p2954
sasVnext
p2955
V/result?q=+&sortby=datedesc&encoding=json&l-availability=y&reclevel=brief&n=100&zone=map&s=30172
p2956
sVs
p2957
V30072
p2958
sVtotal
p2959
V150958
p2960
sVn
p2961
V100
p2962
ssVname
p2963
Vmap
p2964
sass.