(dp0
Vresponse
p1
(dp2
Vquery
p3
V
p4
sVzone
p5
(lp6
(dp7
Vrecords
p8
(dp9
Vwork
p10
(lp11
(dp12
Vtitle
p13
VCQ News.(Broadcast transcript)
p14
sVurl
p15
V/work/175181567
p16
sVtroveUrl
p17
Vhttp://trove.nla.gov.au/work/175181567
p18
sVversionCount
p19
I1
sVholdingsCount
p20
I0
sVrelevance
p21
(dp22
Vscore
p23
V1.0
p24
sVvalue
p25
Vlikely to be relevant
p26
ssVissued
p27
I2013
sVisPartOf
p28
VCQ News
p29
sVtype
p30
(lp31
VArticle
p32
aVArticle/Other article
p33
aVSound
p34
aVSound/Other sound
p35
asVid
p36
V175181567
p37
sa(dp38
Vtitle
p39
VCQ News.(Broadcast transcript)
p40
sVurl
p41
V/work/175181569
p42
sVtroveUrl
p43
Vhttp://trove.nla.gov.au/work/175181569
p44
sVversionCount
p45
I1
sVholdingsCount
p46
I0
sVrelevance
p47
(dp48
Vscore
p49
V1.0
p50
sVvalue
p51
Vlikely to be relevant
p52
ssVissued
p53
I2013
sVisPartOf
p54
VCQ News
p55
sVtype
p56
(lp57
VArticle
p58
aVArticle/Other article
p59
aVSound
p60
aVSound/Other sound
p61
asVid
p62
V175181569
p63
sa(dp64
Vtitle
p65
VCQ News.(Broadcast transcript)
p66
sVurl
p67
V/work/175181573
p68
sVtroveUrl
p69
Vhttp://trove.nla.gov.au/work/175181573
p70
sVversionCount
p71
I1
sVholdingsCount
p72
I0
sVrelevance
p73
(dp74
Vscore
p75
V1.0
p76
sVvalue
p77
Vlikely to be relevant
p78
ssVissued
p79
I2013
sVisPartOf
p80
VCQ News
p81
sVtype
p82
(lp83
VArticle
p84
aVArticle/Other article
p85
aVSound
p86
aVSound/Other sound
p87
asVid
p88
V175181573
p89
sa(dp90
Vtitle
p91
VCQ News.(Broadcast transcript)
p92
sVurl
p93
V/work/175181575
p94
sVtroveUrl
p95
Vhttp://trove.nla.gov.au/work/175181575
p96
sVversionCount
p97
I1
sVholdingsCount
p98
I0
sVrelevance
p99
(dp100
Vscore
p101
V1.0
p102
sVvalue
p103
Vlikely to be relevant
p104
ssVissued
p105
I2013
sVisPartOf
p106
VCQ News
p107
sVtype
p108
(lp109
VArticle
p110
aVArticle/Other article
p111
aVSound
p112
aVSound/Other sound
p113
asVid
p114
V175181575
p115
sa(dp116
Vtitle
p117
VCQ News.(Broadcast transcript)
p118
sVurl
p119
V/work/175181577
p120
sVtroveUrl
p121
Vhttp://trove.nla.gov.au/work/175181577
p122
sVversionCount
p123
I1
sVholdingsCount
p124
I0
sVrelevance
p125
(dp126
Vscore
p127
V1.0
p128
sVvalue
p129
Vlikely to be relevant
p130
ssVissued
p131
I2013
sVisPartOf
p132
VCQ News
p133
sVtype
p134
(lp135
VArticle
p136
aVArticle/Other article
p137
aVSound
p138
aVSound/Other sound
p139
asVid
p140
V175181577
p141
sa(dp142
Vtitle
p143
VCQ News.(Broadcast transcript)
p144
sVurl
p145
V/work/175181579
p146
sVtroveUrl
p147
Vhttp://trove.nla.gov.au/work/175181579
p148
sVversionCount
p149
I1
sVholdingsCount
p150
I0
sVrelevance
p151
(dp152
Vscore
p153
V1.0
p154
sVvalue
p155
Vlikely to be relevant
p156
ssVissued
p157
I2013
sVisPartOf
p158
VCQ News
p159
sVtype
p160
(lp161
VArticle
p162
aVArticle/Other article
p163
aVSound
p164
aVSound/Other sound
p165
asVid
p166
V175181579
p167
sa(dp168
Vtitle
p169
VCQ News.(Broadcast transcript)
p170
sVurl
p171
V/work/175181583
p172
sVtroveUrl
p173
Vhttp://trove.nla.gov.au/work/175181583
p174
sVversionCount
p175
I1
sVholdingsCount
p176
I0
sVrelevance
p177
(dp178
Vscore
p179
V1.0
p180
sVvalue
p181
Vlikely to be relevant
p182
ssVissued
p183
I2013
sVisPartOf
p184
VCQ News
p185
sVtype
p186
(lp187
VArticle
p188
aVArticle/Other article
p189
aVSound
p190
aVSound/Other sound
p191
asVid
p192
V175181583
p193
sa(dp194
Vtitle
p195
VCQ News.(Broadcast transcript)
p196
sVurl
p197
V/work/175181585
p198
sVtroveUrl
p199
Vhttp://trove.nla.gov.au/work/175181585
p200
sVversionCount
p201
I1
sVholdingsCount
p202
I0
sVrelevance
p203
(dp204
Vscore
p205
V1.0
p206
sVvalue
p207
Vlikely to be relevant
p208
ssVissued
p209
I2013
sVisPartOf
p210
VCQ News
p211
sVtype
p212
(lp213
VArticle
p214
aVArticle/Other article
p215
aVSound
p216
aVSound/Other sound
p217
asVid
p218
V175181585
p219
sa(dp220
Vtitle
p221
VCQ News.(Broadcast transcript)
p222
sVurl
p223
V/work/175181587
p224
sVtroveUrl
p225
Vhttp://trove.nla.gov.au/work/175181587
p226
sVversionCount
p227
I1
sVholdingsCount
p228
I0
sVrelevance
p229
(dp230
Vscore
p231
V1.0
p232
sVvalue
p233
Vlikely to be relevant
p234
ssVissued
p235
I2013
sVisPartOf
p236
VCQ News
p237
sVtype
p238
(lp239
VArticle
p240
aVArticle/Other article
p241
aVSound
p242
aVSound/Other sound
p243
asVid
p244
V175181587
p245
sa(dp246
Vtitle
p247
VCQ News.(Broadcast transcript)
p248
sVurl
p249
V/work/175181589
p250
sVtroveUrl
p251
Vhttp://trove.nla.gov.au/work/175181589
p252
sVversionCount
p253
I1
sVholdingsCount
p254
I0
sVrelevance
p255
(dp256
Vscore
p257
V1.0
p258
sVvalue
p259
Vlikely to be relevant
p260
ssVissued
p261
I2013
sVisPartOf
p262
VCQ News
p263
sVtype
p264
(lp265
VArticle
p266
aVArticle/Other article
p267
aVSound
p268
aVSound/Other sound
p269
asVid
p270
V175181589
p271
sa(dp272
Vtitle
p273
VCQ News.(Broadcast transcript)
p274
sVurl
p275
V/work/175181591
p276
sVtroveUrl
p277
Vhttp://trove.nla.gov.au/work/175181591
p278
sVversionCount
p279
I1
sVholdingsCount
p280
I0
sVrelevance
p281
(dp282
Vscore
p283
V1.0
p284
sVvalue
p285
Vlikely to be relevant
p286
ssVissued
p287
I2013
sVisPartOf
p288
VCQ News
p289
sVtype
p290
(lp291
VArticle
p292
aVArticle/Other article
p293
aVSound
p294
aVSound/Other sound
p295
asVid
p296
V175181591
p297
sa(dp298
Vtitle
p299
VQ1 2012 Fortress International Group Inc Earnings Conference Call\u000a- Final.(Broadcast transcript)
p300
sVurl
p301
V/work/175181595
p302
sVtroveUrl
p303
Vhttp://trove.nla.gov.au/work/175181595
p304
sVversionCount
p305
I1
sVholdingsCount
p306
I0
sVrelevance
p307
(dp308
Vscore
p309
V1.0
p310
sVvalue
p311
Vlikely to be relevant
p312
ssVissued
p313
I2012
sVisPartOf
p314
VFair Disclosure Wire
p315
sVtype
p316
(lp317
VArticle
p318
aVArticle/Other article
p319
aVSound
p320
aVSound/Other sound
p321
asVid
p322
V175181595
p323
sa(dp324
Vtitle
p325
VQ3 2012 Novorossiyskiy morskoy torgovyi port OAO Earnings\u000aConference Call (IFRS) - Final.(Broadcast transcript)
p326
sVurl
p327
V/work/175181597
p328
sVtroveUrl
p329
Vhttp://trove.nla.gov.au/work/175181597
p330
sVversionCount
p331
I1
sVholdingsCount
p332
I0
sVrelevance
p333
(dp334
Vscore
p335
V1.0
p336
sVvalue
p337
Vlikely to be relevant
p338
ssVissued
p339
I2012
sVisPartOf
p340
VFair Disclosure Wire
p341
sVtype
p342
(lp343
VArticle
p344
aVArticle/Other article
p345
aVSound
p346
aVSound/Other sound
p347
asVid
p348
V175181597
p349
sa(dp350
Vtitle
p351
VImpact.(Broadcast transcript)
p352
sVurl
p353
V/work/175181601
p354
sVtroveUrl
p355
Vhttp://trove.nla.gov.au/work/175181601
p356
sVversionCount
p357
I1
sVholdingsCount
p358
I0
sVrelevance
p359
(dp360
Vscore
p361
V1.0
p362
sVvalue
p363
Vlikely to be relevant
p364
ssVissued
p365
I2013
sVisPartOf
p366
VO'Reilly Factor (FOX News)
p367
sVtype
p368
(lp369
VSound
p370
aVSound/Other sound
p371
asVid
p372
V175181601
p373
sa(dp374
Vtitle
p375
VPersonal Story.(Broadcast transcript)
p376
sVurl
p377
V/work/175181603
p378
sVtroveUrl
p379
Vhttp://trove.nla.gov.au/work/175181603
p380
sVversionCount
p381
I1
sVholdingsCount
p382
I0
sVrelevance
p383
(dp384
Vscore
p385
V1.0
p386
sVvalue
p387
Vlikely to be relevant
p388
ssVissued
p389
I2013
sVisPartOf
p390
VO'Reilly Factor (FOX News)
p391
sVtype
p392
(lp393
VSound
p394
aVSound/Other sound
p395
asVid
p396
V175181603
p397
sa(dp398
Vtitle
p399
VInterview with Ted Cruz.(Broadcast transcript)
p400
sVurl
p401
V/work/175181609
p402
sVtroveUrl
p403
Vhttp://trove.nla.gov.au/work/175181609
p404
sVversionCount
p405
I1
sVholdingsCount
p406
I0
sVrelevance
p407
(dp408
Vscore
p409
V1.0
p410
sVvalue
p411
Vlikely to be relevant
p412
ssVissued
p413
I2013
sVisPartOf
p414
VFOX News Sunday
p415
sVtype
p416
(lp417
VSound
p418
aVSound/Other sound
p419
asVid
p420
V175181609
p421
sa(dp422
Vtitle
p423
VCanada Pension Plan's investments see 'explosive'\u000agrowth.(Broadcast transcript)
p424
sVurl
p425
V/work/175181613
p426
sVtroveUrl
p427
Vhttp://trove.nla.gov.au/work/175181613
p428
sVversionCount
p429
I1
sVholdingsCount
p430
I0
sVrelevance
p431
(dp432
Vscore
p433
V1.0
p434
sVvalue
p435
Vlikely to be relevant
p436
ssVissued
p437
I2013
sVisPartOf
p438
VThe Canadian Broadcasting Corporation (CBC)
p439
sVtype
p440
(lp441
VSound
p442
aVSound/Other sound
p443
asVid
p444
V175181613
p445
sa(dp446
Vtitle
p447
VNorovirus spreading quickly in Vancouver area.(Broadcast\u000atranscript)
p448
sVurl
p449
V/work/175181615
p450
sVtroveUrl
p451
Vhttp://trove.nla.gov.au/work/175181615
p452
sVversionCount
p453
I1
sVholdingsCount
p454
I0
sVrelevance
p455
(dp456
Vscore
p457
V1.0
p458
sVvalue
p459
Vlikely to be relevant
p460
ssVissued
p461
I2013
sVisPartOf
p462
VThe Canadian Broadcasting Corporation (CBC)
p463
sVtype
p464
(lp465
VSound
p466
aVSound/Other sound
p467
asVid
p468
V175181615
p469
sa(dp470
Vtitle
p471
VNew EI changes now in effect.(Broadcast transcript)
p472
sVurl
p473
V/work/175181619
p474
sVtroveUrl
p475
Vhttp://trove.nla.gov.au/work/175181619
p476
sVversionCount
p477
I1
sVholdingsCount
p478
I0
sVrelevance
p479
(dp480
Vscore
p481
V1.0
p482
sVvalue
p483
Vlikely to be relevant
p484
ssVissued
p485
I2013
sVisPartOf
p486
VThe Canadian Broadcasting Corporation (CBC)
p487
sVtype
p488
(lp489
VSound
p490
aVSound/Other sound
p491
asVid
p492
V175181619
p493
sa(dp494
Vtitle
p495
VDon Cherry: Gary Bettman 'saved the season'.(Broadcast\u000atranscript)
p496
sVurl
p497
V/work/175181621
p498
sVtroveUrl
p499
Vhttp://trove.nla.gov.au/work/175181621
p500
sVversionCount
p501
I1
sVholdingsCount
p502
I0
sVrelevance
p503
(dp504
Vscore
p505
V1.0
p506
sVvalue
p507
Vlikely to be relevant
p508
ssVissued
p509
I2013
sVisPartOf
p510
VThe Canadian Broadcasting Corporation (CBC)
p511
sVtype
p512
(lp513
VSound
p514
aVSound/Other sound
p515
asVid
p516
V175181621
p517
sa(dp518
Vtitle
p519
V5 Questions: NHL teams ready for life after lockout?(Broadcast\u000atranscript)
p520
sVurl
p521
V/work/175181623
p522
sVtroveUrl
p523
Vhttp://trove.nla.gov.au/work/175181623
p524
sVversionCount
p525
I1
sVholdingsCount
p526
I0
sVrelevance
p527
(dp528
Vscore
p529
V1.0
p530
sVvalue
p531
Vlikely to be relevant
p532
ssVissued
p533
I2013
sVisPartOf
p534
VThe Canadian Broadcasting Corporation (CBC)
p535
sVtype
p536
(lp537
VSound
p538
aVSound/Other sound
p539
asVid
p540
V175181623
p541
sa(dp542
Vtitle
p543
VSource: Hagel to Be Nominated Tomorrow; Missoni Plane Missing for\u000aTwo Days; Syrian President Gives Rare Speech; Egyptian\u000aPresident.(Broadcast transcript)
p544
sVurl
p545
V/work/175181506
p546
sVtroveUrl
p547
Vhttp://trove.nla.gov.au/work/175181506
p548
sVversionCount
p549
I1
sVholdingsCount
p550
I0
sVrelevance
p551
(dp552
Vscore
p553
V1.0
p554
sVvalue
p555
Vlikely to be relevant
p556
ssVissued
p557
I2013
sVisPartOf
p558
VCNN Newsroom
p559
sVtype
p560
(lp561
VSound
p562
aVSound/Other sound
p563
asVid
p564
V175181506
p565
sa(dp566
Vtitle
p567
VHagel's the Choice; Online Outrage over Ohio Rape Case;\u000aAntique Gun Show Held in Connecticut; Police: Teen Made Homemade\u000aExplosives;.(Broadcast transcript)
p568
sVurl
p569
V/work/175181510
p570
sVtroveUrl
p571
Vhttp://trove.nla.gov.au/work/175181510
p572
sVversionCount
p573
I1
sVholdingsCount
p574
I0
sVrelevance
p575
(dp576
Vscore
p577
V1.0
p578
sVvalue
p579
Vlikely to be relevant
p580
ssVissued
p581
I2013
sVisPartOf
p582
VCNN Newsroom
p583
sVtype
p584
(lp585
VSound
p586
aVSound/Other sound
p587
asVid
p588
V175181510
p589
sa(dp590
Vtitle
p591
VCovering the Cliff Craziness; Hillary Haters Hammered.(Broadcast\u000atranscript)
p592
sVurl
p593
V/work/175181512
p594
sVtroveUrl
p595
Vhttp://trove.nla.gov.au/work/175181512
p596
sVversionCount
p597
I1
sVholdingsCount
p598
I0
sVrelevance
p599
(dp600
Vscore
p601
V1.0
p602
sVvalue
p603
Vlikely to be relevant
p604
ssVissued
p605
I2013
sVisPartOf
p606
VCNN Reliable Sources
p607
sVtype
p608
(lp609
VSound
p610
aVSound/Other sound
p611
asVid
p612
V175181512
p613
sa(dp614
Vtitle
p615
VCNN Presents: The Coming Storms.(Broadcast transcript)
p616
sVurl
p617
V/work/175181514
p618
sVtroveUrl
p619
Vhttp://trove.nla.gov.au/work/175181514
p620
sVversionCount
p621
I1
sVholdingsCount
p622
I0
sVrelevance
p623
(dp624
Vscore
p625
V1.0
p626
sVvalue
p627
Vlikely to be relevant
p628
ssVissued
p629
I2013
sVisPartOf
p630
VCNN Presents
p631
sVtype
p632
(lp633
VSound
p634
aVSound/Other sound
p635
asVid
p636
V175181514
p637
sa(dp638
Vtitle
p639
VDebt Ceiling Showdown; NBC Execs Address Violent TV Content;\u000aAnalysts: Cyber Warfare to Go Mainstream; Redskins Sticking with\u000aRG3.(Broadcast transcript)
p640
sVurl
p641
V/work/175181516
p642
sVtroveUrl
p643
Vhttp://trove.nla.gov.au/work/175181516
p644
sVversionCount
p645
I1
sVholdingsCount
p646
I0
sVrelevance
p647
(dp648
Vscore
p649
V1.0
p650
sVvalue
p651
Vlikely to be relevant
p652
ssVissued
p653
I2013
sVisPartOf
p654
VCNN Newsroom
p655
sVtype
p656
(lp657
VSound
p658
aVSound/Other sound
p659
asVid
p660
V175181516
p661
sa(dp662
Vtitle
p663
VHagel: Obama's Pick for Defense Secretary; Google Chief, BCS\u000aChampionship Game Tonight; Former New Mexico Governor in North\u000aKorea;.(Broadcast transcript)
p664
sVurl
p665
V/work/175181518
p666
sVtroveUrl
p667
Vhttp://trove.nla.gov.au/work/175181518
p668
sVversionCount
p669
I1
sVholdingsCount
p670
I0
sVrelevance
p671
(dp672
Vscore
p673
V1.0
p674
sVvalue
p675
Vlikely to be relevant
p676
ssVissued
p677
I2013
sVisPartOf
p678
VCNN Newsroom
p679
sVtype
p680
(lp681
VSound
p682
aVSound/Other sound
p683
asVid
p684
V175181518
p685
sa(dp686
Vtitle
p687
VFDA Takes Steps to Stem Food Contamination; Ex Official: Hagel\u000aBad Choice for Defense Secretary; Egyptian President Agrees\u000aAssad.(Broadcast transcript)
p688
sVurl
p689
V/work/175181520
p690
sVtroveUrl
p691
Vhttp://trove.nla.gov.au/work/175181520
p692
sVversionCount
p693
I1
sVholdingsCount
p694
I0
sVrelevance
p695
(dp696
Vscore
p697
V1.0
p698
sVvalue
p699
Vlikely to be relevant
p700
ssVissued
p701
I2013
sVisPartOf
p702
VCNN Newsroom
p703
sVtype
p704
(lp705
VSound
p706
aVSound/Other sound
p707
asVid
p708
V175181520
p709
sa(dp710
Vtitle
p711
VObama To Tap Brennan as CIA Director; Obama To Nominate Hagel as\u000aDefense Secretary.(Broadcast transcript)
p712
sVurl
p713
V/work/175181522
p714
sVtroveUrl
p715
Vhttp://trove.nla.gov.au/work/175181522
p716
sVversionCount
p717
I1
sVholdingsCount
p718
I0
sVrelevance
p719
(dp720
Vscore
p721
V1.0
p722
sVvalue
p723
Vlikely to be relevant
p724
ssVissued
p725
I2013
sVisPartOf
p726
VCNN Newsroom
p727
sVtype
p728
(lp729
VSound
p730
aVSound/Other sound
p731
asVid
p732
V175181522
p733
sa(dp734
Vtitle
p735
VCQ News.(Broadcast transcript)
p736
sVurl
p737
V/work/175181562
p738
sVtroveUrl
p739
Vhttp://trove.nla.gov.au/work/175181562
p740
sVversionCount
p741
I1
sVholdingsCount
p742
I0
sVrelevance
p743
(dp744
Vscore
p745
V1.0
p746
sVvalue
p747
Vlikely to be relevant
p748
ssVissued
p749
I2013
sVisPartOf
p750
VCQ News
p751
sVtype
p752
(lp753
VArticle
p754
aVArticle/Other article
p755
aVSound
p756
aVSound/Other sound
p757
asVid
p758
V175181562
p759
sa(dp760
Vtitle
p761
VCQ News.(Broadcast transcript)
p762
sVurl
p763
V/work/175181564
p764
sVtroveUrl
p765
Vhttp://trove.nla.gov.au/work/175181564
p766
sVversionCount
p767
I1
sVholdingsCount
p768
I0
sVrelevance
p769
(dp770
Vscore
p771
V1.0
p772
sVvalue
p773
Vlikely to be relevant
p774
ssVissued
p775
I2013
sVisPartOf
p776
VCQ News
p777
sVtype
p778
(lp779
VArticle
p780
aVArticle/Other article
p781
aVSound
p782
aVSound/Other sound
p783
asVid
p784
V175181564
p785
sa(dp786
Vtitle
p787
VCQ News.(Broadcast transcript)
p788
sVurl
p789
V/work/175181566
p790
sVtroveUrl
p791
Vhttp://trove.nla.gov.au/work/175181566
p792
sVversionCount
p793
I1
sVholdingsCount
p794
I0
sVrelevance
p795
(dp796
Vscore
p797
V1.0
p798
sVvalue
p799
Vlikely to be relevant
p800
ssVissued
p801
I2013
sVisPartOf
p802
VCQ News
p803
sVtype
p804
(lp805
VArticle
p806
aVArticle/Other article
p807
aVSound
p808
aVSound/Other sound
p809
asVid
p810
V175181566
p811
sa(dp812
Vtitle
p813
VCQ News.(Broadcast transcript)
p814
sVurl
p815
V/work/175181570
p816
sVtroveUrl
p817
Vhttp://trove.nla.gov.au/work/175181570
p818
sVversionCount
p819
I1
sVholdingsCount
p820
I0
sVrelevance
p821
(dp822
Vscore
p823
V1.0
p824
sVvalue
p825
Vlikely to be relevant
p826
ssVissued
p827
I2013
sVisPartOf
p828
VCQ News
p829
sVtype
p830
(lp831
VArticle
p832
aVArticle/Other article
p833
aVSound
p834
aVSound/Other sound
p835
asVid
p836
V175181570
p837
sa(dp838
Vtitle
p839
VCQ News.(Broadcast transcript)
p840
sVurl
p841
V/work/175181572
p842
sVtroveUrl
p843
Vhttp://trove.nla.gov.au/work/175181572
p844
sVversionCount
p845
I1
sVholdingsCount
p846
I0
sVrelevance
p847
(dp848
Vscore
p849
V1.0
p850
sVvalue
p851
Vlikely to be relevant
p852
ssVissued
p853
I2013
sVisPartOf
p854
VCQ News
p855
sVtype
p856
(lp857
VArticle
p858
aVArticle/Other article
p859
aVSound
p860
aVSound/Other sound
p861
asVid
p862
V175181572
p863
sa(dp864
Vtitle
p865
VCQ News.(Broadcast transcript)
p866
sVurl
p867
V/work/175181574
p868
sVtroveUrl
p869
Vhttp://trove.nla.gov.au/work/175181574
p870
sVversionCount
p871
I1
sVholdingsCount
p872
I0
sVrelevance
p873
(dp874
Vscore
p875
V1.0
p876
sVvalue
p877
Vlikely to be relevant
p878
ssVissued
p879
I2013
sVisPartOf
p880
VCQ News
p881
sVtype
p882
(lp883
VArticle
p884
aVArticle/Other article
p885
aVSound
p886
aVSound/Other sound
p887
asVid
p888
V175181574
p889
sa(dp890
Vtitle
p891
VCQ News.(Broadcast transcript)
p892
sVurl
p893
V/work/175181576
p894
sVtroveUrl
p895
Vhttp://trove.nla.gov.au/work/175181576
p896
sVversionCount
p897
I1
sVholdingsCount
p898
I0
sVrelevance
p899
(dp900
Vscore
p901
V1.0
p902
sVvalue
p903
Vlikely to be relevant
p904
ssVissued
p905
I2013
sVisPartOf
p906
VCQ News
p907
sVtype
p908
(lp909
VArticle
p910
aVArticle/Other article
p911
aVSound
p912
aVSound/Other sound
p913
asVid
p914
V175181576
p915
sa(dp916
Vtitle
p917
VCQ News.(Broadcast transcript)
p918
sVurl
p919
V/work/175181578
p920
sVtroveUrl
p921
Vhttp://trove.nla.gov.au/work/175181578
p922
sVversionCount
p923
I1
sVholdingsCount
p924
I0
sVrelevance
p925
(dp926
Vscore
p927
V1.0
p928
sVvalue
p929
Vlikely to be relevant
p930
ssVissued
p931
I2013
sVisPartOf
p932
VCQ News
p933
sVtype
p934
(lp935
VArticle
p936
aVArticle/Other article
p937
aVSound
p938
aVSound/Other sound
p939
asVid
p940
V175181578
p941
sa(dp942
Vtitle
p943
VCQ News.(Broadcast transcript)
p944
sVurl
p945
V/work/175181580
p946
sVtroveUrl
p947
Vhttp://trove.nla.gov.au/work/175181580
p948
sVversionCount
p949
I1
sVholdingsCount
p950
I0
sVrelevance
p951
(dp952
Vscore
p953
V1.0
p954
sVvalue
p955
Vlikely to be relevant
p956
ssVissued
p957
I2013
sVisPartOf
p958
VCQ News
p959
sVtype
p960
(lp961
VArticle
p962
aVArticle/Other article
p963
aVSound
p964
aVSound/Other sound
p965
asVid
p966
V175181580
p967
sa(dp968
Vtitle
p969
VCQ News.(Broadcast transcript)
p970
sVurl
p971
V/work/175181582
p972
sVtroveUrl
p973
Vhttp://trove.nla.gov.au/work/175181582
p974
sVversionCount
p975
I1
sVholdingsCount
p976
I0
sVrelevance
p977
(dp978
Vscore
p979
V1.0
p980
sVvalue
p981
Vlikely to be relevant
p982
ssVissued
p983
I2013
sVisPartOf
p984
VCQ News
p985
sVtype
p986
(lp987
VArticle
p988
aVArticle/Other article
p989
aVSound
p990
aVSound/Other sound
p991
asVid
p992
V175181582
p993
sa(dp994
Vtitle
p995
VCQ News.(Broadcast transcript)
p996
sVurl
p997
V/work/175181584
p998
sVtroveUrl
p999
Vhttp://trove.nla.gov.au/work/175181584
p1000
sVversionCount
p1001
I1
sVholdingsCount
p1002
I0
sVrelevance
p1003
(dp1004
Vscore
p1005
V1.0
p1006
sVvalue
p1007
Vlikely to be relevant
p1008
ssVissued
p1009
I2013
sVisPartOf
p1010
VCQ News
p1011
sVtype
p1012
(lp1013
VArticle
p1014
aVArticle/Other article
p1015
aVSound
p1016
aVSound/Other sound
p1017
asVid
p1018
V175181584
p1019
sa(dp1020
Vtitle
p1021
VCQ News.(Broadcast transcript)
p1022
sVurl
p1023
V/work/175181586
p1024
sVtroveUrl
p1025
Vhttp://trove.nla.gov.au/work/175181586
p1026
sVversionCount
p1027
I1
sVholdingsCount
p1028
I0
sVrelevance
p1029
(dp1030
Vscore
p1031
V1.0
p1032
sVvalue
p1033
Vlikely to be relevant
p1034
ssVissued
p1035
I2013
sVisPartOf
p1036
VCQ News
p1037
sVtype
p1038
(lp1039
VArticle
p1040
aVArticle/Other article
p1041
aVSound
p1042
aVSound/Other sound
p1043
asVid
p1044
V175181586
p1045
sa(dp1046
Vtitle
p1047
VCQ News.(Broadcast transcript)
p1048
sVurl
p1049
V/work/175181588
p1050
sVtroveUrl
p1051
Vhttp://trove.nla.gov.au/work/175181588
p1052
sVversionCount
p1053
I1
sVholdingsCount
p1054
I0
sVrelevance
p1055
(dp1056
Vscore
p1057
V1.0
p1058
sVvalue
p1059
Vlikely to be relevant
p1060
ssVissued
p1061
I2013
sVisPartOf
p1062
VCQ News
p1063
sVtype
p1064
(lp1065
VArticle
p1066
aVArticle/Other article
p1067
aVSound
p1068
aVSound/Other sound
p1069
asVid
p1070
V175181588
p1071
sa(dp1072
Vtitle
p1073
VCQ News.(Broadcast transcript)
p1074
sVurl
p1075
V/work/175181590
p1076
sVtroveUrl
p1077
Vhttp://trove.nla.gov.au/work/175181590
p1078
sVversionCount
p1079
I1
sVholdingsCount
p1080
I0
sVrelevance
p1081
(dp1082
Vscore
p1083
V1.0
p1084
sVvalue
p1085
Vlikely to be relevant
p1086
ssVissued
p1087
I2013
sVisPartOf
p1088
VCQ News
p1089
sVtype
p1090
(lp1091
VArticle
p1092
aVArticle/Other article
p1093
aVSound
p1094
aVSound/Other sound
p1095
asVid
p1096
V175181590
p1097
sa(dp1098
Vtitle
p1099
VCQ News.(Broadcast transcript)
p1100
sVurl
p1101
V/work/175181592
p1102
sVtroveUrl
p1103
Vhttp://trove.nla.gov.au/work/175181592
p1104
sVversionCount
p1105
I1
sVholdingsCount
p1106
I0
sVrelevance
p1107
(dp1108
Vscore
p1109
V1.0
p1110
sVvalue
p1111
Vlikely to be relevant
p1112
ssVissued
p1113
I2013
sVisPartOf
p1114
VCQ News
p1115
sVtype
p1116
(lp1117
VArticle
p1118
aVArticle/Other article
p1119
aVSound
p1120
aVSound/Other sound
p1121
asVid
p1122
V175181592
p1123
sa(dp1124
Vtitle
p1125
VCQ News.(Broadcast transcript)
p1126
sVurl
p1127
V/work/175181594
p1128
sVtroveUrl
p1129
Vhttp://trove.nla.gov.au/work/175181594
p1130
sVversionCount
p1131
I1
sVholdingsCount
p1132
I0
sVrelevance
p1133
(dp1134
Vscore
p1135
V1.0
p1136
sVvalue
p1137
Vlikely to be relevant
p1138
ssVissued
p1139
I2013
sVisPartOf
p1140
VCQ News
p1141
sVtype
p1142
(lp1143
VArticle
p1144
aVArticle/Other article
p1145
aVSound
p1146
aVSound/Other sound
p1147
asVid
p1148
V175181594
p1149
sa(dp1150
Vtitle
p1151
VQ3 2012 Fortress International Group Inc. Earnings Conference\u000aCall - Final.(Broadcast transcript)
p1152
sVurl
p1153
V/work/175181596
p1154
sVtroveUrl
p1155
Vhttp://trove.nla.gov.au/work/175181596
p1156
sVversionCount
p1157
I1
sVholdingsCount
p1158
I0
sVrelevance
p1159
(dp1160
Vscore
p1161
V1.0
p1162
sVvalue
p1163
Vlikely to be relevant
p1164
ssVissued
p1165
I2012
sVisPartOf
p1166
VFair Disclosure Wire
p1167
sVtype
p1168
(lp1169
VArticle
p1170
aVArticle/Other article
p1171
aVSound
p1172
aVSound/Other sound
p1173
asVid
p1174
V175181596
p1175
sa(dp1176
Vtitle
p1177
VWILLIS REPORT for January 4, 2012.(Broadcast transcript)
p1178
sVurl
p1179
V/work/175181598
p1180
sVtroveUrl
p1181
Vhttp://trove.nla.gov.au/work/175181598
p1182
sVversionCount
p1183
I1
sVholdingsCount
p1184
I0
sVrelevance
p1185
(dp1186
Vscore
p1187
V1.0
p1188
sVvalue
p1189
Vlikely to be relevant
p1190
ssVissued
p1191
I2013
sVisPartOf
p1192
VThe Willis Report
p1193
sVtype
p1194
(lp1195
VSound
p1196
aVSound/Other sound
p1197
asVid
p1198
V175181598
p1199
sa(dp1200
Vtitle
p1201
VLou's the Boss.(Broadcast transcript)
p1202
sVurl
p1203
V/work/175181602
p1204
sVtroveUrl
p1205
Vhttp://trove.nla.gov.au/work/175181602
p1206
sVversionCount
p1207
I1
sVholdingsCount
p1208
I0
sVrelevance
p1209
(dp1210
Vscore
p1211
V1.0
p1212
sVvalue
p1213
Vlikely to be relevant
p1214
ssVissued
p1215
I2013
sVisPartOf
p1216
VO'Reilly Factor (FOX News)
p1217
sVtype
p1218
(lp1219
VSound
p1220
aVSound/Other sound
p1221
asVid
p1222
V175181602
p1223
sa(dp1224
Vtitle
p1225
VWALL STREET JOURNAL EDITORIAL REPORT for January 5,\u000a2013.(Broadcast transcript)
p1226
sVurl
p1227
V/work/175181606
p1228
sVtroveUrl
p1229
Vhttp://trove.nla.gov.au/work/175181606
p1230
sVversionCount
p1231
I1
sVholdingsCount
p1232
I0
sVrelevance
p1233
(dp1234
Vscore
p1235
V1.0
p1236
sVvalue
p1237
Vlikely to be relevant
p1238
ssVissued
p1239
I2013
sVisPartOf
p1240
VJournal Editorial Report (Fox News)
p1241
sVtype
p1242
(lp1243
VSound
p1244
aVSound/Other sound
p1245
asVid
p1246
V175181606
p1247
sa(dp1248
Vtitle
p1249
VInterview with Chris Van Hollen, Jim Jordan.(Broadcast\u000atranscript)
p1250
sVurl
p1251
V/work/175181608
p1252
sVtroveUrl
p1253
Vhttp://trove.nla.gov.au/work/175181608
p1254
sVversionCount
p1255
I1
sVholdingsCount
p1256
I0
sVrelevance
p1257
(dp1258
Vscore
p1259
V1.0
p1260
sVvalue
p1261
Vlikely to be relevant
p1262
ssVissued
p1263
I2013
sVisPartOf
p1264
VFOX News Sunday
p1265
sVtype
p1266
(lp1267
VSound
p1268
aVSound/Other sound
p1269
asVid
p1270
V175181608
p1271
sa(dp1272
Vtitle
p1273
VFox News Sunday Roundtable.(Broadcast transcript)
p1274
sVurl
p1275
V/work/175181610
p1276
sVtroveUrl
p1277
Vhttp://trove.nla.gov.au/work/175181610
p1278
sVversionCount
p1279
I1
sVholdingsCount
p1280
I0
sVrelevance
p1281
(dp1282
Vscore
p1283
V1.0
p1284
sVvalue
p1285
Vlikely to be relevant
p1286
ssVissued
p1287
I2013
sVisPartOf
p1288
VFOX News Sunday
p1289
sVtype
p1290
(lp1291
VSound
p1292
aVSound/Other sound
p1293
asVid
p1294
V175181610
p1295
sa(dp1296
Vtitle
p1297
VWestJet plane slips off tarmac in Kelowna blizzard.(Broadcast\u000atranscript)
p1298
sVurl
p1299
V/work/175181625
p1300
sVtroveUrl
p1301
Vhttp://trove.nla.gov.au/work/175181625
p1302
sVversionCount
p1303
I1
sVholdingsCount
p1304
I0
sVrelevance
p1305
(dp1306
Vscore
p1307
V1.0
p1308
sVvalue
p1309
Vlikely to be relevant
p1310
ssVissued
p1311
I2013
sVisPartOf
p1312
VThe Canadian Broadcasting Corporation (CBC)
p1313
sVtype
p1314
(lp1315
VSound
p1316
aVSound/Other sound
p1317
asVid
p1318
V175181625
p1319
sa(dp1320
Vtitle
p1321
VCanadian airlines report fuller planes in 2012.(Broadcast\u000atranscript)
p1322
sVurl
p1323
V/work/175181627
p1324
sVtroveUrl
p1325
Vhttp://trove.nla.gov.au/work/175181627
p1326
sVversionCount
p1327
I1
sVholdingsCount
p1328
I0
sVrelevance
p1329
(dp1330
Vscore
p1331
V1.0
p1332
sVvalue
p1333
Vlikely to be relevant
p1334
ssVissued
p1335
I2013
sVisPartOf
p1336
VThe Canadian Broadcasting Corporation (CBC)
p1337
sVtype
p1338
(lp1339
VSound
p1340
aVSound/Other sound
p1341
asVid
p1342
V175181627
p1343
sa(dp1344
Vtitle
p1345
VSupplement labels for caffeine called inaccurate.(Broadcast\u000atranscript)
p1346
sVurl
p1347
V/work/175181629
p1348
sVtroveUrl
p1349
Vhttp://trove.nla.gov.au/work/175181629
p1350
sVversionCount
p1351
I1
sVholdingsCount
p1352
I0
sVrelevance
p1353
(dp1354
Vscore
p1355
V1.0
p1356
sVvalue
p1357
Vlikely to be relevant
p1358
ssVissued
p1359
I2013
sVisPartOf
p1360
VThe Canadian Broadcasting Corporation (CBC)
p1361
sVtype
p1362
(lp1363
VSound
p1364
aVSound/Other sound
p1365
asVid
p1366
V175181629
p1367
sa(dp1368
Vtitle
p1369
VCanadian celebrity chef missing since New Year's\u000aEve.(Broadcast transcript)
p1370
sVurl
p1371
V/work/175181631
p1372
sVtroveUrl
p1373
Vhttp://trove.nla.gov.au/work/175181631
p1374
sVversionCount
p1375
I1
sVholdingsCount
p1376
I0
sVrelevance
p1377
(dp1378
Vscore
p1379
V1.0
p1380
sVvalue
p1381
Vlikely to be relevant
p1382
ssVissued
p1383
I2013
sVisPartOf
p1384
VThe Canadian Broadcasting Corporation (CBC)
p1385
sVtype
p1386
(lp1387
VSound
p1388
aVSound/Other sound
p1389
asVid
p1390
V175181631
p1391
sa(dp1392
Vtitle
p1393
VNecessary diabetic eye exams skipped despite funding.(Broadcast\u000atranscript)
p1394
sVurl
p1395
V/work/175181633
p1396
sVtroveUrl
p1397
Vhttp://trove.nla.gov.au/work/175181633
p1398
sVversionCount
p1399
I1
sVholdingsCount
p1400
I0
sVrelevance
p1401
(dp1402
Vscore
p1403
V1.0
p1404
sVvalue
p1405
Vlikely to be relevant
p1406
ssVissued
p1407
I2013
sVisPartOf
p1408
VThe Canadian Broadcasting Corporation (CBC)
p1409
sVtype
p1410
(lp1411
VSound
p1412
aVSound/Other sound
p1413
asVid
p1414
V175181633
p1415
sa(dp1416
Vtitle
p1417
VPolice patrol Northern Gateway hearings in Victoria.(Broadcast\u000atranscript)
p1418
sVurl
p1419
V/work/175181612
p1420
sVtroveUrl
p1421
Vhttp://trove.nla.gov.au/work/175181612
p1422
sVversionCount
p1423
I1
sVholdingsCount
p1424
I0
sVrelevance
p1425
(dp1426
Vscore
p1427
V1.0
p1428
sVvalue
p1429
Vlikely to be relevant
p1430
ssVissued
p1431
I2013
sVisPartOf
p1432
VThe Canadian Broadcasting Corporation (CBC)
p1433
sVtype
p1434
(lp1435
VSound
p1436
aVSound/Other sound
p1437
asVid
p1438
V175181612
p1439
sa(dp1440
Vtitle
p1441
VGlenn Gould to be honoured at Grammys.(Broadcast\u000atranscript)
p1442
sVurl
p1443
V/work/175181637
p1444
sVtroveUrl
p1445
Vhttp://trove.nla.gov.au/work/175181637
p1446
sVversionCount
p1447
I1
sVholdingsCount
p1448
I0
sVrelevance
p1449
(dp1450
Vscore
p1451
V1.0
p1452
sVvalue
p1453
Vlikely to be relevant
p1454
ssVissued
p1455
I2013
sVisPartOf
p1456
VThe Canadian Broadcasting Corporation (CBC)
p1457
sVtype
p1458
(lp1459
VSound
p1460
aVSound/Other sound
p1461
asVid
p1462
V175181637
p1463
sa(dp1464
Vtitle
p1465
VMajumder Manor follows comedian's plan to revive\u000ahometown.(Broadcast transcript)
p1466
sVurl
p1467
V/work/175181639
p1468
sVtroveUrl
p1469
Vhttp://trove.nla.gov.au/work/175181639
p1470
sVversionCount
p1471
I1
sVholdingsCount
p1472
I0
sVrelevance
p1473
(dp1474
Vscore
p1475
V1.0
p1476
sVvalue
p1477
Vlikely to be relevant
p1478
ssVissued
p1479
I2013
sVisPartOf
p1480
VThe Canadian Broadcasting Corporation (CBC)
p1481
sVtype
p1482
(lp1483
VSound
p1484
aVSound/Other sound
p1485
asVid
p1486
V175181639
p1487
sa(dp1488
Vtitle
p1489
VAlberta man hopes for death row reprieve by Monday.(Broadcast\u000atranscript)
p1490
sVurl
p1491
V/work/175181616
p1492
sVtroveUrl
p1493
Vhttp://trove.nla.gov.au/work/175181616
p1494
sVversionCount
p1495
I1
sVholdingsCount
p1496
I0
sVrelevance
p1497
(dp1498
Vscore
p1499
V1.0
p1500
sVvalue
p1501
Vlikely to be relevant
p1502
ssVissued
p1503
I2013
sVisPartOf
p1504
VThe Canadian Broadcasting Corporation (CBC)
p1505
sVtype
p1506
(lp1507
VSound
p1508
aVSound/Other sound
p1509
asVid
p1510
V175181616
p1511
sa(dp1512
Vtitle
p1513
VFlu fatalities spreading in nursing homes.(Broadcast\u000atranscript)
p1514
sVurl
p1515
V/work/175181643
p1516
sVtroveUrl
p1517
Vhttp://trove.nla.gov.au/work/175181643
p1518
sVversionCount
p1519
I1
sVholdingsCount
p1520
I0
sVrelevance
p1521
(dp1522
Vscore
p1523
V1.0
p1524
sVvalue
p1525
Vlikely to be relevant
p1526
ssVissued
p1527
I2013
sVisPartOf
p1528
VThe Canadian Broadcasting Corporation (CBC)
p1529
sVtype
p1530
(lp1531
VSound
p1532
aVSound/Other sound
p1533
asVid
p1534
V175181643
p1535
sa(dp1536
Vtitle
p1537
VE. coli cases increase in Nova Scotia.(Broadcast\u000atranscript)
p1538
sVurl
p1539
V/work/175181645
p1540
sVtroveUrl
p1541
Vhttp://trove.nla.gov.au/work/175181645
p1542
sVversionCount
p1543
I1
sVholdingsCount
p1544
I0
sVrelevance
p1545
(dp1546
Vscore
p1547
V1.0
p1548
sVvalue
p1549
Vlikely to be relevant
p1550
ssVissued
p1551
I2013
sVisPartOf
p1552
VThe Canadian Broadcasting Corporation (CBC)
p1553
sVtype
p1554
(lp1555
VSound
p1556
aVSound/Other sound
p1557
asVid
p1558
V175181645
p1559
sa(dp1560
Vtitle
p1561
VPenashue records removed from election spending file.(Broadcast\u000atranscript)
p1562
sVurl
p1563
V/work/175181647
p1564
sVtroveUrl
p1565
Vhttp://trove.nla.gov.au/work/175181647
p1566
sVversionCount
p1567
I1
sVholdingsCount
p1568
I0
sVrelevance
p1569
(dp1570
Vscore
p1571
V1.0
p1572
sVvalue
p1573
Vlikely to be relevant
p1574
ssVissued
p1575
I2013
sVisPartOf
p1576
VThe Canadian Broadcasting Corporation (CBC)
p1577
sVtype
p1578
(lp1579
VSound
p1580
aVSound/Other sound
p1581
asVid
p1582
V175181647
p1583
sa(dp1584
Vtitle
p1585
VNHL, players' union reach tentative deal to end\u000alockout.(Broadcast transcript)
p1586
sVurl
p1587
V/work/175181620
p1588
sVtroveUrl
p1589
Vhttp://trove.nla.gov.au/work/175181620
p1590
sVversionCount
p1591
I1
sVholdingsCount
p1592
I0
sVrelevance
p1593
(dp1594
Vscore
p1595
V1.0
p1596
sVvalue
p1597
Vlikely to be relevant
p1598
ssVissued
p1599
I2013
sVisPartOf
p1600
VThe Canadian Broadcasting Corporation (CBC)
p1601
sVtype
p1602
(lp1603
VSound
p1604
aVSound/Other sound
p1605
asVid
p1606
V175181620
p1607
sa(dp1608
Vtitle
p1609
VShania Twain Centre may be shut down.(Broadcast\u000atranscript)
p1610
sVurl
p1611
V/work/175181649
p1612
sVtroveUrl
p1613
Vhttp://trove.nla.gov.au/work/175181649
p1614
sVversionCount
p1615
I1
sVholdingsCount
p1616
I0
sVrelevance
p1617
(dp1618
Vscore
p1619
V1.0
p1620
sVvalue
p1621
Vlikely to be relevant
p1622
ssVissued
p1623
I2013
sVisPartOf
p1624
VThe Canadian Broadcasting Corporation (CBC)
p1625
sVtype
p1626
(lp1627
VSound
p1628
aVSound/Other sound
p1629
asVid
p1630
V175181649
p1631
sa(dp1632
Vtitle
p1633
VRob Ford removal appeal begins today.(Broadcast\u000atranscript)
p1634
sVurl
p1635
V/work/175181651
p1636
sVtroveUrl
p1637
Vhttp://trove.nla.gov.au/work/175181651
p1638
sVversionCount
p1639
I1
sVholdingsCount
p1640
I0
sVrelevance
p1641
(dp1642
Vscore
p1643
V1.0
p1644
sVvalue
p1645
Vlikely to be relevant
p1646
ssVissued
p1647
I2013
sVisPartOf
p1648
VThe Canadian Broadcasting Corporation (CBC)
p1649
sVtype
p1650
(lp1651
VSound
p1652
aVSound/Other sound
p1653
asVid
p1654
V175181651
p1655
sa(dp1656
Vtitle
p1657
VKings' Anze Kopitar to have tests on injured knee.(Broadcast\u000atranscript)
p1658
sVurl
p1659
V/work/175181622
p1660
sVtroveUrl
p1661
Vhttp://trove.nla.gov.au/work/175181622
p1662
sVversionCount
p1663
I1
sVholdingsCount
p1664
I0
sVrelevance
p1665
(dp1666
Vscore
p1667
V1.0
p1668
sVvalue
p1669
Vlikely to be relevant
p1670
ssVissued
p1671
I2013
sVisPartOf
p1672
VThe Canadian Broadcasting Corporation (CBC)
p1673
sVtype
p1674
(lp1675
VSound
p1676
aVSound/Other sound
p1677
asVid
p1678
V175181622
p1679
sa(dp1680
Vtitle
p1681
VUN calls for end to rebel offensive in Central African\u000aRepublic.(Broadcast transcript)
p1682
sVurl
p1683
V/work/175181653
p1684
sVtroveUrl
p1685
Vhttp://trove.nla.gov.au/work/175181653
p1686
sVversionCount
p1687
I1
sVholdingsCount
p1688
I0
sVrelevance
p1689
(dp1690
Vscore
p1691
V1.0
p1692
sVvalue
p1693
Vlikely to be relevant
p1694
ssVissued
p1695
I2013
sVisPartOf
p1696
VThe Canadian Broadcasting Corporation (CBC)
p1697
sVtype
p1698
(lp1699
VSound
p1700
aVSound/Other sound
p1701
asVid
p1702
V175181653
p1703
sa(dp1704
Vtitle
p1705
VMontreal clinics and emergency rooms overcrowded.(Broadcast\u000atranscript)
p1706
sVurl
p1707
V/work/175181657
p1708
sVtroveUrl
p1709
Vhttp://trove.nla.gov.au/work/175181657
p1710
sVversionCount
p1711
I1
sVholdingsCount
p1712
I0
sVrelevance
p1713
(dp1714
Vscore
p1715
V1.0
p1716
sVvalue
p1717
Vlikely to be relevant
p1718
ssVissued
p1719
I2013
sVisPartOf
p1720
VThe Canadian Broadcasting Corporation (CBC)
p1721
sVtype
p1722
(lp1723
VSound
p1724
aVSound/Other sound
p1725
asVid
p1726
V175181657
p1727
sa(dp1728
Vtitle
p1729
VRare ancient bird had sharp, serrated teeth.(Broadcast\u000atranscript)
p1730
sVurl
p1731
V/work/175181626
p1732
sVtroveUrl
p1733
Vhttp://trove.nla.gov.au/work/175181626
p1734
sVversionCount
p1735
I1
sVholdingsCount
p1736
I0
sVrelevance
p1737
(dp1738
Vscore
p1739
V1.0
p1740
sVvalue
p1741
Vlikely to be relevant
p1742
ssVissued
p1743
I2013
sVisPartOf
p1744
VThe Canadian Broadcasting Corporation (CBC)
p1745
sVtype
p1746
(lp1747
VSound
p1748
aVSound/Other sound
p1749
asVid
p1750
V175181626
p1751
sa(dp1752
Vtitle
p1753
VWanted: new boss for Canada's central bank.(Broadcast\u000atranscript)
p1754
sVurl
p1755
V/work/175181628
p1756
sVtroveUrl
p1757
Vhttp://trove.nla.gov.au/work/175181628
p1758
sVversionCount
p1759
I1
sVholdingsCount
p1760
I0
sVrelevance
p1761
(dp1762
Vscore
p1763
V1.0
p1764
sVvalue
p1765
Vlikely to be relevant
p1766
ssVissued
p1767
I2013
sVisPartOf
p1768
VThe Canadian Broadcasting Corporation (CBC)
p1769
sVtype
p1770
(lp1771
VSound
p1772
aVSound/Other sound
p1773
asVid
p1774
V175181628
p1775
sa(dp1776
Vtitle
p1777
VSheryl Crow-scored Broadway musical Diner delayed.(Broadcast\u000atranscript)
p1778
sVurl
p1779
V/work/175181632
p1780
sVtroveUrl
p1781
Vhttp://trove.nla.gov.au/work/175181632
p1782
sVversionCount
p1783
I1
sVholdingsCount
p1784
I0
sVrelevance
p1785
(dp1786
Vscore
p1787
V1.0
p1788
sVvalue
p1789
Vlikely to be relevant
p1790
ssVissued
p1791
I2013
sVisPartOf
p1792
VThe Canadian Broadcasting Corporation (CBC)
p1793
sVtype
p1794
(lp1795
VSound
p1796
aVSound/Other sound
p1797
asVid
p1798
V175181632
p1799
sa(dp1800
Vtitle
p1801
VGoggles with HD camera, 'smart' scale among items at\u000aCES preview.(Broadcast transcript)
p1802
sVurl
p1803
V/work/175181634
p1804
sVtroveUrl
p1805
Vhttp://trove.nla.gov.au/work/175181634
p1806
sVversionCount
p1807
I1
sVholdingsCount
p1808
I0
sVrelevance
p1809
(dp1810
Vscore
p1811
V1.0
p1812
sVvalue
p1813
Vlikely to be relevant
p1814
ssVissued
p1815
I2013
sVisPartOf
p1816
VThe Canadian Broadcasting Corporation (CBC)
p1817
sVtype
p1818
(lp1819
VSound
p1820
aVSound/Other sound
p1821
asVid
p1822
V175181634
p1823
sa(dp1824
Vtitle
p1825
VMethadone clinic doctor faces hearing over allegations of\u000amisconduct.(Broadcast transcript)
p1826
sVurl
p1827
V/work/175181638
p1828
sVtroveUrl
p1829
Vhttp://trove.nla.gov.au/work/175181638
p1830
sVversionCount
p1831
I1
sVholdingsCount
p1832
I0
sVrelevance
p1833
(dp1834
Vscore
p1835
V1.0
p1836
sVvalue
p1837
Vlikely to be relevant
p1838
ssVissued
p1839
I2013
sVisPartOf
p1840
VThe Canadian Broadcasting Corporation (CBC)
p1841
sVtype
p1842
(lp1843
VSound
p1844
aVSound/Other sound
p1845
asVid
p1846
V175181638
p1847
sa(dp1848
Vtitle
p1849
VStolen Matisse painting recovered in London.(Broadcast\u000atranscript)
p1850
sVurl
p1851
V/work/175181640
p1852
sVtroveUrl
p1853
Vhttp://trove.nla.gov.au/work/175181640
p1854
sVversionCount
p1855
I1
sVholdingsCount
p1856
I0
sVrelevance
p1857
(dp1858
Vscore
p1859
V1.0
p1860
sVvalue
p1861
Vlikely to be relevant
p1862
ssVissued
p1863
I2013
sVisPartOf
p1864
VThe Canadian Broadcasting Corporation (CBC)
p1865
sVtype
p1866
(lp1867
VSound
p1868
aVSound/Other sound
p1869
asVid
p1870
V175181640
p1871
sa(dp1872
Vtitle
p1873
VNHL lockout deal has businesses hoping for boost.(Broadcast\u000atranscript)
p1874
sVurl
p1875
V/work/175181642
p1876
sVtroveUrl
p1877
Vhttp://trove.nla.gov.au/work/175181642
p1878
sVversionCount
p1879
I1
sVholdingsCount
p1880
I0
sVrelevance
p1881
(dp1882
Vscore
p1883
V1.0
p1884
sVvalue
p1885
Vlikely to be relevant
p1886
ssVissued
p1887
I2013
sVisPartOf
p1888
VThe Canadian Broadcasting Corporation (CBC)
p1889
sVtype
p1890
(lp1891
VSound
p1892
aVSound/Other sound
p1893
asVid
p1894
V175181642
p1895
sa(dp1896
Vtitle
p1897
VRare cancer gene forces stomach removals.(Broadcast\u000atranscript)
p1898
sVurl
p1899
V/work/175181644
p1900
sVtroveUrl
p1901
Vhttp://trove.nla.gov.au/work/175181644
p1902
sVversionCount
p1903
I1
sVholdingsCount
p1904
I0
sVrelevance
p1905
(dp1906
Vscore
p1907
V1.0
p1908
sVvalue
p1909
Vlikely to be relevant
p1910
ssVissued
p1911
I2013
sVisPartOf
p1912
VThe Canadian Broadcasting Corporation (CBC)
p1913
sVtype
p1914
(lp1915
VSound
p1916
aVSound/Other sound
p1917
asVid
p1918
V175181644
p1919
sa(dp1920
Vtitle
p1921
VAlberta lakes show chemical effects of oilsands, study\u000afinds.(Broadcast transcript)
p1922
sVurl
p1923
V/work/175181648
p1924
sVtroveUrl
p1925
Vhttp://trove.nla.gov.au/work/175181648
p1926
sVversionCount
p1927
I1
sVholdingsCount
p1928
I0
sVrelevance
p1929
(dp1930
Vscore
p1931
V1.0
p1932
sVvalue
p1933
Vlikely to be relevant
p1934
ssVissued
p1935
I2013
sVisPartOf
p1936
VThe Canadian Broadcasting Corporation (CBC)
p1937
sVtype
p1938
(lp1939
VSound
p1940
aVSound/Other sound
p1941
asVid
p1942
V175181648
p1943
sa(dp1944
Vtitle
p1945
VHollande escalates same-sex controversy in France.(Broadcast\u000atranscript)
p1946
sVurl
p1947
V/work/175181652
p1948
sVtroveUrl
p1949
Vhttp://trove.nla.gov.au/work/175181652
p1950
sVversionCount
p1951
I1
sVholdingsCount
p1952
I0
sVrelevance
p1953
(dp1954
Vscore
p1955
V1.0
p1956
sVvalue
p1957
Vlikely to be relevant
p1958
ssVissued
p1959
I2013
sVisPartOf
p1960
VThe Canadian Broadcasting Corporation (CBC)
p1961
sVtype
p1962
(lp1963
VSound
p1964
aVSound/Other sound
p1965
asVid
p1966
V175181652
p1967
sa(dp1968
Vtitle
p1969
VFord faces uncertain future as appeal nears.(Broadcast\u000atranscript)
p1970
sVurl
p1971
V/work/175181664
p1972
sVtroveUrl
p1973
Vhttp://trove.nla.gov.au/work/175181664
p1974
sVversionCount
p1975
I1
sVholdingsCount
p1976
I0
sVrelevance
p1977
(dp1978
Vscore
p1979
V1.0
p1980
sVvalue
p1981
Vlikely to be relevant
p1982
ssVissued
p1983
I2013
sVisPartOf
p1984
VThe Canadian Broadcasting Corporation (CBC)
p1985
sVtype
p1986
(lp1987
VSound
p1988
aVSound/Other sound
p1989
asVid
p1990
V175181664
p1991
sa(dp1992
Vtitle
p1993
VVideo: Family Healthcast 1-7-13.(Video file)
p1994
sVurl
p1995
V/work/175182695
p1996
sVtroveUrl
p1997
Vhttp://trove.nla.gov.au/work/175182695
p1998
sVversionCount
p1999
I1
sVholdingsCount
p2000
I0
sVrelevance
p2001
(dp2002
Vscore
p2003
V1.0
p2004
sVvalue
p2005
Vlikely to be relevant
p2006
ssVissued
p2007
I2013
sVisPartOf
p2008
VLocal Broadcast Video Content
p2009
sVtype
p2010
(lp2011
VVideo
p2012
asVid
p2013
V175182695
p2014
sa(dp2015
Vtitle
p2016
VVideo: Community rallies around young boy injured in 2011\u000aaccident.(Video file)
p2017
sVurl
p2018
V/work/175182697
p2019
sVtroveUrl
p2020
Vhttp://trove.nla.gov.au/work/175182697
p2021
sVversionCount
p2022
I1
sVholdingsCount
p2023
I0
sVrelevance
p2024
(dp2025
Vscore
p2026
V1.0
p2027
sVvalue
p2028
Vlikely to be relevant
p2029
ssVissued
p2030
I2013
sVisPartOf
p2031
VLocal Broadcast Video Content
p2032
sVtype
p2033
(lp2034
VVideo
p2035
asVid
p2036
V175182697
p2037
sa(dp2038
Vtitle
p2039
VVideo: Bethlehem company to help restore toppled\u000atombstones.(Video file)
p2040
sVurl
p2041
V/work/175182699
p2042
sVtroveUrl
p2043
Vhttp://trove.nla.gov.au/work/175182699
p2044
sVversionCount
p2045
I1
sVholdingsCount
p2046
I0
sVrelevance
p2047
(dp2048
Vscore
p2049
V1.0
p2050
sVvalue
p2051
Vlikely to be relevant
p2052
ssVissued
p2053
I2013
sVisPartOf
p2054
VLocal Broadcast Video Content
p2055
sVtype
p2056
(lp2057
VVideo
p2058
asVid
p2059
V175182699
p2060
sa(dp2061
Vtitle
p2062
VVideo: Suspicious package in school prompts evacuation.(Video\u000afile)
p2063
sVurl
p2064
V/work/175182701
p2065
sVtroveUrl
p2066
Vhttp://trove.nla.gov.au/work/175182701
p2067
sVversionCount
p2068
I1
sVholdingsCount
p2069
I0
sVrelevance
p2070
(dp2071
Vscore
p2072
V1.0
p2073
sVvalue
p2074
Vlikely to be relevant
p2075
ssVissued
p2076
I2013
sVisPartOf
p2077
VLocal Broadcast Video Content
p2078
sVtype
p2079
(lp2080
VVideo
p2081
asVid
p2082
V175182701
p2083
sa(dp2084
Vtitle
p2085
VVideo: Police: Mom, sister encouraged fight outside Reading\u000aCitadel.(Video file)
p2086
sVurl
p2087
V/work/175182703
p2088
sVtroveUrl
p2089
Vhttp://trove.nla.gov.au/work/175182703
p2090
sVversionCount
p2091
I1
sVholdingsCount
p2092
I0
sVrelevance
p2093
(dp2094
Vscore
p2095
V1.0
p2096
sVvalue
p2097
Vlikely to be relevant
p2098
ssVissued
p2099
I2013
sVisPartOf
p2100
VLocal Broadcast Video Content
p2101
sVtype
p2102
(lp2103
VVideo
p2104
asVid
p2105
V175182703
p2106
sa(dp2107
Vtitle
p2108
VVideo: Monroe Co. wants to borrow to pay portion of pension\u000acost.(Video file)
p2109
sVurl
p2110
V/work/175182705
p2111
sVtroveUrl
p2112
Vhttp://trove.nla.gov.au/work/175182705
p2113
sVversionCount
p2114
I1
sVholdingsCount
p2115
I0
sVrelevance
p2116
(dp2117
Vscore
p2118
V1.0
p2119
sVvalue
p2120
Vlikely to be relevant
p2121
ssVissued
p2122
I2013
sVisPartOf
p2123
VLocal Broadcast Video Content
p2124
sVtype
p2125
(lp2126
VVideo
p2127
asVid
p2128
V175182705
p2129
sa(dp2130
Vtitle
p2131
VVideo: Yahoo email accounts hacked.(Video file)
p2132
sVurl
p2133
V/work/175182707
p2134
sVtroveUrl
p2135
Vhttp://trove.nla.gov.au/work/175182707
p2136
sVversionCount
p2137
I1
sVholdingsCount
p2138
I0
sVrelevance
p2139
(dp2140
Vscore
p2141
V1.0
p2142
sVvalue
p2143
Vlikely to be relevant
p2144
ssVissued
p2145
I2013
sVisPartOf
p2146
VLocal Broadcast Video Content
p2147
sVtype
p2148
(lp2149
VVideo
p2150
asVid
p2151
V175182707
p2152
sa(dp2153
Vtitle
p2154
VVideo: First Woman Major.(Video file)
p2155
sVurl
p2156
V/work/175182709
p2157
sVtroveUrl
p2158
Vhttp://trove.nla.gov.au/work/175182709
p2159
sVversionCount
p2160
I1
sVholdingsCount
p2161
I0
sVrelevance
p2162
(dp2163
Vscore
p2164
V1.0
p2165
sVvalue
p2166
Vlikely to be relevant
p2167
ssVissued
p2168
I2013
sVisPartOf
p2169
VLocal Broadcast Video Content
p2170
sVtype
p2171
(lp2172
VVideo
p2173
asVid
p2174
V175182709
p2175
sa(dp2176
Vtitle
p2177
VVideo: NHL Lock-Out Over.(Video file)
p2178
sVurl
p2179
V/work/175182711
p2180
sVtroveUrl
p2181
Vhttp://trove.nla.gov.au/work/175182711
p2182
sVversionCount
p2183
I1
sVholdingsCount
p2184
I0
sVrelevance
p2185
(dp2186
Vscore
p2187
V1.0
p2188
sVvalue
p2189
Vlikely to be relevant
p2190
ssVissued
p2191
I2013
sVisPartOf
p2192
VLocal Broadcast Video Content
p2193
sVtype
p2194
(lp2195
VVideo
p2196
asVid
p2197
V175182711
p2198
sa(dp2199
Vtitle
p2200
VVideo: Around the Tiers.(Video file)
p2201
sVurl
p2202
V/work/175182713
p2203
sVtroveUrl
p2204
Vhttp://trove.nla.gov.au/work/175182713
p2205
sVversionCount
p2206
I1
sVholdingsCount
p2207
I0
sVrelevance
p2208
(dp2209
Vscore
p2210
V1.0
p2211
sVvalue
p2212
Vlikely to be relevant
p2213
ssVissued
p2214
I2013
sVisPartOf
p2215
VLocal Broadcast Video Content
p2216
sVtype
p2217
(lp2218
VVideo
p2219
asVid
p2220
V175182713
p2221
sa(dp2222
Vtitle
p2223
VVideo: Phillipsburg woman wins Fiat in McDonald's Monopoly\u000acontest.(Video file)
p2224
sVurl
p2225
V/work/175182715
p2226
sVtroveUrl
p2227
Vhttp://trove.nla.gov.au/work/175182715
p2228
sVversionCount
p2229
I1
sVholdingsCount
p2230
I0
sVrelevance
p2231
(dp2232
Vscore
p2233
V1.0
p2234
sVvalue
p2235
Vlikely to be relevant
p2236
ssVissued
p2237
I2013
sVisPartOf
p2238
VLocal Broadcast Video Content
p2239
sVtype
p2240
(lp2241
VVideo
p2242
asVid
p2243
V175182715
p2244
sa(dp2245
Vtitle
p2246
VVideo: History's Headlines: Bethlehem book shop world's\u000aoldest.(Video file)
p2247
sVurl
p2248
V/work/175182717
p2249
sVtroveUrl
p2250
Vhttp://trove.nla.gov.au/work/175182717
p2251
sVversionCount
p2252
I1
sVholdingsCount
p2253
I0
sVrelevance
p2254
(dp2255
Vscore
p2256
V1.0
p2257
sVvalue
p2258
Vlikely to be relevant
p2259
ssVissued
p2260
I2013
sVisPartOf
p2261
VLocal Broadcast Video Content
p2262
sVtype
p2263
(lp2264
VVideo
p2265
asVid
p2266
V175182717
p2267
sa(dp2268
Vtitle
p2269
VVideo: Anti-Fracking Rally 01-07-13.(Video file)
p2270
sVurl
p2271
V/work/175182719
p2272
sVtroveUrl
p2273
Vhttp://trove.nla.gov.au/work/175182719
p2274
sVversionCount
p2275
I1
sVholdingsCount
p2276
I0
sVrelevance
p2277
(dp2278
Vscore
p2279
V1.0
p2280
sVvalue
p2281
Vlikely to be relevant
p2282
ssVissued
p2283
I2013
sVisPartOf
p2284
VLocal Broadcast Video Content
p2285
sVtype
p2286
(lp2287
VVideo
p2288
asVid
p2289
V175182719
p2290
sa(dp2291
Vtitle
p2292
VVideo: Fracking Health Study Dispute 01-07-13.(Video\u000afile)
p2293
sVurl
p2294
V/work/175182721
p2295
sVtroveUrl
p2296
Vhttp://trove.nla.gov.au/work/175182721
p2297
sVversionCount
p2298
I1
sVholdingsCount
p2299
I0
sVrelevance
p2300
(dp2301
Vscore
p2302
V1.0
p2303
sVvalue
p2304
Vlikely to be relevant
p2305
ssVissued
p2306
I2013
sVisPartOf
p2307
VLocal Broadcast Video Content
p2308
sVtype
p2309
(lp2310
VVideo
p2311
asVid
p2312
V175182721
p2313
sa(dp2314
Vtitle
p2315
VVideo: Jim Matthews Honored 01-07-13.(Video file)
p2316
sVurl
p2317
V/work/175182723
p2318
sVtroveUrl
p2319
Vhttp://trove.nla.gov.au/work/175182723
p2320
sVversionCount
p2321
I1
sVholdingsCount
p2322
I0
sVrelevance
p2323
(dp2324
Vscore
p2325
V1.0
p2326
sVvalue
p2327
Vlikely to be relevant
p2328
ssVissued
p2329
I2013
sVisPartOf
p2330
VLocal Broadcast Video Content
p2331
sVtype
p2332
(lp2333
VVideo
p2334
asVid
p2335
V175182723
p2336
sa(dp2337
Vtitle
p2338
VVideo: NYS debt now second highest in the nation.(Video\u000afile)
p2339
sVurl
p2340
V/work/175182725
p2341
sVtroveUrl
p2342
Vhttp://trove.nla.gov.au/work/175182725
p2343
sVversionCount
p2344
I1
sVholdingsCount
p2345
I0
sVrelevance
p2346
(dp2347
Vscore
p2348
V1.0
p2349
sVvalue
p2350
Vlikely to be relevant
p2351
ssVissued
p2352
I2013
sVisPartOf
p2353
VLocal Broadcast Video Content
p2354
sVtype
p2355
(lp2356
VVideo
p2357
asVid
p2358
V175182725
p2359
sa(dp2360
Vtitle
p2361
VVideo: New Schenectady Police Chief.(Video file)
p2362
sVurl
p2363
V/work/175182727
p2364
sVtroveUrl
p2365
Vhttp://trove.nla.gov.au/work/175182727
p2366
sVversionCount
p2367
I1
sVholdingsCount
p2368
I0
sVrelevance
p2369
(dp2370
Vscore
p2371
V1.0
p2372
sVvalue
p2373
Vlikely to be relevant
p2374
ssVissued
p2375
I2013
sVisPartOf
p2376
VLocal Broadcast Video Content
p2377
sVtype
p2378
(lp2379
VVideo
p2380
asVid
p2381
V175182727
p2382
sa(dp2383
Vtitle
p2384
VVideo: NY officials push for tougher gun control 1-7-13.(Video\u000afile)
p2385
sVurl
p2386
V/work/175182729
p2387
sVtroveUrl
p2388
Vhttp://trove.nla.gov.au/work/175182729
p2389
sVversionCount
p2390
I1
sVholdingsCount
p2391
I0
sVrelevance
p2392
(dp2393
Vscore
p2394
V1.0
p2395
sVvalue
p2396
Vlikely to be relevant
p2397
ssVissued
p2398
I2013
sVisPartOf
p2399
VLocal Broadcast Video Content
p2400
sVtype
p2401
(lp2402
VVideo
p2403
asVid
p2404
V175182729
p2405
sa(dp2406
Vtitle
p2407
VVideo: Commission Report.(Video file)
p2408
sVurl
p2409
V/work/175182731
p2410
sVtroveUrl
p2411
Vhttp://trove.nla.gov.au/work/175182731
p2412
sVversionCount
p2413
I1
sVholdingsCount
p2414
I0
sVrelevance
p2415
(dp2416
Vscore
p2417
V1.0
p2418
sVvalue
p2419
Vlikely to be relevant
p2420
ssVissued
p2421
I2013
sVisPartOf
p2422
VLocal Broadcast Video Content
p2423
sVtype
p2424
(lp2425
VVideo
p2426
asVid
p2427
V175182731
p2428
sa(dp2429
Vtitle
p2430
VVideo: Firefighters narrowly escape floor collapse.(Video\u000afile)
p2431
sVurl
p2432
V/work/175182733
p2433
sVtroveUrl
p2434
Vhttp://trove.nla.gov.au/work/175182733
p2435
sVversionCount
p2436
I1
sVholdingsCount
p2437
I0
sVrelevance
p2438
(dp2439
Vscore
p2440
V1.0
p2441
sVvalue
p2442
Vlikely to be relevant
p2443
ssVissued
p2444
I2013
sVisPartOf
p2445
VLocal Broadcast Video Content
p2446
sVtype
p2447
(lp2448
VVideo
p2449
asVid
p2450
V175182733
p2451
sasVnext
p2452
V/result?q=+&sortby=relevance&encoding=json&l-availability=y&reclevel=brief&n=100&zone=music&s=567738
p2453
sVs
p2454
V567638
p2455
sVtotal
p2456
V1922776
p2457
sVn
p2458
V100
p2459
ssVname
p2460
Vmusic
p2461
sass.