(dp0
Vresponse
p1
(dp2
Vquery
p3
V
p4
sVzone
p5
(lp6
(dp7
Vrecords
p8
(dp9
Vwork
p10
(lp11
(dp12
Vtitle
p13
VImmigration - Minister for Immigration - CHRIS HURFORD on Coober Pedy visit CATEGORY: Photograph PRINCIPAL CREDIT: Department of Immigration and Multicultural and Indigenous Affairs (DIMIA) FORMAT: colour transparency TYPE: cellulose acetate STATUS: preservation material
p14
sVurl
p15
V/work/161830135
p16
sVtroveUrl
p17
Vhttp://trove.nla.gov.au/work/161830135
p18
sVversionCount
p19
I1
sVholdingsCount
p20
I1
sVissued
p21
I1987
sVrelevance
p22
(dp23
Vscore
p24
V1.0
p25
sVvalue
p26
Vlikely to be relevant
p27
ssVidentifier
p28
(lp29
(dp30
Vlinktype
p31
Vfulltext
p32
sVtype
p33
Vurl
p34
sVvalue
p35
Vhttp://recordsearch.naa.gov.au/scripts/SearchOld.asp?O=PSI2&Number=8112311
p36
sa(dp37
Vlinktype
p38
Vthumbnail
p39
sVtype
p40
Vurl
p41
sVvalue
p42
Vhttp://recordsearch.naa.gov.au/scripts/SearchOld.asp?O=IMS2&S=1&Number=8112311
p43
sasVtype
p44
(lp45
VPhotograph
p46
asVid
p47
V161830135
p48
sa(dp49
Vtitle
p50
VTITLE: [Power - Distribution - Two workers work on a large control panel electrical type equipment] CATEGORY: Photograph PRINCIPAL CREDIT: Australian News and Information Bureau FORMAT: b&w negative TYPE: cellulose acetate STATUS: preservation material
p51
sVurl
p52
V/work/161334266
p53
sVtroveUrl
p54
Vhttp://trove.nla.gov.au/work/161334266
p55
sVversionCount
p56
I1
sVholdingsCount
p57
I1
sVissued
p58
I1964
sVrelevance
p59
(dp60
Vscore
p61
V1.0
p62
sVvalue
p63
Vlikely to be relevant
p64
ssVidentifier
p65
(lp66
(dp67
Vlinktype
p68
Vfulltext
p69
sVtype
p70
Vurl
p71
sVvalue
p72
Vhttp://recordsearch.naa.gov.au/scripts/SearchOld.asp?O=PSI2&Number=30836620
p73
sa(dp74
Vlinktype
p75
Vthumbnail
p76
sVtype
p77
Vurl
p78
sVvalue
p79
Vhttp://recordsearch.naa.gov.au/scripts/SearchOld.asp?O=IMS2&S=1&Number=30836620
p80
sasVtype
p81
(lp82
VPhotograph
p83
asVid
p84
V161334266
p85
sa(dp86
Vtitle
p87
VTITLE: Personalities - Mr Bate MP CATEGORY: Photograph PRINCIPAL CREDIT: Australian News and Information Bureau FORMAT: b&w negative TYPE: cellulose acetate STATUS: preservation material
p88
sVurl
p89
V/work/161334758
p90
sVtroveUrl
p91
Vhttp://trove.nla.gov.au/work/161334758
p92
sVversionCount
p93
I1
sVholdingsCount
p94
I1
sVissued
p95
I1919
sVrelevance
p96
(dp97
Vscore
p98
V1.0
p99
sVvalue
p100
Vlikely to be relevant
p101
ssVidentifier
p102
(lp103
(dp104
Vlinktype
p105
Vfulltext
p106
sVtype
p107
Vurl
p108
sVvalue
p109
Vhttp://recordsearch.naa.gov.au/scripts/SearchOld.asp?O=PSI2&Number=30836637
p110
sa(dp111
Vlinktype
p112
Vthumbnail
p113
sVtype
p114
Vurl
p115
sVvalue
p116
Vhttp://recordsearch.naa.gov.au/scripts/SearchOld.asp?O=IMS2&S=1&Number=30836637
p117
sasVtype
p118
(lp119
VPhotograph
p120
asVid
p121
V161334758
p122
sa(dp123
Vtitle
p124
VTITLE: Film Division - Lyndfield CATEGORY: Photograph PRINCIPAL CREDIT: Australian News and Information Bureau FORMAT: b&w negative TYPE: cellulose acetate STATUS: preservation material
p125
sVurl
p126
V/work/161335196
p127
sVtroveUrl
p128
Vhttp://trove.nla.gov.au/work/161335196
p129
sVversionCount
p130
I1
sVholdingsCount
p131
I1
sVissued
p132
I1964
sVrelevance
p133
(dp134
Vscore
p135
V1.0
p136
sVvalue
p137
Vlikely to be relevant
p138
ssVidentifier
p139
(lp140
(dp141
Vlinktype
p142
Vfulltext
p143
sVtype
p144
Vurl
p145
sVvalue
p146
Vhttp://recordsearch.naa.gov.au/scripts/SearchOld.asp?O=PSI2&Number=30836622
p147
sa(dp148
Vlinktype
p149
Vthumbnail
p150
sVtype
p151
Vurl
p152
sVvalue
p153
Vhttp://recordsearch.naa.gov.au/scripts/SearchOld.asp?O=IMS2&S=1&Number=30836622
p154
sasVtype
p155
(lp156
VPhotograph
p157
asVid
p158
V161335196
p159
sa(dp160
Vtitle
p161
VTITLE: Essendon aerodrome - faulty filling in compaction joints CATEGORY: Photograph FORMAT: b&w print STATUS: Preservation material
p162
sVurl
p163
V/work/161344640
p164
sVtroveUrl
p165
Vhttp://trove.nla.gov.au/work/161344640
p166
sVversionCount
p167
I1
sVholdingsCount
p168
I1
sVissued
p169
I1957
sVrelevance
p170
(dp171
Vscore
p172
V1.0
p173
sVvalue
p174
Vlikely to be relevant
p175
ssVidentifier
p176
(lp177
(dp178
Vlinktype
p179
Vfulltext
p180
sVtype
p181
Vurl
p182
sVvalue
p183
Vhttp://recordsearch.naa.gov.au/scripts/SearchOld.asp?O=PSI2&Number=9863772
p184
sa(dp185
Vlinktype
p186
Vthumbnail
p187
sVtype
p188
Vurl
p189
sVvalue
p190
Vhttp://recordsearch.naa.gov.au/scripts/SearchOld.asp?O=IMS2&S=1&Number=9863772
p191
sasVtype
p192
(lp193
VPhotograph
p194
asVid
p195
V161344640
p196
sa(dp197
Vtitle
p198
VTITLE: Carved statues at gallery CATEGORY: Photograph FORMAT: b&w print STATUS: Preservation material
p199
sVurl
p200
V/work/161344650
p201
sVtroveUrl
p202
Vhttp://trove.nla.gov.au/work/161344650
p203
sVversionCount
p204
I1
sVholdingsCount
p205
I1
sVissued
p206
I1957
sVrelevance
p207
(dp208
Vscore
p209
V1.0
p210
sVvalue
p211
Vlikely to be relevant
p212
ssVidentifier
p213
(lp214
(dp215
Vlinktype
p216
Vfulltext
p217
sVtype
p218
Vurl
p219
sVvalue
p220
Vhttp://recordsearch.naa.gov.au/scripts/SearchOld.asp?O=PSI2&Number=9863823
p221
sa(dp222
Vlinktype
p223
Vthumbnail
p224
sVtype
p225
Vurl
p226
sVvalue
p227
Vhttp://recordsearch.naa.gov.au/scripts/SearchOld.asp?O=IMS2&S=1&Number=9863823
p228
sasVtype
p229
(lp230
VPhotograph
p231
asVid
p232
V161344650
p233
sa(dp234
Vtitle
p235
VTITLE: Praline drilling-building rig CATEGORY: Photograph FORMAT: b&w negative STATUS: Preservation material
p236
sVurl
p237
V/work/161344718
p238
sVtroveUrl
p239
Vhttp://trove.nla.gov.au/work/161344718
p240
sVversionCount
p241
I1
sVholdingsCount
p242
I1
sVissued
p243
I1957
sVrelevance
p244
(dp245
Vscore
p246
V1.0
p247
sVvalue
p248
Vlikely to be relevant
p249
ssVidentifier
p250
(lp251
(dp252
Vlinktype
p253
Vfulltext
p254
sVtype
p255
Vurl
p256
sVvalue
p257
Vhttp://recordsearch.naa.gov.au/scripts/SearchOld.asp?O=PSI2&Number=9863804
p258
sa(dp259
Vlinktype
p260
Vthumbnail
p261
sVtype
p262
Vurl
p263
sVvalue
p264
Vhttp://recordsearch.naa.gov.au/scripts/SearchOld.asp?O=IMS2&S=1&Number=9863804
p265
sasVtype
p266
(lp267
VPhotograph
p268
asVid
p269
V161344718
p270
sa(dp271
Vtitle
p272
VTITLE: Commonwealth bank - Prahran CATEGORY: Photograph FORMAT: b&w print STATUS: Preservation material
p273
sVurl
p274
V/work/161344730
p275
sVtroveUrl
p276
Vhttp://trove.nla.gov.au/work/161344730
p277
sVversionCount
p278
I1
sVholdingsCount
p279
I1
sVissued
p280
I1961
sVrelevance
p281
(dp282
Vscore
p283
V1.0
p284
sVvalue
p285
Vlikely to be relevant
p286
ssVidentifier
p287
(lp288
(dp289
Vlinktype
p290
Vfulltext
p291
sVtype
p292
Vurl
p293
sVvalue
p294
Vhttp://recordsearch.naa.gov.au/scripts/SearchOld.asp?O=PSI2&Number=9863687
p295
sa(dp296
Vlinktype
p297
Vthumbnail
p298
sVtype
p299
Vurl
p300
sVvalue
p301
Vhttp://recordsearch.naa.gov.au/scripts/SearchOld.asp?O=IMS2&S=1&Number=9863687
p302
sasVtype
p303
(lp304
VPhotograph
p305
asVid
p306
V161344730
p307
sa(dp308
Vtitle
p309
VTITLE: Bandiana ARA [camp complete] CATEGORY: Photograph FORMAT: b&w print STATUS: Preservation material
p310
sVurl
p311
V/work/161344988
p312
sVtroveUrl
p313
Vhttp://trove.nla.gov.au/work/161344988
p314
sVversionCount
p315
I1
sVholdingsCount
p316
I1
sVissued
p317
I1962
sVrelevance
p318
(dp319
Vscore
p320
V1.0
p321
sVvalue
p322
Vlikely to be relevant
p323
ssVidentifier
p324
(lp325
(dp326
Vlinktype
p327
Vfulltext
p328
sVtype
p329
Vurl
p330
sVvalue
p331
Vhttp://recordsearch.naa.gov.au/scripts/SearchOld.asp?O=PSI2&Number=9863837
p332
sa(dp333
Vlinktype
p334
Vthumbnail
p335
sVtype
p336
Vurl
p337
sVvalue
p338
Vhttp://recordsearch.naa.gov.au/scripts/SearchOld.asp?O=IMS2&S=1&Number=9863837
p339
sasVtype
p340
(lp341
VPhotograph
p342
asVid
p343
V161344988
p344
sa(dp345
Vtitle
p346
VTITLE: Austral fire detectors CATEGORY: Photograph FORMAT: b&w print STATUS: Preservation material
p347
sVurl
p348
V/work/161345022
p349
sVtroveUrl
p350
Vhttp://trove.nla.gov.au/work/161345022
p351
sVversionCount
p352
I1
sVholdingsCount
p353
I1
sVissued
p354
I1957
sVrelevance
p355
(dp356
Vscore
p357
V1.0
p358
sVvalue
p359
Vlikely to be relevant
p360
ssVidentifier
p361
(lp362
(dp363
Vlinktype
p364
Vfulltext
p365
sVtype
p366
Vurl
p367
sVvalue
p368
Vhttp://recordsearch.naa.gov.au/scripts/SearchOld.asp?O=PSI2&Number=9863806
p369
sa(dp370
Vlinktype
p371
Vthumbnail
p372
sVtype
p373
Vurl
p374
sVvalue
p375
Vhttp://recordsearch.naa.gov.au/scripts/SearchOld.asp?O=IMS2&S=1&Number=9863806
p376
sasVtype
p377
(lp378
VPhotograph
p379
asVid
p380
V161345022
p381
sa(dp382
Vtitle
p383
VTITLE: [Photograph showing interior of a workshop] CATEGORY: Photograph FORMAT: b&w print STATUS: Preservation material
p384
sVurl
p385
V/work/161345086
p386
sVtroveUrl
p387
Vhttp://trove.nla.gov.au/work/161345086
p388
sVversionCount
p389
I1
sVholdingsCount
p390
I1
sVissued
p391
I1957
sVrelevance
p392
(dp393
Vscore
p394
V1.0
p395
sVvalue
p396
Vlikely to be relevant
p397
ssVidentifier
p398
(lp399
(dp400
Vlinktype
p401
Vfulltext
p402
sVtype
p403
Vurl
p404
sVvalue
p405
Vhttp://recordsearch.naa.gov.au/scripts/SearchOld.asp?O=PSI2&Number=9863736
p406
sa(dp407
Vlinktype
p408
Vthumbnail
p409
sVtype
p410
Vurl
p411
sVvalue
p412
Vhttp://recordsearch.naa.gov.au/scripts/SearchOld.asp?O=IMS2&S=1&Number=9863736
p413
sasVtype
p414
(lp415
VPhotograph
p416
asVid
p417
V161345086
p418
sa(dp419
Vtitle
p420
VTITLE: Northern Territory - Historical picture CATEGORY: photograph FORMAT: b&w negative TYPE: cellulose acetate STATUS: preservation material
p421
sVurl
p422
V/work/161351886
p423
sVtroveUrl
p424
Vhttp://trove.nla.gov.au/work/161351886
p425
sVversionCount
p426
I1
sVholdingsCount
p427
I1
sVissued
p428
I1967
sVrelevance
p429
(dp430
Vscore
p431
V1.0
p432
sVvalue
p433
Vlikely to be relevant
p434
ssVidentifier
p435
(lp436
(dp437
Vlinktype
p438
Vfulltext
p439
sVtype
p440
Vurl
p441
sVvalue
p442
Vhttp://recordsearch.naa.gov.au/scripts/SearchOld.asp?O=PSI2&Number=30836311
p443
sa(dp444
Vlinktype
p445
Vthumbnail
p446
sVtype
p447
Vurl
p448
sVvalue
p449
Vhttp://recordsearch.naa.gov.au/scripts/SearchOld.asp?O=IMS2&S=1&Number=30836311
p450
sasVtype
p451
(lp452
VPhotograph
p453
asVid
p454
V161351886
p455
sa(dp456
Vtitle
p457
VImmigration - Minister for Immigration - CHRIS HURFORD, portrait
p458
sVurl
p459
V/work/161375342
p460
sVtroveUrl
p461
Vhttp://trove.nla.gov.au/work/161375342
p462
sVversionCount
p463
I1
sVholdingsCount
p464
I1
sVissued
p465
I1984
sVrelevance
p466
(dp467
Vscore
p468
V1.0
p469
sVvalue
p470
Vlikely to be relevant
p471
ssVidentifier
p472
(lp473
(dp474
Vlinktype
p475
Vfulltext
p476
sVtype
p477
Vurl
p478
sVvalue
p479
Vhttp://recordsearch.naa.gov.au/scripts/SearchOld.asp?O=PSI2&Number=8112198
p480
sa(dp481
Vlinktype
p482
Vthumbnail
p483
sVtype
p484
Vurl
p485
sVvalue
p486
Vhttp://recordsearch.naa.gov.au/scripts/SearchOld.asp?O=IMS2&S=1&Number=8112198
p487
sasVtype
p488
(lp489
VPhotograph
p490
asVid
p491
V161375342
p492
sa(dp493
Vtitle
p494
VEnd of year party at the Australian National University. Left to right: Miss Moi Chin Lu, of Jahor, Miss Lydia Hew, of Jahore, Betty Lo, of Malaysia, Miss Monica Khew, of Penang and Miss Juliana Kwan, of Jahore [photographic image]. 1 photographic negative: b&w, acetate
p495
sVurl
p496
V/work/161405686
p497
sVtroveUrl
p498
Vhttp://trove.nla.gov.au/work/161405686
p499
sVversionCount
p500
I1
sVholdingsCount
p501
I1
sVissued
p502
I1970
sVrelevance
p503
(dp504
Vscore
p505
V1.0
p506
sVvalue
p507
Vlikely to be relevant
p508
ssVidentifier
p509
(lp510
(dp511
Vlinktype
p512
Vfulltext
p513
sVtype
p514
Vurl
p515
sVvalue
p516
Vhttp://recordsearch.naa.gov.au/scripts/SearchOld.asp?O=PSI2&Number=8926677
p517
sa(dp518
Vlinktype
p519
Vthumbnail
p520
sVtype
p521
Vurl
p522
sVvalue
p523
Vhttp://recordsearch.naa.gov.au/scripts/SearchOld.asp?O=IMS2&S=1&Number=8926677
p524
sasVtype
p525
(lp526
VPhotograph
p527
asVid
p528
V161405686
p529
sa(dp530
Vtitle
p531
VTITLE: Transport - Rail - A stock train leaves Alice Springs, Northern Territory with a consignment of cattle for the meatworks in South Australia - The loading yards at the end of the long stock routes are places four miles outside Alice Springs - About 40000 head of cattle leave this railhead each year CATEGORY: photograph PRINCIPAL CREDIT: photographer Neil Murray FORMAT: b & w negative TYPE: cellulose acetate STATUS: preservation material
p532
sVurl
p533
V/work/161410452
p534
sVtroveUrl
p535
Vhttp://trove.nla.gov.au/work/161410452
p536
sVversionCount
p537
I1
sVholdingsCount
p538
I1
sVissued
p539
I1954
sVrelevance
p540
(dp541
Vscore
p542
V1.0
p543
sVvalue
p544
Vlikely to be relevant
p545
ssVidentifier
p546
(lp547
(dp548
Vlinktype
p549
Vfulltext
p550
sVtype
p551
Vurl
p552
sVvalue
p553
Vhttp://recordsearch.naa.gov.au/scripts/SearchOld.asp?O=PSI2&Number=11961736
p554
sa(dp555
Vlinktype
p556
Vthumbnail
p557
sVtype
p558
Vurl
p559
sVvalue
p560
Vhttp://recordsearch.naa.gov.au/scripts/SearchOld.asp?O=IMS2&S=1&Number=11961736
p561
sasVtype
p562
(lp563
VPhotograph
p564
asVid
p565
V161410452
p566
sa(dp567
Vtitle
p568
VAsian students played a big part in Inter University Soccer Game - Sydney University buildings form a pleasant background to this Adelaide attack on the Queensland goal. Adelaide beat Queensland 4-0 [Photographic image]. Australian Official Photograph. 1 photographic negative: b&w, acetate
p569
sVurl
p570
V/work/161442728
p571
sVtroveUrl
p572
Vhttp://trove.nla.gov.au/work/161442728
p573
sVversionCount
p574
I1
sVholdingsCount
p575
I1
sVissued
p576
I1955
sVrelevance
p577
(dp578
Vscore
p579
V1.0
p580
sVvalue
p581
Vlikely to be relevant
p582
ssVidentifier
p583
(lp584
(dp585
Vlinktype
p586
Vfulltext
p587
sVtype
p588
Vurl
p589
sVvalue
p590
Vhttp://recordsearch.naa.gov.au/scripts/SearchOld.asp?O=PSI2&Number=8928198
p591
sa(dp592
Vlinktype
p593
Vthumbnail
p594
sVtype
p595
Vurl
p596
sVvalue
p597
Vhttp://recordsearch.naa.gov.au/scripts/SearchOld.asp?O=IMS2&S=1&Number=8928198
p598
sasVtype
p599
(lp600
VPhotograph
p601
asVid
p602
V161442728
p603
sa(dp604
Vtitle
p605
VTITLE: Immigration - Overseas dignitaries - Mrs A J Moody, Deputy Chief of Mission in charge of Operations in Athens of the Intergovernmental Committee for European migration, visited Australia on a charter flight with a party of Greek single women who had trained under her supervision. During her Australian tour Mrs Moody visited Canberra, Melbourne, the migrant reception centre at Bonegilla, Berri, SA, where a group of Greek single women were working in a fruit canning and Sydney. Mrs Moody had an intimate chat with the Greek girls at the YWCA party, talking to them in small groups CATEGORY: photograph FORMAT: b&w negative TYPE: cellulose acetate STATUS: preservation material
p606
sVurl
p607
V/work/161451032
p608
sVtroveUrl
p609
Vhttp://trove.nla.gov.au/work/161451032
p610
sVversionCount
p611
I1
sVholdingsCount
p612
I1
sVissued
p613
I1964
sVrelevance
p614
(dp615
Vscore
p616
V1.0
p617
sVvalue
p618
Vlikely to be relevant
p619
ssVidentifier
p620
(lp621
(dp622
Vlinktype
p623
Vfulltext
p624
sVtype
p625
Vurl
p626
sVvalue
p627
Vhttp://recordsearch.naa.gov.au/scripts/SearchOld.asp?O=PSI2&Number=8112465
p628
sa(dp629
Vlinktype
p630
Vthumbnail
p631
sVtype
p632
Vurl
p633
sVvalue
p634
Vhttp://recordsearch.naa.gov.au/scripts/SearchOld.asp?O=IMS2&S=1&Number=8112465
p635
sasVtype
p636
(lp637
VPhotograph
p638
asVid
p639
V161451032
p640
sa(dp641
Vtitle
p642
VBurmese official, U Soe is in Australia to study mineral production - the Aberfoyle Tin Mining Company in north east Tasmania. The mine is one of the few in Australia yielding tin and wolfram [Photographic image]. Australian Official Photograph. 1 photographic negative: b&w, acetate
p643
sVurl
p644
V/work/161461418
p645
sVtroveUrl
p646
Vhttp://trove.nla.gov.au/work/161461418
p647
sVversionCount
p648
I1
sVholdingsCount
p649
I1
sVissued
p650
I1955
sVrelevance
p651
(dp652
Vscore
p653
V1.0
p654
sVvalue
p655
Vlikely to be relevant
p656
ssVidentifier
p657
(lp658
(dp659
Vlinktype
p660
Vfulltext
p661
sVtype
p662
Vurl
p663
sVvalue
p664
Vhttp://recordsearch.naa.gov.au/scripts/SearchOld.asp?O=PSI2&Number=8928214
p665
sa(dp666
Vlinktype
p667
Vthumbnail
p668
sVtype
p669
Vurl
p670
sVvalue
p671
Vhttp://recordsearch.naa.gov.au/scripts/SearchOld.asp?O=IMS2&S=1&Number=8928214
p672
sasVtype
p673
(lp674
VPhotograph
p675
asVid
p676
V161461418
p677
sa(dp678
Vtitle
p679
VTITLE: Capacity plans of P J Adams, a tanker built for Ampol Petroleum Ltd, at Whyalla, SA CATEGORY: photograph FORMAT: b&w negative TYPE: cellulose acetate STATUS: preservation material
p680
sVurl
p681
V/work/161463086
p682
sVtroveUrl
p683
Vhttp://trove.nla.gov.au/work/161463086
p684
sVversionCount
p685
I1
sVholdingsCount
p686
I1
sVissued
p687
I1962
sVrelevance
p688
(dp689
Vscore
p690
V1.0
p691
sVvalue
p692
Vlikely to be relevant
p693
ssVidentifier
p694
(lp695
(dp696
Vlinktype
p697
Vfulltext
p698
sVtype
p699
Vurl
p700
sVvalue
p701
Vhttp://recordsearch.naa.gov.au/scripts/SearchOld.asp?O=PSI2&Number=30672423
p702
sa(dp703
Vlinktype
p704
Vthumbnail
p705
sVtype
p706
Vurl
p707
sVvalue
p708
Vhttp://recordsearch.naa.gov.au/scripts/SearchOld.asp?O=IMS2&S=1&Number=30672423
p709
sasVtype
p710
(lp711
VPhotograph
p712
asVid
p713
V161463086
p714
sa(dp715
Vtitle
p716
VTITLE: Railway line to Queenstown, in western Tasmania, operated by the company which controls Mount Lyell copper mine CATEGORY: photograph PRINCIPAL CREDIT: photographer Neil Murray FORMAT: b&w negative TYPE: cellulose acetate STATUS: preservation material
p717
sVurl
p718
V/work/161494482
p719
sVtroveUrl
p720
Vhttp://trove.nla.gov.au/work/161494482
p721
sVversionCount
p722
I1
sVholdingsCount
p723
I1
sVissued
p724
I1960
sVrelevance
p725
(dp726
Vscore
p727
V1.0
p728
sVvalue
p729
Vlikely to be relevant
p730
ssVidentifier
p731
(lp732
(dp733
Vlinktype
p734
Vfulltext
p735
sVtype
p736
Vurl
p737
sVvalue
p738
Vhttp://recordsearch.naa.gov.au/scripts/SearchOld.asp?O=PSI2&Number=11961769
p739
sa(dp740
Vlinktype
p741
Vthumbnail
p742
sVtype
p743
Vurl
p744
sVvalue
p745
Vhttp://recordsearch.naa.gov.au/scripts/SearchOld.asp?O=IMS2&S=1&Number=11961769
p746
sasVtype
p747
(lp748
VPhotograph
p749
asVid
p750
V161494482
p751
sa(dp752
Vtitle
p753
VBurmese official, U Soe is in Australia to study mineral production - the Aberfoyle Tin Mining Company in north east Tasmania. The mine is one of the few in Australia yielding tin and wolfram [Photographic image]. Australian Official Photograph. 1 photographic negative: b&w, acetate
p754
sVurl
p755
V/work/161512316
p756
sVtroveUrl
p757
Vhttp://trove.nla.gov.au/work/161512316
p758
sVversionCount
p759
I1
sVholdingsCount
p760
I1
sVissued
p761
I1955
sVrelevance
p762
(dp763
Vscore
p764
V1.0
p765
sVvalue
p766
Vlikely to be relevant
p767
ssVidentifier
p768
(lp769
(dp770
Vlinktype
p771
Vfulltext
p772
sVtype
p773
Vurl
p774
sVvalue
p775
Vhttp://recordsearch.naa.gov.au/scripts/SearchOld.asp?O=PSI2&Number=8928215
p776
sa(dp777
Vlinktype
p778
Vthumbnail
p779
sVtype
p780
Vurl
p781
sVvalue
p782
Vhttp://recordsearch.naa.gov.au/scripts/SearchOld.asp?O=IMS2&S=1&Number=8928215
p783
sasVtype
p784
(lp785
VPhotograph
p786
asVid
p787
V161512316
p788
sa(dp789
Vtitle
p790
VPost-examination tensions were relieved for seven Malayan students studying in Sydney by a rail and road tour of Canberra. The students at the Cotter Dam, Canberra. Left to right: Mr K L Tan, of Telok Anson, Miss L Squires, Mr M Shahariman, of Perak, Abdullah bin Haji Sidek, of Selangor, Mr R A Rutledge, Wan Mohamed, of Trengganu, Abdul Rahman, of Kuala Kangsar, and Ismail bin Haji Abas, of Negri Sembilan [photographic image]. 1 photographic negative: b&w, acetate
p791
sVurl
p792
V/work/161533860
p793
sVtroveUrl
p794
Vhttp://trove.nla.gov.au/work/161533860
p795
sVversionCount
p796
I1
sVholdingsCount
p797
I1
sVissued
p798
I1961
sVrelevance
p799
(dp800
Vscore
p801
V1.0
p802
sVvalue
p803
Vlikely to be relevant
p804
ssVidentifier
p805
(lp806
(dp807
Vlinktype
p808
Vfulltext
p809
sVtype
p810
Vurl
p811
sVvalue
p812
Vhttp://recordsearch.naa.gov.au/scripts/SearchOld.asp?O=PSI2&Number=8926629
p813
sa(dp814
Vlinktype
p815
Vthumbnail
p816
sVtype
p817
Vurl
p818
sVvalue
p819
Vhttp://recordsearch.naa.gov.au/scripts/SearchOld.asp?O=IMS2&S=1&Number=8926629
p820
sasVtype
p821
(lp822
VPhotograph
p823
asVid
p824
V161533860
p825
sa(dp826
Vtitle
p827
VThe Victoria League of Perth, Western Australia, entertained students at a Sunday evening party. Malayan students were among the 25 representatives from several Asian countries. In her welcoming speech Mrs D N Turner, Chairman of the League, remarked that We have come a long way since students from Asia were something of a rarity in Perth. Now we see them on buses and beaches, in city streets, in sporting teams and theatre productions and newspaper pictures. And to a greater and greater degree, they are becoming frequent and welcome guests in Perth homes. - (from left) Ang Bock Lan, final year accountancy student; Lim Chee Seng, a member of the Australian Society of Accountants, now studying cost accounting; Edward Lim Chee Jin, brother of Lim Chee Seng, a second year accountancy student; Tjio Kay Kong, a final year accountancy student; and Helen Choo Chok Fong, final year accountancy student [photographic image] / photographer, W Hartley. 1 photographic negative: b&w, acetate
p828
sVurl
p829
V/work/161537110
p830
sVtroveUrl
p831
Vhttp://trove.nla.gov.au/work/161537110
p832
sVversionCount
p833
I1
sVholdingsCount
p834
I1
sVissued
p835
I1963
sVrelevance
p836
(dp837
Vscore
p838
V1.0
p839
sVvalue
p840
Vlikely to be relevant
p841
ssVidentifier
p842
(lp843
(dp844
Vlinktype
p845
Vfulltext
p846
sVtype
p847
Vurl
p848
sVvalue
p849
Vhttp://recordsearch.naa.gov.au/scripts/SearchOld.asp?O=PSI2&Number=8925734
p850
sa(dp851
Vlinktype
p852
Vthumbnail
p853
sVtype
p854
Vurl
p855
sVvalue
p856
Vhttp://recordsearch.naa.gov.au/scripts/SearchOld.asp?O=IMS2&S=1&Number=8925734
p857
sasVtype
p858
(lp859
VPhotograph
p860
asVid
p861
V161537110
p862
sa(dp863
Vtitle
p864
VTITLE: Transport - Road - Filling drums with water from a bore on the road to Giles, in central Australia, where a meteorological station was established in 1956 CATEGORY: photograph PRINCIPAL CREDIT: photographer J Tanner FORMAT: b&w negative TYPE: cellulose acetate STATUS: preservation material
p865
sVurl
p866
V/work/161537452
p867
sVtroveUrl
p868
Vhttp://trove.nla.gov.au/work/161537452
p869
sVversionCount
p870
I1
sVholdingsCount
p871
I1
sVissued
p872
I1956
sVrelevance
p873
(dp874
Vscore
p875
V1.0
p876
sVvalue
p877
Vlikely to be relevant
p878
ssVidentifier
p879
(lp880
(dp881
Vlinktype
p882
Vfulltext
p883
sVtype
p884
Vurl
p885
sVvalue
p886
Vhttp://recordsearch.naa.gov.au/scripts/SearchOld.asp?O=PSI2&Number=11962723
p887
sa(dp888
Vlinktype
p889
Vthumbnail
p890
sVtype
p891
Vurl
p892
sVvalue
p893
Vhttp://recordsearch.naa.gov.au/scripts/SearchOld.asp?O=IMS2&S=1&Number=11962723
p894
sasVtype
p895
(lp896
VPhotograph
p897
asVid
p898
V161537452
p899
sa(dp900
Vtitle
p901
VImmigration - Minister for Immigration - JOHN HODGES meets Lebanese Settlement Committee CATEGORY: Photograph PRINCIPAL CREDIT: Department of Immigration and Multicultural and Indigenous Affairs (DIMIA) FORMAT: b&w negative TYPE: cellulose acetate STATUS: preservation material
p902
sVurl
p903
V/work/161571248
p904
sVtroveUrl
p905
Vhttp://trove.nla.gov.au/work/161571248
p906
sVversionCount
p907
I1
sVholdingsCount
p908
I1
sVissued
p909
I1982
sVrelevance
p910
(dp911
Vscore
p912
V1.0
p913
sVvalue
p914
Vlikely to be relevant
p915
ssVidentifier
p916
(lp917
(dp918
Vlinktype
p919
Vfulltext
p920
sVtype
p921
Vurl
p922
sVvalue
p923
Vhttp://recordsearch.naa.gov.au/scripts/SearchOld.asp?O=PSI2&Number=8112161
p924
sa(dp925
Vlinktype
p926
Vthumbnail
p927
sVtype
p928
Vurl
p929
sVvalue
p930
Vhttp://recordsearch.naa.gov.au/scripts/SearchOld.asp?O=IMS2&S=1&Number=8112161
p931
sasVtype
p932
(lp933
VPhotograph
p934
asVid
p935
V161571248
p936
sa(dp937
Vtitle
p938
VImmigration - Minister for Immigration - CLYDE HOLDING on visit to Yugoslavia CATEGORY: Photograph PRINCIPAL CREDIT: Department of Immigration and Multicultural and Indigenous Affairs (DIMIA) FORMAT: b&w negative TYPE: cellulose acetate STATUS: preservation material
p939
sVurl
p940
V/work/161575158
p941
sVtroveUrl
p942
Vhttp://trove.nla.gov.au/work/161575158
p943
sVversionCount
p944
I1
sVholdingsCount
p945
I1
sVissued
p946
I1988
sVrelevance
p947
(dp948
Vscore
p949
V1.0
p950
sVvalue
p951
Vlikely to be relevant
p952
ssVidentifier
p953
(lp954
(dp955
Vlinktype
p956
Vfulltext
p957
sVtype
p958
Vurl
p959
sVvalue
p960
Vhttp://recordsearch.naa.gov.au/scripts/SearchOld.asp?O=PSI2&Number=8112331
p961
sa(dp962
Vlinktype
p963
Vthumbnail
p964
sVtype
p965
Vurl
p966
sVvalue
p967
Vhttp://recordsearch.naa.gov.au/scripts/SearchOld.asp?O=IMS2&S=1&Number=8112331
p968
sasVtype
p969
(lp970
VPhotograph
p971
asVid
p972
V161575158
p973
sa(dp974
Vtitle
p975
VTITLE: View from Commonwealth Centre CATEGORY: Photograph FORMAT: b&w print STATUS: Preservation material
p976
sVurl
p977
V/work/161808530
p978
sVtroveUrl
p979
Vhttp://trove.nla.gov.au/work/161808530
p980
sVversionCount
p981
I1
sVholdingsCount
p982
I1
sVissued
p983
I1962
sVrelevance
p984
(dp985
Vscore
p986
V1.0
p987
sVvalue
p988
Vlikely to be relevant
p989
ssVidentifier
p990
(lp991
(dp992
Vlinktype
p993
Vfulltext
p994
sVtype
p995
Vurl
p996
sVvalue
p997
Vhttp://recordsearch.naa.gov.au/scripts/SearchOld.asp?O=PSI2&Number=9863787
p998
sa(dp999
Vlinktype
p1000
Vthumbnail
p1001
sVtype
p1002
Vurl
p1003
sVvalue
p1004
Vhttp://recordsearch.naa.gov.au/scripts/SearchOld.asp?O=IMS2&S=1&Number=9863787
p1005
sasVtype
p1006
(lp1007
VPhotograph
p1008
asVid
p1009
V161808530
p1010
sa(dp1011
Vtitle
p1012
VTITLE: Bandiana ARA [camp complete] CATEGORY: Photograph FORMAT: b&w negative STATUS: Preservation material
p1013
sVurl
p1014
V/work/161808542
p1015
sVtroveUrl
p1016
Vhttp://trove.nla.gov.au/work/161808542
p1017
sVversionCount
p1018
I1
sVholdingsCount
p1019
I1
sVissued
p1020
I1962
sVrelevance
p1021
(dp1022
Vscore
p1023
V1.0
p1024
sVvalue
p1025
Vlikely to be relevant
p1026
ssVidentifier
p1027
(lp1028
(dp1029
Vlinktype
p1030
Vfulltext
p1031
sVtype
p1032
Vurl
p1033
sVvalue
p1034
Vhttp://recordsearch.naa.gov.au/scripts/SearchOld.asp?O=PSI2&Number=9863838
p1035
sa(dp1036
Vlinktype
p1037
Vthumbnail
p1038
sVtype
p1039
Vurl
p1040
sVvalue
p1041
Vhttp://recordsearch.naa.gov.au/scripts/SearchOld.asp?O=IMS2&S=1&Number=9863838
p1042
sasVtype
p1043
(lp1044
VPhotograph
p1045
asVid
p1046
V161808542
p1047
sa(dp1048
Vtitle
p1049
VTITLE: Essendon aerodrome - faulty filling in compaction joints CATEGORY: Photograph FORMAT: b&w print STATUS: Preservation material
p1050
sVurl
p1051
V/work/161808572
p1052
sVtroveUrl
p1053
Vhttp://trove.nla.gov.au/work/161808572
p1054
sVversionCount
p1055
I1
sVholdingsCount
p1056
I1
sVissued
p1057
I1957
sVrelevance
p1058
(dp1059
Vscore
p1060
V1.0
p1061
sVvalue
p1062
Vlikely to be relevant
p1063
ssVidentifier
p1064
(lp1065
(dp1066
Vlinktype
p1067
Vfulltext
p1068
sVtype
p1069
Vurl
p1070
sVvalue
p1071
Vhttp://recordsearch.naa.gov.au/scripts/SearchOld.asp?O=PSI2&Number=9863769
p1072
sa(dp1073
Vlinktype
p1074
Vthumbnail
p1075
sVtype
p1076
Vurl
p1077
sVvalue
p1078
Vhttp://recordsearch.naa.gov.au/scripts/SearchOld.asp?O=IMS2&S=1&Number=9863769
p1079
sasVtype
p1080
(lp1081
VPhotograph
p1082
asVid
p1083
V161808572
p1084
sa(dp1085
Vtitle
p1086
VThai General arrives in Canberra [photographic image]. 1 photographic negative: b&w, acetate
p1087
sVurl
p1088
V/work/161817406
p1089
sVtroveUrl
p1090
Vhttp://trove.nla.gov.au/work/161817406
p1091
sVversionCount
p1092
I1
sVholdingsCount
p1093
I1
sVissued
p1094
I1970
sVrelevance
p1095
(dp1096
Vscore
p1097
V1.0
p1098
sVvalue
p1099
Vlikely to be relevant
p1100
ssVidentifier
p1101
(lp1102
(dp1103
Vlinktype
p1104
Vfulltext
p1105
sVtype
p1106
Vurl
p1107
sVvalue
p1108
Vhttp://recordsearch.naa.gov.au/scripts/SearchOld.asp?O=PSI2&Number=8926645
p1109
sa(dp1110
Vlinktype
p1111
Vthumbnail
p1112
sVtype
p1113
Vurl
p1114
sVvalue
p1115
Vhttp://recordsearch.naa.gov.au/scripts/SearchOld.asp?O=IMS2&S=1&Number=8926645
p1116
sasVtype
p1117
(lp1118
VPhotograph
p1119
asVid
p1120
V161817406
p1121
sa(dp1122
Vtitle
p1123
VA Sarawak artist is a prize winner in Australia [photographic image] / photographer, Terry Rowe. 1 photographic negative: b&w acetate
p1124
sVurl
p1125
V/work/161822748
p1126
sVtroveUrl
p1127
Vhttp://trove.nla.gov.au/work/161822748
p1128
sVversionCount
p1129
I1
sVholdingsCount
p1130
I1
sVissued
p1131
I1969
sVrelevance
p1132
(dp1133
Vscore
p1134
V1.0
p1135
sVvalue
p1136
Vlikely to be relevant
p1137
ssVidentifier
p1138
(lp1139
(dp1140
Vlinktype
p1141
Vfulltext
p1142
sVtype
p1143
Vurl
p1144
sVvalue
p1145
Vhttp://recordsearch.naa.gov.au/scripts/SearchOld.asp?O=PSI2&Number=8926947
p1146
sa(dp1147
Vlinktype
p1148
Vthumbnail
p1149
sVtype
p1150
Vurl
p1151
sVvalue
p1152
Vhttp://recordsearch.naa.gov.au/scripts/SearchOld.asp?O=IMS2&S=1&Number=8926947
p1153
sasVtype
p1154
(lp1155
VPhotograph
p1156
asVid
p1157
V161822748
p1158
sa(dp1159
Vtitle
p1160
VTransport - Rail - Loading 108ft long pressure vessel onto rail wagon, Cork R Marshalling yards, Sydney for Perth CATEGORY: Photograph PRINCIPAL CREDIT: Australian News and Information Bureau FORMAT: b&w negative TYPE: cellulose acetate STATUS: preservation material
p1161
sVurl
p1162
V/work/166767920
p1163
sVtroveUrl
p1164
Vhttp://trove.nla.gov.au/work/166767920
p1165
sVversionCount
p1166
I1
sVholdingsCount
p1167
I1
sVissued
p1168
I1967
sVrelevance
p1169
(dp1170
Vscore
p1171
V1.0
p1172
sVvalue
p1173
Vlikely to be relevant
p1174
ssVidentifier
p1175
(lp1176
(dp1177
Vlinktype
p1178
Vfulltext
p1179
sVtype
p1180
Vurl
p1181
sVvalue
p1182
Vhttp://recordsearch.naa.gov.au/scripts/SearchOld.asp?O=PSI2&Number=11961837
p1183
sa(dp1184
Vlinktype
p1185
Vthumbnail
p1186
sVtype
p1187
Vurl
p1188
sVvalue
p1189
Vhttp://recordsearch.naa.gov.au/scripts/SearchOld.asp?O=IMS2&S=1&Number=11961837
p1190
sasVtype
p1191
(lp1192
VPhotograph
p1193
asVid
p1194
V166767920
p1195
sa(dp1196
Vtitle
p1197
VTITLE: Transport - Road - Interstate transport on the Hume Highway in southern New SouthWales CATEGORY: Photograph PRINCIPAL CREDIT: Australian News and Information Bureau, photographer, W Pedersen FORMAT: b&w negative TYPE: cellulose acetate STATUS: preservation material
p1198
sVurl
p1199
V/work/161362778
p1200
sVtroveUrl
p1201
Vhttp://trove.nla.gov.au/work/161362778
p1202
sVversionCount
p1203
I1
sVholdingsCount
p1204
I1
sVissued
p1205
I1965
sVrelevance
p1206
(dp1207
Vscore
p1208
V1.0
p1209
sVvalue
p1210
Vlikely to be relevant
p1211
ssVidentifier
p1212
(lp1213
(dp1214
Vlinktype
p1215
Vfulltext
p1216
sVtype
p1217
Vurl
p1218
sVvalue
p1219
Vhttp://recordsearch.naa.gov.au/scripts/SearchOld.asp?O=PSI2&Number=11962753
p1220
sa(dp1221
Vlinktype
p1222
Vthumbnail
p1223
sVtype
p1224
Vurl
p1225
sVvalue
p1226
Vhttp://recordsearch.naa.gov.au/scripts/SearchOld.asp?O=IMS2&S=1&Number=11962753
p1227
sasVtype
p1228
(lp1229
VPhotograph
p1230
asVid
p1231
V161362778
p1232
sa(dp1233
Vtitle
p1234
VImmigration - Minister for Immigration - CHRIS HURFORD with Greek officials in Athens
p1235
sVurl
p1236
V/work/161400896
p1237
sVtroveUrl
p1238
Vhttp://trove.nla.gov.au/work/161400896
p1239
sVversionCount
p1240
I1
sVholdingsCount
p1241
I1
sVissued
p1242
I1985
sVrelevance
p1243
(dp1244
Vscore
p1245
V1.0
p1246
sVvalue
p1247
Vlikely to be relevant
p1248
ssVidentifier
p1249
(lp1250
(dp1251
Vlinktype
p1252
Vfulltext
p1253
sVtype
p1254
Vurl
p1255
sVvalue
p1256
Vhttp://recordsearch.naa.gov.au/scripts/SearchOld.asp?O=PSI2&Number=8112296
p1257
sa(dp1258
Vlinktype
p1259
Vthumbnail
p1260
sVtype
p1261
Vurl
p1262
sVvalue
p1263
Vhttp://recordsearch.naa.gov.au/scripts/SearchOld.asp?O=IMS2&S=1&Number=8112296
p1264
sasVtype
p1265
(lp1266
VPhotograph
p1267
asVid
p1268
V161400896
p1269
sa(dp1270
Vtitle
p1271
VEight young students enjoued a three day visit to Moss Vale in mid-March as guests of Rotary. They stayed in members' homes, were entertained by the Shire Council, visited a sheep property and nearby scenic spots and saw the production processes of a big cement works - Tan Joo Een (left) from Singapore and Lyn Chang from Hong Kong are helped through a barbed wire fence near Fitzroy Falls by their hosts while ChouTai Choong looks on [Photographic image]. Photographer / J. Fitzpatrick. 1 photographic negative: b&w, acetate
p1272
sVurl
p1273
V/work/161406408
p1274
sVtroveUrl
p1275
Vhttp://trove.nla.gov.au/work/161406408
p1276
sVversionCount
p1277
I1
sVholdingsCount
p1278
I1
sVissued
p1279
I1955
sVrelevance
p1280
(dp1281
Vscore
p1282
V1.0
p1283
sVvalue
p1284
Vlikely to be relevant
p1285
ssVidentifier
p1286
(lp1287
(dp1288
Vlinktype
p1289
Vfulltext
p1290
sVtype
p1291
Vurl
p1292
sVvalue
p1293
Vhttp://recordsearch.naa.gov.au/scripts/SearchOld.asp?O=PSI2&Number=8928049
p1294
sa(dp1295
Vlinktype
p1296
Vthumbnail
p1297
sVtype
p1298
Vurl
p1299
sVvalue
p1300
Vhttp://recordsearch.naa.gov.au/scripts/SearchOld.asp?O=IMS2&S=1&Number=8928049
p1301
sasVtype
p1302
(lp1303
VPhotograph
p1304
asVid
p1305
V161406408
p1306
sa(dp1307
Vtitle
p1308
VTruck and semi-trailer with logs each approximately 2 tons in weight in a loading yard at Melbourne, Victoria. Extension of good roads and the increasing demands of commercial undertakings have resulted in great development of road transport in Australia in recent years [photographic image]. 1 photographic negative: b&w, acetate
p1309
sVurl
p1310
V/work/161421034
p1311
sVtroveUrl
p1312
Vhttp://trove.nla.gov.au/work/161421034
p1313
sVversionCount
p1314
I1
sVholdingsCount
p1315
I1
sVissued
p1316
I1946
sVrelevance
p1317
(dp1318
Vscore
p1319
V1.0
p1320
sVvalue
p1321
Vlikely to be relevant
p1322
ssVidentifier
p1323
(lp1324
(dp1325
Vlinktype
p1326
Vfulltext
p1327
sVtype
p1328
Vurl
p1329
sVvalue
p1330
Vhttp://recordsearch.naa.gov.au/scripts/SearchOld.asp?O=PSI2&Number=11962717
p1331
sa(dp1332
Vlinktype
p1333
Vthumbnail
p1334
sVtype
p1335
Vurl
p1336
sVvalue
p1337
Vhttp://recordsearch.naa.gov.au/scripts/SearchOld.asp?O=IMS2&S=1&Number=11962717
p1338
sasVtype
p1339
(lp1340
VPhotograph
p1341
asVid
p1342
V161421034
p1343
sa(dp1344
Vtitle
p1345
VGraded roads through which scrub connects outlying cattle station homesteads and buffalo shooters' camps with Darwin in the Northern coastal areas [photographic image] / photographer, Neil Murray. 1 photographic negative: b&w, acetate
p1346
sVurl
p1347
V/work/161435644
p1348
sVtroveUrl
p1349
Vhttp://trove.nla.gov.au/work/161435644
p1350
sVversionCount
p1351
I1
sVholdingsCount
p1352
I1
sVissued
p1353
I1954
sVrelevance
p1354
(dp1355
Vscore
p1356
V1.0
p1357
sVvalue
p1358
Vlikely to be relevant
p1359
ssVidentifier
p1360
(lp1361
(dp1362
Vlinktype
p1363
Vfulltext
p1364
sVtype
p1365
Vurl
p1366
sVvalue
p1367
Vhttp://recordsearch.naa.gov.au/scripts/SearchOld.asp?O=PSI2&Number=11962721
p1368
sa(dp1369
Vlinktype
p1370
Vthumbnail
p1371
sVtype
p1372
Vurl
p1373
sVvalue
p1374
Vhttp://recordsearch.naa.gov.au/scripts/SearchOld.asp?O=IMS2&S=1&Number=11962721
p1375
sasVtype
p1376
(lp1377
VPhotograph
p1378
asVid
p1379
V161435644
p1380
sa(dp1381
Vtitle
p1382
VTransport - Rail - A locomotive in 1961 drawing a lead bullion train from Mount Isa to Townsville in the Australian State of Queensland at the Mica Creek crossing [photographic image]. 1 photographic negative: b&w, acetate
p1383
sVurl
p1384
V/work/161460246
p1385
sVtroveUrl
p1386
Vhttp://trove.nla.gov.au/work/161460246
p1387
sVversionCount
p1388
I1
sVholdingsCount
p1389
I1
sVissued
p1390
I1961
sVrelevance
p1391
(dp1392
Vscore
p1393
V1.0
p1394
sVvalue
p1395
Vlikely to be relevant
p1396
ssVidentifier
p1397
(lp1398
(dp1399
Vlinktype
p1400
Vfulltext
p1401
sVtype
p1402
Vurl
p1403
sVvalue
p1404
Vhttp://recordsearch.naa.gov.au/scripts/SearchOld.asp?O=PSI2&Number=11961776
p1405
sa(dp1406
Vlinktype
p1407
Vthumbnail
p1408
sVtype
p1409
Vurl
p1410
sVvalue
p1411
Vhttp://recordsearch.naa.gov.au/scripts/SearchOld.asp?O=IMS2&S=1&Number=11961776
p1412
sasVtype
p1413
(lp1414
VPhotograph
p1415
asVid
p1416
V161460246
p1417
sa(dp1418
Vtitle
p1419
VEight young students enjoued a three day visit to Moss Vale in mid-March as guests of Rotary. They stayed in members' homes, were entertained by the Shire Council, visited a sheep property and nearby scenic spots and saw the production processes of a big cement works - scenic spots at Fitzroy Falls are pointed out by the Shire Clerk, one of the Rotary hosts to (left to right) Ooi Eng Huat from Malaya [Malaysia]; Chou Tai Choong from Singapore and Peh Ee Seong also from Malaya [Malaysia], also with them are Rotary members and their families [Photographic image]. Photographer / J. Fitzpatrick. 1 photographic negative: b&w, acetate
p1420
sVurl
p1421
V/work/161476898
p1422
sVtroveUrl
p1423
Vhttp://trove.nla.gov.au/work/161476898
p1424
sVversionCount
p1425
I1
sVholdingsCount
p1426
I1
sVissued
p1427
I1955
sVrelevance
p1428
(dp1429
Vscore
p1430
V1.0
p1431
sVvalue
p1432
Vlikely to be relevant
p1433
ssVidentifier
p1434
(lp1435
(dp1436
Vlinktype
p1437
Vfulltext
p1438
sVtype
p1439
Vurl
p1440
sVvalue
p1441
Vhttp://recordsearch.naa.gov.au/scripts/SearchOld.asp?O=PSI2&Number=8928050
p1442
sa(dp1443
Vlinktype
p1444
Vthumbnail
p1445
sVtype
p1446
Vurl
p1447
sVvalue
p1448
Vhttp://recordsearch.naa.gov.au/scripts/SearchOld.asp?O=IMS2&S=1&Number=8928050
p1449
sasVtype
p1450
(lp1451
VPhotograph
p1452
asVid
p1453
V161476898
p1454
sa(dp1455
Vtitle
p1456
VImmigration - Minister for Immigration - JOHN HODGES meets with ethnic community leaders CATEGORY: Photograph PRINCIPAL CREDIT: Department of Immigration and Multicultural and Indigenous Affairs (DIMIA) FORMAT: b&w negative TYPE: cellulose acetate STATUS: preservation material
p1457
sVurl
p1458
V/work/161571098
p1459
sVtroveUrl
p1460
Vhttp://trove.nla.gov.au/work/161571098
p1461
sVversionCount
p1462
I1
sVholdingsCount
p1463
I1
sVissued
p1464
I1982
sVrelevance
p1465
(dp1466
Vscore
p1467
V1.0
p1468
sVvalue
p1469
Vlikely to be relevant
p1470
ssVidentifier
p1471
(lp1472
(dp1473
Vlinktype
p1474
Vfulltext
p1475
sVtype
p1476
Vurl
p1477
sVvalue
p1478
Vhttp://recordsearch.naa.gov.au/scripts/SearchOld.asp?O=PSI2&Number=8112146
p1479
sa(dp1480
Vlinktype
p1481
Vthumbnail
p1482
sVtype
p1483
Vurl
p1484
sVvalue
p1485
Vhttp://recordsearch.naa.gov.au/scripts/SearchOld.asp?O=IMS2&S=1&Number=8112146
p1486
sasVtype
p1487
(lp1488
VPhotograph
p1489
asVid
p1490
V161571098
p1491
sa(dp1492
Vtitle
p1493
VImmigration - Minister for Immigration - IAN MacPHEE in discussions in Venice CATEGORY: Photograph PRINCIPAL CREDIT: Department of Immigration and Multicultural and Indigenous Affairs (DIMIA) FORMAT: b&w negative TYPE: cellulose acetate STATUS: preservation material
p1494
sVurl
p1495
V/work/161571460
p1496
sVtroveUrl
p1497
Vhttp://trove.nla.gov.au/work/161571460
p1498
sVversionCount
p1499
I1
sVholdingsCount
p1500
I1
sVissued
p1501
I1980
sVrelevance
p1502
(dp1503
Vscore
p1504
V1.0
p1505
sVvalue
p1506
Vlikely to be relevant
p1507
ssVidentifier
p1508
(lp1509
(dp1510
Vlinktype
p1511
Vfulltext
p1512
sVtype
p1513
Vurl
p1514
sVvalue
p1515
Vhttp://recordsearch.naa.gov.au/scripts/SearchOld.asp?O=PSI2&Number=8112114
p1516
sa(dp1517
Vlinktype
p1518
Vthumbnail
p1519
sVtype
p1520
Vurl
p1521
sVvalue
p1522
Vhttp://recordsearch.naa.gov.au/scripts/SearchOld.asp?O=IMS2&S=1&Number=8112114
p1523
sasVtype
p1524
(lp1525
VPhotograph
p1526
asVid
p1527
V161571460
p1528
sa(dp1529
Vtitle
p1530
VImmigration - Minister for Immigration - Federal and State Ministers meet in Perth CATEGORY: Photograph PRINCIPAL CREDIT: Department of Immigration and Multicultural and Indigenous Affairs (DIMIA) FORMAT: b&w negative TYPE: cellulose acetate STATUS: preservation material
p1531
sVurl
p1532
V/work/161571584
p1533
sVtroveUrl
p1534
Vhttp://trove.nla.gov.au/work/161571584
p1535
sVversionCount
p1536
I1
sVholdingsCount
p1537
I1
sVissued
p1538
I1979
sVrelevance
p1539
(dp1540
Vscore
p1541
V1.0
p1542
sVvalue
p1543
Vlikely to be relevant
p1544
ssVidentifier
p1545
(lp1546
(dp1547
Vlinktype
p1548
Vfulltext
p1549
sVtype
p1550
Vurl
p1551
sVvalue
p1552
Vhttp://recordsearch.naa.gov.au/scripts/SearchOld.asp?O=PSI2&Number=8112094
p1553
sa(dp1554
Vlinktype
p1555
Vthumbnail
p1556
sVtype
p1557
Vurl
p1558
sVvalue
p1559
Vhttp://recordsearch.naa.gov.au/scripts/SearchOld.asp?O=IMS2&S=1&Number=8112094
p1560
sasVtype
p1561
(lp1562
VPhotograph
p1563
asVid
p1564
V161571584
p1565
sa(dp1566
Vtitle
p1567
VTITLE: Transport - Roads - Victorian Scenic - A sheep transport moves along a country road near Swifts Creek, Victoria CATEGORY: Photograph PRINCIPAL CREDIT: Australian News and Information Bureau, photographer Keith Byron FORMAT: b&w negative TYPE: cellulose acetate STATUS: preservation material
p1568
sVurl
p1569
V/work/161328244
p1570
sVtroveUrl
p1571
Vhttp://trove.nla.gov.au/work/161328244
p1572
sVversionCount
p1573
I1
sVholdingsCount
p1574
I1
sVissued
p1575
I1966
sVrelevance
p1576
(dp1577
Vscore
p1578
V1.0
p1579
sVvalue
p1580
Vlikely to be relevant
p1581
ssVidentifier
p1582
(lp1583
(dp1584
Vlinktype
p1585
Vfulltext
p1586
sVtype
p1587
Vurl
p1588
sVvalue
p1589
Vhttp://recordsearch.naa.gov.au/scripts/SearchOld.asp?O=PSI2&Number=11962760
p1590
sa(dp1591
Vlinktype
p1592
Vthumbnail
p1593
sVtype
p1594
Vurl
p1595
sVvalue
p1596
Vhttp://recordsearch.naa.gov.au/scripts/SearchOld.asp?O=IMS2&S=1&Number=11962760
p1597
sasVtype
p1598
(lp1599
VPhotograph
p1600
asVid
p1601
V161328244
p1602
sa(dp1603
Vtitle
p1604
VVisit of British Secretary of State for Commonwealth Affairs - Mr H Bowden examining the wool of a sheep at Coonong, a sheep property in the Riverina District of New South Wales. Photographer W Pederson
p1605
sVurl
p1606
V/work/161352578
p1607
sVtroveUrl
p1608
Vhttp://trove.nla.gov.au/work/161352578
p1609
sVversionCount
p1610
I1
sVholdingsCount
p1611
I1
sVissued
p1612
I1967
sVrelevance
p1613
(dp1614
Vscore
p1615
V1.0
p1616
sVvalue
p1617
Vlikely to be relevant
p1618
ssVidentifier
p1619
(lp1620
(dp1621
Vlinktype
p1622
Vfulltext
p1623
sVtype
p1624
Vurl
p1625
sVvalue
p1626
Vhttp://recordsearch.naa.gov.au/scripts/SearchOld.asp?O=PSI2&Number=30836302
p1627
sa(dp1628
Vlinktype
p1629
Vthumbnail
p1630
sVtype
p1631
Vurl
p1632
sVvalue
p1633
Vhttp://recordsearch.naa.gov.au/scripts/SearchOld.asp?O=IMS2&S=1&Number=30836302
p1634
sasVtype
p1635
(lp1636
VPhotograph
p1637
asVid
p1638
V161352578
p1639
sa(dp1640
Vtitle
p1641
VGraduation Day at Sydney University.Yap Tung Soh, of Kuala Lumpur, was awarded his medical degree. Dr Yap with his wife, Esther and his mother after the degree conferring ceremony [photographic image] / photographer, J Fitzpatrick. 1 photographic negative: b&w, acetate
p1642
sVurl
p1643
V/work/161387800
p1644
sVtroveUrl
p1645
Vhttp://trove.nla.gov.au/work/161387800
p1646
sVversionCount
p1647
I1
sVholdingsCount
p1648
I1
sVissued
p1649
I1960
sVrelevance
p1650
(dp1651
Vscore
p1652
V1.0
p1653
sVvalue
p1654
Vlikely to be relevant
p1655
ssVidentifier
p1656
(lp1657
(dp1658
Vlinktype
p1659
Vfulltext
p1660
sVtype
p1661
Vurl
p1662
sVvalue
p1663
Vhttp://recordsearch.naa.gov.au/scripts/SearchOld.asp?O=PSI2&Number=8926497
p1664
sa(dp1665
Vlinktype
p1666
Vthumbnail
p1667
sVtype
p1668
Vurl
p1669
sVvalue
p1670
Vhttp://recordsearch.naa.gov.au/scripts/SearchOld.asp?O=IMS2&S=1&Number=8926497
p1671
sasVtype
p1672
(lp1673
VPhotograph
p1674
asVid
p1675
V161387800
p1676
sa(dp1677
Vtitle
p1678
VMiss Ligia Bonamis, of Singapore, has become one of the most active youth leaders in Melbourne, in her attempts to help promote understanding between Australia and her neighbouring countries in South and South-East Asia. She is a member of the Executive of the Junior Australian-Asian Association of Victoria and a delegate in the national councils of nation-wide Australian organisations such as the Apex Club, and the Junior Chamber of Commerce. After completing her course at the Teachers' Training College in Melbourne, she is teaching in a school in a Melbourne suburb. Miss Bonamis with her pupils [photographic image] / photographer, Don Edwards. 1 photographic negative: b&w, acetate
p1679
sVurl
p1680
V/work/161406462
p1681
sVtroveUrl
p1682
Vhttp://trove.nla.gov.au/work/161406462
p1683
sVversionCount
p1684
I1
sVholdingsCount
p1685
I1
sVissued
p1686
I1960
sVrelevance
p1687
(dp1688
Vscore
p1689
V1.0
p1690
sVvalue
p1691
Vlikely to be relevant
p1692
ssVidentifier
p1693
(lp1694
(dp1695
Vlinktype
p1696
Vfulltext
p1697
sVtype
p1698
Vurl
p1699
sVvalue
p1700
Vhttp://recordsearch.naa.gov.au/scripts/SearchOld.asp?O=PSI2&Number=8926513
p1701
sa(dp1702
Vlinktype
p1703
Vthumbnail
p1704
sVtype
p1705
Vurl
p1706
sVvalue
p1707
Vhttp://recordsearch.naa.gov.au/scripts/SearchOld.asp?O=IMS2&S=1&Number=8926513
p1708
sasVtype
p1709
(lp1710
VPhotograph
p1711
asVid
p1712
V161406462
p1713
sa(dp1714
Vtitle
p1715
VTransport - Road - NRMA 'Pilot' chats with a country motorist
p1716
sVurl
p1717
V/work/161543366
p1718
sVtroveUrl
p1719
Vhttp://trove.nla.gov.au/work/161543366
p1720
sVversionCount
p1721
I1
sVholdingsCount
p1722
I1
sVissued
p1723
I1963
sVrelevance
p1724
(dp1725
Vscore
p1726
V1.0
p1727
sVvalue
p1728
Vlikely to be relevant
p1729
ssVidentifier
p1730
(lp1731
(dp1732
Vlinktype
p1733
Vfulltext
p1734
sVtype
p1735
Vurl
p1736
sVvalue
p1737
Vhttp://recordsearch.naa.gov.au/scripts/SearchOld.asp?O=PSI2&Number=11962762
p1738
sa(dp1739
Vlinktype
p1740
Vthumbnail
p1741
sVtype
p1742
Vurl
p1743
sVvalue
p1744
Vhttp://recordsearch.naa.gov.au/scripts/SearchOld.asp?O=IMS2&S=1&Number=11962762
p1745
sasVtype
p1746
(lp1747
VPhotograph
p1748
asVid
p1749
V161543366
p1750
sa(dp1751
Vtitle
p1752
VMr Hermetanio L Luna-An, instructor in animal husbandary at the Mindinao Agricultural College, Musuan, Bukindon, Philippines, will help establish a new poultry research project at the University of New England, at Armidale, Australia. Also, from the Philippines and studying at the University of New England are: Mr Jovencio R Veloso, a feed inspector with the Bureau of Animal Industry, Department of Argriculture and Natural Resources, Manila and Mr Ceferino Olivo, an instructor in animal husbandary at the Mindinao Institute of Technology, Kabacan Cotabato. Dr D R Lamond, lecturer in animal husbandary, and Mr Olivo carry out an artificial insemination experiment [photographic image] / photographer, J Fitzpatrick. 1 photographic negative: b&w, acetate
p1753
sVurl
p1754
V/work/161495474
p1755
sVtroveUrl
p1756
Vhttp://trove.nla.gov.au/work/161495474
p1757
sVversionCount
p1758
I1
sVholdingsCount
p1759
I1
sVissued
p1760
I1960
sVrelevance
p1761
(dp1762
Vscore
p1763
V1.0
p1764
sVvalue
p1765
Vlikely to be relevant
p1766
ssVidentifier
p1767
(lp1768
(dp1769
Vlinktype
p1770
Vfulltext
p1771
sVtype
p1772
Vurl
p1773
sVvalue
p1774
Vhttp://recordsearch.naa.gov.au/scripts/SearchOld.asp?O=PSI2&Number=8926542
p1775
sa(dp1776
Vlinktype
p1777
Vthumbnail
p1778
sVtype
p1779
Vurl
p1780
sVvalue
p1781
Vhttp://recordsearch.naa.gov.au/scripts/SearchOld.asp?O=IMS2&S=1&Number=8926542
p1782
sasVtype
p1783
(lp1784
VPhotograph
p1785
asVid
p1786
V161495474
p1787
sa(dp1788
Vtitle
p1789
VPongpan Promkatkeo, of Chiengmai, the only Thai Colombo Plan student in the Unvesity of Queensland's newly-established course on International Relations, paid a weeks visit to the far western Queensland town of Charleville. Pongpan, discusses a problem with Mr R G Neal, reader in history at the Queensland University [photographic image]. 1 photographic negative: b&w, acetate
p1790
sVurl
p1791
V/work/161819142
p1792
sVtroveUrl
p1793
Vhttp://trove.nla.gov.au/work/161819142
p1794
sVversionCount
p1795
I1
sVholdingsCount
p1796
I1
sVissued
p1797
I1960
sVrelevance
p1798
(dp1799
Vscore
p1800
V1.0
p1801
sVvalue
p1802
Vlikely to be relevant
p1803
ssVidentifier
p1804
(lp1805
(dp1806
Vlinktype
p1807
Vfulltext
p1808
sVtype
p1809
Vurl
p1810
sVvalue
p1811
Vhttp://recordsearch.naa.gov.au/scripts/SearchOld.asp?O=PSI2&Number=8926524
p1812
sa(dp1813
Vlinktype
p1814
Vthumbnail
p1815
sVtype
p1816
Vurl
p1817
sVvalue
p1818
Vhttp://recordsearch.naa.gov.au/scripts/SearchOld.asp?O=IMS2&S=1&Number=8926524
p1819
sasVtype
p1820
(lp1821
VPhotograph
p1822
asVid
p1823
V161819142
p1824
sa(dp1825
Vtitle
p1826
VImmigration - Minister for Immigration - Michael MCKellar, Minister for Immigration and Ethnic Affairs at Conference on Language training for Women CATEGORY: Photograph PRINCIPAL CREDIT: Department of Immigration and Multicultural and Indigenous Affairs (DIMIA) FORMAT: b&w negative TYPE: cellulose acetate STATUS: preservation material
p1827
sVurl
p1828
V/work/161313377
p1829
sVtroveUrl
p1830
Vhttp://trove.nla.gov.au/work/161313377
p1831
sVversionCount
p1832
I1
sVholdingsCount
p1833
I1
sVissued
p1834
I1979
sVrelevance
p1835
(dp1836
Vscore
p1837
V1.0
p1838
sVvalue
p1839
Vlikely to be relevant
p1840
ssVidentifier
p1841
(lp1842
(dp1843
Vlinktype
p1844
Vfulltext
p1845
sVtype
p1846
Vurl
p1847
sVvalue
p1848
Vhttp://recordsearch.naa.gov.au/scripts/SearchOld.asp?O=PSI2&Number=8112380
p1849
sa(dp1850
Vlinktype
p1851
Vthumbnail
p1852
sVtype
p1853
Vurl
p1854
sVvalue
p1855
Vhttp://recordsearch.naa.gov.au/scripts/SearchOld.asp?O=IMS2&S=1&Number=8112380
p1856
sasVtype
p1857
(lp1858
VPhotograph
p1859
asVid
p1860
V161313377
p1861
sa(dp1862
Vtitle
p1863
VImmigration - Minister for Immigration - AL GRASSBY. CATEGORY: Photograph PRINCIPAL CREDIT: Department of Immigration and Multicultural and Indigenous Affairs (DIMIA) FORMAT: b&w negative TYPE: cellulose acetate STATUS: preservation material
p1864
sVurl
p1865
V/work/161398621
p1866
sVtroveUrl
p1867
Vhttp://trove.nla.gov.au/work/161398621
p1868
sVversionCount
p1869
I1
sVholdingsCount
p1870
I1
sVissued
p1871
I1974
sVrelevance
p1872
(dp1873
Vscore
p1874
V1.0
p1875
sVvalue
p1876
Vlikely to be relevant
p1877
ssVidentifier
p1878
(lp1879
(dp1880
Vlinktype
p1881
Vfulltext
p1882
sVtype
p1883
Vurl
p1884
sVvalue
p1885
Vhttp://recordsearch.naa.gov.au/scripts/SearchOld.asp?O=PSI2&Number=8112081
p1886
sa(dp1887
Vlinktype
p1888
Vthumbnail
p1889
sVtype
p1890
Vurl
p1891
sVvalue
p1892
Vhttp://recordsearch.naa.gov.au/scripts/SearchOld.asp?O=IMS2&S=1&Number=8112081
p1893
sasVtype
p1894
(lp1895
VPhotograph
p1896
asVid
p1897
V161398621
p1898
sa(dp1899
Vtitle
p1900
VFiji wins a thrilling game of rugby union [photographic image] / photographer, J Brian. 1 photographic negative: b&w acetate
p1901
sVurl
p1902
V/work/161421827
p1903
sVtroveUrl
p1904
Vhttp://trove.nla.gov.au/work/161421827
p1905
sVversionCount
p1906
I1
sVholdingsCount
p1907
I1
sVissued
p1908
I1969
sVrelevance
p1909
(dp1910
Vscore
p1911
V1.0
p1912
sVvalue
p1913
Vlikely to be relevant
p1914
ssVidentifier
p1915
(lp1916
(dp1917
Vlinktype
p1918
Vfulltext
p1919
sVtype
p1920
Vurl
p1921
sVvalue
p1922
Vhttp://recordsearch.naa.gov.au/scripts/SearchOld.asp?O=PSI2&Number=8926978
p1923
sa(dp1924
Vlinktype
p1925
Vthumbnail
p1926
sVtype
p1927
Vurl
p1928
sVvalue
p1929
Vhttp://recordsearch.naa.gov.au/scripts/SearchOld.asp?O=IMS2&S=1&Number=8926978
p1930
sasVtype
p1931
(lp1932
VPhotograph
p1933
asVid
p1934
V161421827
p1935
sa(dp1936
Vtitle
p1937
VTITLE: Immigration - The Netherlands Commissioner for Emigration, Dr B W Haveman (left), was the guest of honour at a luncheon at the Hotel Canberra during his visit to Australia. Representing the Australian Government is Minister for Defence, the Hon Athol Townley. Mr Rowe (right), Director of the Associated Chambers of Commerce of Australia and member of the Immigration Advisory Council CATEGORY: photograph PRINCIPAL CREDIT: photographer Don Edwards FORMAT: b&w negative TYPE: cellulose acetate STATUS: preservation material
p1938
sVurl
p1939
V/work/161433463
p1940
sVtroveUrl
p1941
Vhttp://trove.nla.gov.au/work/161433463
p1942
sVversionCount
p1943
I1
sVholdingsCount
p1944
I1
sVissued
p1945
I1960
sVrelevance
p1946
(dp1947
Vscore
p1948
V1.0
p1949
sVvalue
p1950
Vlikely to be relevant
p1951
ssVidentifier
p1952
(lp1953
(dp1954
Vlinktype
p1955
Vfulltext
p1956
sVtype
p1957
Vurl
p1958
sVvalue
p1959
Vhttp://recordsearch.naa.gov.au/scripts/SearchOld.asp?O=PSI2&Number=8112480
p1960
sa(dp1961
Vlinktype
p1962
Vthumbnail
p1963
sVtype
p1964
Vurl
p1965
sVvalue
p1966
Vhttp://recordsearch.naa.gov.au/scripts/SearchOld.asp?O=IMS2&S=1&Number=8112480
p1967
sasVtype
p1968
(lp1969
VPhotograph
p1970
asVid
p1971
V161433463
p1972
sa(dp1973
Vtitle
p1974
VImmigration - Minister for Immigration - CHRIS HURFORD, portrait
p1975
sVurl
p1976
V/work/161525999
p1977
sVtroveUrl
p1978
Vhttp://trove.nla.gov.au/work/161525999
p1979
sVversionCount
p1980
I1
sVholdingsCount
p1981
I1
sVissued
p1982
I1984
sVrelevance
p1983
(dp1984
Vscore
p1985
V1.0
p1986
sVvalue
p1987
Vlikely to be relevant
p1988
ssVidentifier
p1989
(lp1990
(dp1991
Vlinktype
p1992
Vfulltext
p1993
sVtype
p1994
Vurl
p1995
sVvalue
p1996
Vhttp://recordsearch.naa.gov.au/scripts/SearchOld.asp?O=PSI2&Number=8112197
p1997
sa(dp1998
Vlinktype
p1999
Vthumbnail
p2000
sVtype
p2001
Vurl
p2002
sVvalue
p2003
Vhttp://recordsearch.naa.gov.au/scripts/SearchOld.asp?O=IMS2&S=1&Number=8112197
p2004
sasVtype
p2005
(lp2006
VPhotograph
p2007
asVid
p2008
V161525999
p2009
sa(dp2010
Vtitle
p2011
VTransport - Rail - Construction of stand gauge railway, Albury-Melbourne [photographic image]. 1 photographic negative: b&w, acetate
p2012
sVurl
p2013
V/work/161527805
p2014
sVtroveUrl
p2015
Vhttp://trove.nla.gov.au/work/161527805
p2016
sVversionCount
p2017
I1
sVholdingsCount
p2018
I1
sVissued
p2019
I1961
sVrelevance
p2020
(dp2021
Vscore
p2022
V1.0
p2023
sVvalue
p2024
Vlikely to be relevant
p2025
ssVidentifier
p2026
(lp2027
(dp2028
Vlinktype
p2029
Vfulltext
p2030
sVtype
p2031
Vurl
p2032
sVvalue
p2033
Vhttp://recordsearch.naa.gov.au/scripts/SearchOld.asp?O=PSI2&Number=11961785
p2034
sa(dp2035
Vlinktype
p2036
Vthumbnail
p2037
sVtype
p2038
Vurl
p2039
sVvalue
p2040
Vhttp://recordsearch.naa.gov.au/scripts/SearchOld.asp?O=IMS2&S=1&Number=11961785
p2041
sasVtype
p2042
(lp2043
VPhotograph
p2044
asVid
p2045
V161527805
p2046
sa(dp2047
Vtitle
p2048
VTITLE: Personalities - Veteran Car Club of Australia - National Tour 1965 [map] CATEGORY: Photograph PRINCIPAL CREDIT: Australian News and Information Bureau FORMAT: b&w negative TYPE: cellulose acetate STATUS: preservation material
p2049
sVurl
p2050
V/work/161321619
p2051
sVtroveUrl
p2052
Vhttp://trove.nla.gov.au/work/161321619
p2053
sVversionCount
p2054
I1
sVholdingsCount
p2055
I1
sVissued
p2056
I1965
sVrelevance
p2057
(dp2058
Vscore
p2059
V1.0
p2060
sVvalue
p2061
Vlikely to be relevant
p2062
ssVidentifier
p2063
(lp2064
(dp2065
Vlinktype
p2066
Vfulltext
p2067
sVtype
p2068
Vurl
p2069
sVvalue
p2070
Vhttp://recordsearch.naa.gov.au/scripts/SearchOld.asp?O=PSI2&Number=30836409
p2071
sa(dp2072
Vlinktype
p2073
Vthumbnail
p2074
sVtype
p2075
Vurl
p2076
sVvalue
p2077
Vhttp://recordsearch.naa.gov.au/scripts/SearchOld.asp?O=IMS2&S=1&Number=30836409
p2078
sasVtype
p2079
(lp2080
VPhotograph
p2081
asVid
p2082
V161321619
p2083
sa(dp2084
Vtitle
p2085
VTITLE: Communications - Australian divertafon for Europe and Asia - The divertafon which is housed in a box measuring 17 inches by 12 1/2 inches by 6 inches fits comfortably on a desk top CATEGORY: Photograph PRINCIPAL CREDIT: Australian News and Information Bureau, Photographer C Bottomly FORMAT: b&w negative TYPE: cellulose acetate STATUS: preservation material
p2086
sVurl
p2087
V/work/161322837
p2088
sVtroveUrl
p2089
Vhttp://trove.nla.gov.au/work/161322837
p2090
sVversionCount
p2091
I1
sVholdingsCount
p2092
I1
sVissued
p2093
I1965
sVrelevance
p2094
(dp2095
Vscore
p2096
V1.0
p2097
sVvalue
p2098
Vlikely to be relevant
p2099
ssVidentifier
p2100
(lp2101
(dp2102
Vlinktype
p2103
Vfulltext
p2104
sVtype
p2105
Vurl
p2106
sVvalue
p2107
Vhttp://recordsearch.naa.gov.au/scripts/SearchOld.asp?O=PSI2&Number=30836418
p2108
sa(dp2109
Vlinktype
p2110
Vthumbnail
p2111
sVtype
p2112
Vurl
p2113
sVvalue
p2114
Vhttp://recordsearch.naa.gov.au/scripts/SearchOld.asp?O=IMS2&S=1&Number=30836418
p2115
sasVtype
p2116
(lp2117
VPhotograph
p2118
asVid
p2119
V161322837
p2120
sa(dp2121
Vtitle
p2122
VTITLE: Personalities- Australian poet to study at Yale - Mr Christopher Wallace-Crabbe CATEGORY: Photograph PRINCIPAL CREDIT: Australian News and Information Bureau, Photographer C Bottomly FORMAT: b&w negative TYPE: cellulose acetate STATUS: preservation material
p2123
sVurl
p2124
V/work/161324809
p2125
sVtroveUrl
p2126
Vhttp://trove.nla.gov.au/work/161324809
p2127
sVversionCount
p2128
I1
sVholdingsCount
p2129
I1
sVissued
p2130
I1965
sVrelevance
p2131
(dp2132
Vscore
p2133
V1.0
p2134
sVvalue
p2135
Vlikely to be relevant
p2136
ssVidentifier
p2137
(lp2138
(dp2139
Vlinktype
p2140
Vfulltext
p2141
sVtype
p2142
Vurl
p2143
sVvalue
p2144
Vhttp://recordsearch.naa.gov.au/scripts/SearchOld.asp?O=PSI2&Number=30836416
p2145
sa(dp2146
Vlinktype
p2147
Vthumbnail
p2148
sVtype
p2149
Vurl
p2150
sVvalue
p2151
Vhttp://recordsearch.naa.gov.au/scripts/SearchOld.asp?O=IMS2&S=1&Number=30836416
p2152
sasVtype
p2153
(lp2154
VPhotograph
p2155
asVid
p2156
V161324809
p2157
sa(dp2158
Vtitle
p2159
VTITLE: Transport - Road - South East freeway in Melbourne [shows divided road, lighting and city buildings] CATEGORY: photograph PRINCIPAL CREDIT: Australian News and Information Bureau, Photographer Keith Byron FORMAT: b&w negative TYPE: cellulose acetate STATUS: preservation material
p2160
sVurl
p2161
V/work/161328637
p2162
sVtroveUrl
p2163
Vhttp://trove.nla.gov.au/work/161328637
p2164
sVversionCount
p2165
I1
sVholdingsCount
p2166
I1
sVissued
p2167
I1966
sVrelevance
p2168
(dp2169
Vscore
p2170
V1.0
p2171
sVvalue
p2172
Vlikely to be relevant
p2173
ssVidentifier
p2174
(lp2175
(dp2176
Vlinktype
p2177
Vfulltext
p2178
sVtype
p2179
Vurl
p2180
sVvalue
p2181
Vhttp://recordsearch.naa.gov.au/scripts/SearchOld.asp?O=PSI2&Number=11962769
p2182
sa(dp2183
Vlinktype
p2184
Vthumbnail
p2185
sVtype
p2186
Vurl
p2187
sVvalue
p2188
Vhttp://recordsearch.naa.gov.au/scripts/SearchOld.asp?O=IMS2&S=1&Number=11962769
p2189
sasVtype
p2190
(lp2191
VPhotograph
p2192
asVid
p2193
V161328637
p2194
sa(dp2195
Vtitle
p2196
VTITLE: Northern Territory - Historical picture CATEGORY: photograph FORMAT: b&w negative TYPE: cellulose acetate STATUS: preservation material
p2197
sVurl
p2198
V/work/161352129
p2199
sVtroveUrl
p2200
Vhttp://trove.nla.gov.au/work/161352129
p2201
sVversionCount
p2202
I1
sVholdingsCount
p2203
I1
sVissued
p2204
I1967
sVrelevance
p2205
(dp2206
Vscore
p2207
V1.0
p2208
sVvalue
p2209
Vlikely to be relevant
p2210
ssVidentifier
p2211
(lp2212
(dp2213
Vlinktype
p2214
Vfulltext
p2215
sVtype
p2216
Vurl
p2217
sVvalue
p2218
Vhttp://recordsearch.naa.gov.au/scripts/SearchOld.asp?O=PSI2&Number=30836316
p2219
sa(dp2220
Vlinktype
p2221
Vthumbnail
p2222
sVtype
p2223
Vurl
p2224
sVvalue
p2225
Vhttp://recordsearch.naa.gov.au/scripts/SearchOld.asp?O=IMS2&S=1&Number=30836316
p2226
sasVtype
p2227
(lp2228
VPhotograph
p2229
asVid
p2230
V161352129
p2231
sa(dp2232
Vtitle
p2233
VTransport - Road - Artists impressions of the NRMA's new Sydney Headquarters under construction
p2234
sVurl
p2235
V/work/161409329
p2236
sVtroveUrl
p2237
Vhttp://trove.nla.gov.au/work/161409329
p2238
sVversionCount
p2239
I1
sVholdingsCount
p2240
I1
sVissued
p2241
I1963
sVrelevance
p2242
(dp2243
Vscore
p2244
V1.0
p2245
sVvalue
p2246
Vlikely to be relevant
p2247
ssVidentifier
p2248
(lp2249
(dp2250
Vlinktype
p2251
Vfulltext
p2252
sVtype
p2253
Vurl
p2254
sVvalue
p2255
Vhttp://recordsearch.naa.gov.au/scripts/SearchOld.asp?O=PSI2&Number=11962771
p2256
sa(dp2257
Vlinktype
p2258
Vthumbnail
p2259
sVtype
p2260
Vurl
p2261
sVvalue
p2262
Vhttp://recordsearch.naa.gov.au/scripts/SearchOld.asp?O=IMS2&S=1&Number=11962771
p2263
sasVtype
p2264
(lp2265
VPhotograph
p2266
asVid
p2267
V161409329
p2268
sa(dp2269
Vtitle
p2270
VA rural science student hopes to return home to Indonesia next year to help spread good ideas about argriculture to Indonesian farmers. He is I Made Nitis, of Klungkung (Bali), who is doing his final year of Bachelor of Rural Science course at the University of New England, Armidale, Australia, on a Colombo Plan. Nitis checks the blood sample from one of the calves he is using in his experiment [photographic image] / photographer, J Fitzpatrick. 1 photographic negative: b&w, acetate
p2271
sVurl
p2272
V/work/161407481
p2273
sVtroveUrl
p2274
Vhttp://trove.nla.gov.au/work/161407481
p2275
sVversionCount
p2276
I1
sVholdingsCount
p2277
I1
sVissued
p2278
I1960
sVrelevance
p2279
(dp2280
Vscore
p2281
V1.0
p2282
sVvalue
p2283
Vlikely to be relevant
p2284
ssVidentifier
p2285
(lp2286
(dp2287
Vlinktype
p2288
Vfulltext
p2289
sVtype
p2290
Vurl
p2291
sVvalue
p2292
Vhttp://recordsearch.naa.gov.au/scripts/SearchOld.asp?O=PSI2&Number=8926556
p2293
sa(dp2294
Vlinktype
p2295
Vthumbnail
p2296
sVtype
p2297
Vurl
p2298
sVvalue
p2299
Vhttp://recordsearch.naa.gov.au/scripts/SearchOld.asp?O=IMS2&S=1&Number=8926556
p2300
sasVtype
p2301
(lp2302
VPhotograph
p2303
asVid
p2304
V161407481
p2305
sa(dp2306
Vtitle
p2307
VThe visit of the frigate Mayu with a crew of 154 officers and men was the first to Australia of a Burma Navy ship, and was a goodwill gesture in return for the visit of the HMAS Quiberon to Burma last year. Ko Than Thua, of the Oway Daily, Rangoon, is studying in Australia under the Colombo Plan award and acted as guide for a party of petty officers from Mayu when they visited Taronga Park Zoo, Sydney. Here they are examining a rare platypus, held by a keeper [photographic image] / photographer, J Fitzpatrick. 1 photographic negative: b&w, acetate
p2308
sVurl
p2309
V/work/161411129
p2310
sVtroveUrl
p2311
Vhttp://trove.nla.gov.au/work/161411129
p2312
sVversionCount
p2313
I1
sVholdingsCount
p2314
I1
sVissued
p2315
I1960
sVrelevance
p2316
(dp2317
Vscore
p2318
V1.0
p2319
sVvalue
p2320
Vlikely to be relevant
p2321
ssVidentifier
p2322
(lp2323
(dp2324
Vlinktype
p2325
Vfulltext
p2326
sVtype
p2327
Vurl
p2328
sVvalue
p2329
Vhttp://recordsearch.naa.gov.au/scripts/SearchOld.asp?O=PSI2&Number=8926314
p2330
sa(dp2331
Vlinktype
p2332
Vthumbnail
p2333
sVtype
p2334
Vurl
p2335
sVvalue
p2336
Vhttp://recordsearch.naa.gov.au/scripts/SearchOld.asp?O=IMS2&S=1&Number=8926314
p2337
sasVtype
p2338
(lp2339
VPhotograph
p2340
asVid
p2341
V161411129
p2342
sa(dp2343
Vtitle
p2344
VArrival of a Malayan Minister for a cocktail party at the Malayan High Commission [photographic image] / photographer, W Pedersen. 1 photographic negative: b&w, acetate
p2345
sVurl
p2346
V/work/161438401
p2347
sVtroveUrl
p2348
Vhttp://trove.nla.gov.au/work/161438401
p2349
sVversionCount
p2350
I1
sVholdingsCount
p2351
I1
sVissued
p2352
I1960
sVrelevance
p2353
(dp2354
Vscore
p2355
V1.0
p2356
sVvalue
p2357
Vlikely to be relevant
p2358
ssVidentifier
p2359
(lp2360
(dp2361
Vlinktype
p2362
Vfulltext
p2363
sVtype
p2364
Vurl
p2365
sVvalue
p2366
Vhttp://recordsearch.naa.gov.au/scripts/SearchOld.asp?O=PSI2&Number=8926307
p2367
sa(dp2368
Vlinktype
p2369
Vthumbnail
p2370
sVtype
p2371
Vurl
p2372
sVvalue
p2373
Vhttp://recordsearch.naa.gov.au/scripts/SearchOld.asp?O=IMS2&S=1&Number=8926307
p2374
sasVtype
p2375
(lp2376
VPhotograph
p2377
asVid
p2378
V161438401
p2379
sa(dp2380
Vtitle
p2381
VSatryghan Lal Pradhan, of Katmandhu is studying wool technology at the University of New South Wales, Sydney, under the Colombo Plan. He says that Australian and Nepalese want to know a great deal more about each other. Mr Pradhan examing a merino fleece in the wool room at the School of Wool Technology at the University of New South Wales [photographic image] / photographer, John Tanner. 1 photographic negative: b&w, acetate
p2382
sVurl
p2383
V/work/161467055
p2384
sVtroveUrl
p2385
Vhttp://trove.nla.gov.au/work/161467055
p2386
sVversionCount
p2387
I1
sVholdingsCount
p2388
I1
sVissued
p2389
I1960
sVrelevance
p2390
(dp2391
Vscore
p2392
V1.0
p2393
sVvalue
p2394
Vlikely to be relevant
p2395
ssVidentifier
p2396
(lp2397
(dp2398
Vlinktype
p2399
Vfulltext
p2400
sVtype
p2401
Vurl
p2402
sVvalue
p2403
Vhttp://recordsearch.naa.gov.au/scripts/SearchOld.asp?O=PSI2&Number=8926522
p2404
sa(dp2405
Vlinktype
p2406
Vthumbnail
p2407
sVtype
p2408
Vurl
p2409
sVvalue
p2410
Vhttp://recordsearch.naa.gov.au/scripts/SearchOld.asp?O=IMS2&S=1&Number=8926522
p2411
sasVtype
p2412
(lp2413
VPhotograph
p2414
asVid
p2415
V161467055
p2416
sa(dp2417
Vtitle
p2418
VMalayan student, Liu Jiann Chuan, has marked up success in science and sport at the University of New England, Armidale, Australia. Mr Liu at work in the geology laboratory [photographic image] / photographer, J Fitzpatrick. 1 photographic negative: b&w, acetate
p2419
sVurl
p2420
V/work/161468071
p2421
sVtroveUrl
p2422
Vhttp://trove.nla.gov.au/work/161468071
p2423
sVversionCount
p2424
I1
sVholdingsCount
p2425
I1
sVissued
p2426
I1960
sVrelevance
p2427
(dp2428
Vscore
p2429
V1.0
p2430
sVvalue
p2431
Vlikely to be relevant
p2432
ssVidentifier
p2433
(lp2434
(dp2435
Vlinktype
p2436
Vfulltext
p2437
sVtype
p2438
Vurl
p2439
sVvalue
p2440
Vhttp://recordsearch.naa.gov.au/scripts/SearchOld.asp?O=PSI2&Number=8926565
p2441
sa(dp2442
Vlinktype
p2443
Vthumbnail
p2444
sVtype
p2445
Vurl
p2446
sVvalue
p2447
Vhttp://recordsearch.naa.gov.au/scripts/SearchOld.asp?O=IMS2&S=1&Number=8926565
p2448
sasVtype
p2449
(lp2450
VPhotograph
p2451
asVid
p2452
V161468071
p2453
sa(dp2454
Vtitle
p2455
VVisit of Ceyonese officials [photographic image] / photographer, W Pedersen. 1 photographic negative: b&w, acetate
p2456
sVurl
p2457
V/work/161492129
p2458
sVtroveUrl
p2459
Vhttp://trove.nla.gov.au/work/161492129
p2460
sVversionCount
p2461
I1
sVholdingsCount
p2462
I1
sVissued
p2463
I1960
sVrelevance
p2464
(dp2465
Vscore
p2466
V1.0
p2467
sVvalue
p2468
Vlikely to be relevant
p2469
ssVidentifier
p2470
(lp2471
(dp2472
Vlinktype
p2473
Vfulltext
p2474
sVtype
p2475
Vurl
p2476
sVvalue
p2477
Vhttp://recordsearch.naa.gov.au/scripts/SearchOld.asp?O=PSI2&Number=8926296
p2478
sa(dp2479
Vlinktype
p2480
Vthumbnail
p2481
sVtype
p2482
Vurl
p2483
sVvalue
p2484
Vhttp://recordsearch.naa.gov.au/scripts/SearchOld.asp?O=IMS2&S=1&Number=8926296
p2485
sasVtype
p2486
(lp2487
VPhotograph
p2488
asVid
p2489
V161492129
p2490
sa(dp2491
Vtitle
p2492
VAn All-Asian Basketball Team composed of students at the Sydney Technical College, which is playing the A grade competition has won 10 out of 12 matches this season. The team gets a word of advice from coach Dick Lee, of Hong Kong. Left to right, Kenneth Lau, of Hong Kong, D Lee, Saw Thean Soo, of Malaya, Eddie Quah, of Malaya, Sunny Leong, of Malaya, captain, Ian Teng Beng, of Malaya, Wong Seng Toh, of Singapore, Vincent Tan, of Singapore and Tin Kwok Ing, of Sarawak [photographic image] / photographer, J Fitzpatrick. 1 photographic negative: b&w, acetate
p2493
sVurl
p2494
V/work/161501377
p2495
sVtroveUrl
p2496
Vhttp://trove.nla.gov.au/work/161501377
p2497
sVversionCount
p2498
I1
sVholdingsCount
p2499
I1
sVissued
p2500
I1960
sVrelevance
p2501
(dp2502
Vscore
p2503
V1.0
p2504
sVvalue
p2505
Vlikely to be relevant
p2506
ssVidentifier
p2507
(lp2508
(dp2509
Vlinktype
p2510
Vfulltext
p2511
sVtype
p2512
Vurl
p2513
sVvalue
p2514
Vhttp://recordsearch.naa.gov.au/scripts/SearchOld.asp?O=PSI2&Number=8926581
p2515
sa(dp2516
Vlinktype
p2517
Vthumbnail
p2518
sVtype
p2519
Vurl
p2520
sVvalue
p2521
Vhttp://recordsearch.naa.gov.au/scripts/SearchOld.asp?O=IMS2&S=1&Number=8926581
p2522
sasVtype
p2523
(lp2524
VPhotograph
p2525
asVid
p2526
V161501377
p2527
sa(dp2528
Vtitle
p2529
VGuests attended a Malam Gumbira (Evening of Fun) in Brisbane when the newly formed Malayan and Singapore students association of QLD held its first official social function. Pictured; guests dancing [photographic image]. 1 photographic negative: b&w, acetate
p2530
sVurl
p2531
V/work/161534685
p2532
sVtroveUrl
p2533
Vhttp://trove.nla.gov.au/work/161534685
p2534
sVversionCount
p2535
I1
sVholdingsCount
p2536
I1
sVissued
p2537
I1960
sVrelevance
p2538
(dp2539
Vscore
p2540
V1.0
p2541
sVvalue
p2542
Vlikely to be relevant
p2543
ssVidentifier
p2544
(lp2545
(dp2546
Vlinktype
p2547
Vfulltext
p2548
sVtype
p2549
Vurl
p2550
sVvalue
p2551
Vhttp://recordsearch.naa.gov.au/scripts/SearchOld.asp?O=PSI2&Number=8926531
p2552
sa(dp2553
Vlinktype
p2554
Vthumbnail
p2555
sVtype
p2556
Vurl
p2557
sVvalue
p2558
Vhttp://recordsearch.naa.gov.au/scripts/SearchOld.asp?O=IMS2&S=1&Number=8926531
p2559
sasVtype
p2560
(lp2561
VPhotograph
p2562
asVid
p2563
V161534685
p2564
sa(dp2565
Vtitle
p2566
VThailand played the role of host at the Annual Thai Ball and a diplomatic reception given by the Melbourne's consul for Thailand, and Mrs H I Fader. The warden of Melbourne University's International House, Mr Sam Dimmick, gives an explanation about some aspects of the classical Thai dancing by Miss Phanpen Phoonwathu [photographic image] / photographer, Cliff Bottomley. 1 photographic negative: b&w, acetate
p2567
sVurl
p2568
V/work/161825001
p2569
sVtroveUrl
p2570
Vhttp://trove.nla.gov.au/work/161825001
p2571
sVversionCount
p2572
I1
sVholdingsCount
p2573
I1
sVissued
p2574
I1960
sVrelevance
p2575
(dp2576
Vscore
p2577
V1.0
p2578
sVvalue
p2579
Vlikely to be relevant
p2580
ssVidentifier
p2581
(lp2582
(dp2583
Vlinktype
p2584
Vfulltext
p2585
sVtype
p2586
Vurl
p2587
sVvalue
p2588
Vhttp://recordsearch.naa.gov.au/scripts/SearchOld.asp?O=PSI2&Number=8926533
p2589
sa(dp2590
Vlinktype
p2591
Vthumbnail
p2592
sVtype
p2593
Vurl
p2594
sVvalue
p2595
Vhttp://recordsearch.naa.gov.au/scripts/SearchOld.asp?O=IMS2&S=1&Number=8926533
p2596
sasVtype
p2597
(lp2598
VPhotograph
p2599
asVid
p2600
V161825001
p2601
sa(dp2602
Vtitle
p2603
VTITLE: Immigration - Parents or guardians of migrants can now fly to Australia for half price, made possible by the Australian Government - Mrs Lisa Gross CATEGORY: Photograph PRINCIPAL CREDIT: Department of Immigration and Multicultural and Indigenous Affairs (DIMIA) FORMAT: b&w negative TYPE: cellulose acetate STATUS: preservation material
p2604
sVurl
p2605
V/work/161332631
p2606
sVtroveUrl
p2607
Vhttp://trove.nla.gov.au/work/161332631
p2608
sVversionCount
p2609
I1
sVholdingsCount
p2610
I1
sVissued
p2611
I1968
sVrelevance
p2612
(dp2613
Vscore
p2614
V1.0
p2615
sVvalue
p2616
Vlikely to be relevant
p2617
ssVidentifier
p2618
(lp2619
(dp2620
Vlinktype
p2621
Vfulltext
p2622
sVtype
p2623
Vurl
p2624
sVvalue
p2625
Vhttp://recordsearch.naa.gov.au/scripts/SearchOld.asp?O=PSI2&Number=30836369
p2626
sa(dp2627
Vlinktype
p2628
Vthumbnail
p2629
sVtype
p2630
Vurl
p2631
sVvalue
p2632
Vhttp://recordsearch.naa.gov.au/scripts/SearchOld.asp?O=IMS2&S=1&Number=30836369
p2633
sasVtype
p2634
(lp2635
VPhotograph
p2636
asVid
p2637
V161332631
p2638
sa(dp2639
Vtitle
p2640
VAn Australian college believes recreation trips help the studies of its overseas students. Sydney Technical College recently arranged for students from Singapore, Malaya, North Borneo and Hong Kong to visit Taronga Park Zoo. Chan Yoke Lock, Lawrence Lee and Victor Han, of Singapore, watch Heng Kheng Boon stroke a koala held by a zoo attendant, in Sydney [photographic image] / photographer, J Fitzpatrick. 1 photographic negative: b&w, acetate
p2641
sVurl
p2642
V/work/161376849
p2643
sVtroveUrl
p2644
Vhttp://trove.nla.gov.au/work/161376849
p2645
sVversionCount
p2646
I1
sVholdingsCount
p2647
I1
sVissued
p2648
I1960
sVrelevance
p2649
(dp2650
Vscore
p2651
V1.0
p2652
sVvalue
p2653
Vlikely to be relevant
p2654
ssVidentifier
p2655
(lp2656
(dp2657
Vlinktype
p2658
Vfulltext
p2659
sVtype
p2660
Vurl
p2661
sVvalue
p2662
Vhttp://recordsearch.naa.gov.au/scripts/SearchOld.asp?O=PSI2&Number=8926321
p2663
sa(dp2664
Vlinktype
p2665
Vthumbnail
p2666
sVtype
p2667
Vurl
p2668
sVvalue
p2669
Vhttp://recordsearch.naa.gov.au/scripts/SearchOld.asp?O=IMS2&S=1&Number=8926321
p2670
sasVtype
p2671
(lp2672
VPhotograph
p2673
asVid
p2674
V161376849
p2675
sa(dp2676
Vtitle
p2677
VTITLE: Immigration - A group of South American officials visited Australia recently as a part of a 7 week tour of Australia to study immigration planning. The tour was sponsored by the Intergovernmental Committee for European Migration. Members of the group met the Ambassador of Argentina, lecturers and officers of the Department of Immigration. The party visits the winery of S Smith and Son at Yalumba, in the Barossa Valley, SA CATEGORY: photograph FORMAT: b&w negative TYPE: cellulose acetate STATUS: preservation material
p2678
sVurl
p2679
V/work/161380003
p2680
sVtroveUrl
p2681
Vhttp://trove.nla.gov.au/work/161380003
p2682
sVversionCount
p2683
I1
sVholdingsCount
p2684
I1
sVissued
p2685
I1963
sVrelevance
p2686
(dp2687
Vscore
p2688
V1.0
p2689
sVvalue
p2690
Vlikely to be relevant
p2691
ssVidentifier
p2692
(lp2693
(dp2694
Vlinktype
p2695
Vfulltext
p2696
sVtype
p2697
Vurl
p2698
sVvalue
p2699
Vhttp://recordsearch.naa.gov.au/scripts/SearchOld.asp?O=PSI2&Number=8112616
p2700
sa(dp2701
Vlinktype
p2702
Vthumbnail
p2703
sVtype
p2704
Vurl
p2705
sVvalue
p2706
Vhttp://recordsearch.naa.gov.au/scripts/SearchOld.asp?O=IMS2&S=1&Number=8112616
p2707
sasVtype
p2708
(lp2709
VPhotograph
p2710
asVid
p2711
V161380003
p2712
sa(dp2713
Vtitle
p2714
VTham Vui Ling, a North Borneo Colombo student at the Queensland University of Queensland, has travelled more than 6,000 miles seeing Australia since he arrived two years ago.Watching a dissection operation being carried out at the Veterinary Science School from left, John Southworth, of Wellington, NZ, John Gillham of Tas, and John Ternouth, of North Balwyn, Vic, Mr J W Watson, lecturer in Veterinary Anatomy, and Tham Vui Ling [photographic image]. Australian Official Photophraph. 1 photographic negative: b&w, acetate
p2715
sVurl
p2716
V/work/161417975
p2717
sVtroveUrl
p2718
Vhttp://trove.nla.gov.au/work/161417975
p2719
sVversionCount
p2720
I1
sVholdingsCount
p2721
I1
sVissued
p2722
I1960
sVrelevance
p2723
(dp2724
Vscore
p2725
V1.0
p2726
sVvalue
p2727
Vlikely to be relevant
p2728
ssVidentifier
p2729
(lp2730
(dp2731
Vlinktype
p2732
Vfulltext
p2733
sVtype
p2734
Vurl
p2735
sVvalue
p2736
Vhttp://recordsearch.naa.gov.au/scripts/SearchOld.asp?O=PSI2&Number=8926396
p2737
sa(dp2738
Vlinktype
p2739
Vthumbnail
p2740
sVtype
p2741
Vurl
p2742
sVvalue
p2743
Vhttp://recordsearch.naa.gov.au/scripts/SearchOld.asp?O=IMS2&S=1&Number=8926396
p2744
sasVtype
p2745
(lp2746
VPhotograph
p2747
asVid
p2748
V161417975
p2749
sa(dp2750
Vtitle
p2751
VMiss Vu Nhi Thuy, of Cholong, has gained a Bachelor of Commerce degree at the Newcastle University College in NSW. She was studying under the Colombo Plan. Miss Vu Ni Thuy [photographic image] / photographer, J Fitzpatrick. 1 photographic negative: b&w, acetate
p2752
sVurl
p2753
V/work/161425005
p2754
sVtroveUrl
p2755
Vhttp://trove.nla.gov.au/work/161425005
p2756
sVversionCount
p2757
I1
sVholdingsCount
p2758
I1
sVissued
p2759
I1960
sVrelevance
p2760
(dp2761
Vscore
p2762
V1.0
p2763
sVvalue
p2764
Vlikely to be relevant
p2765
ssVidentifier
p2766
(lp2767
(dp2768
Vlinktype
p2769
Vfulltext
p2770
sVtype
p2771
Vurl
p2772
sVvalue
p2773
Vhttp://recordsearch.naa.gov.au/scripts/SearchOld.asp?O=PSI2&Number=8926400
p2774
sa(dp2775
Vlinktype
p2776
Vthumbnail
p2777
sVtype
p2778
Vurl
p2779
sVvalue
p2780
Vhttp://recordsearch.naa.gov.au/scripts/SearchOld.asp?O=IMS2&S=1&Number=8926400
p2781
sasVtype
p2782
(lp2783
VPhotograph
p2784
asVid
p2785
V161425005
p2786
sa(dp2787
Vtitle
p2788
VTITLE: Immigration - Overseas Dignitaries - Mr Schnyder talks with former Director of the Australian Council of Churches' Resettlement Department, Mr J J Dedman (left) and Australian Council of Churches' president, the Rev. B R Wyllie, after the opening of the extension wing at the Strathfield, Sydney, refugees home on June 2. The wing is named the John Dadman extension in honor of Mr Dedman CATEGORY: photograph FORMAT: b&w negative TYPE: cellulose acetate STATUS: preservation material
p2789
sVurl
p2790
V/work/161428111
p2791
sVtroveUrl
p2792
Vhttp://trove.nla.gov.au/work/161428111
p2793
sVversionCount
p2794
I1
sVholdingsCount
p2795
I1
sVissued
p2796
I1963
sVrelevance
p2797
(dp2798
Vscore
p2799
V1.0
p2800
sVvalue
p2801
Vlikely to be relevant
p2802
ssVidentifier
p2803
(lp2804
(dp2805
Vlinktype
p2806
Vfulltext
p2807
sVtype
p2808
Vurl
p2809
sVvalue
p2810
Vhttp://recordsearch.naa.gov.au/scripts/SearchOld.asp?O=PSI2&Number=8112566
p2811
sa(dp2812
Vlinktype
p2813
Vthumbnail
p2814
sVtype
p2815
Vurl
p2816
sVvalue
p2817
Vhttp://recordsearch.naa.gov.au/scripts/SearchOld.asp?O=IMS2&S=1&Number=8112566
p2818
sasVtype
p2819
(lp2820
VPhotograph
p2821
asVid
p2822
V161428111
p2823
sa(dp2824
Vtitle
p2825
VGovernor of the Bank of Japan in Australia [photographic image]. 1 photographic negative: b&w, acetate
p2826
sVurl
p2827
V/work/161438439
p2828
sVtroveUrl
p2829
Vhttp://trove.nla.gov.au/work/161438439
p2830
sVversionCount
p2831
I1
sVholdingsCount
p2832
I1
sVissued
p2833
I1960
sVrelevance
p2834
(dp2835
Vscore
p2836
V1.0
p2837
sVvalue
p2838
Vlikely to be relevant
p2839
ssVidentifier
p2840
(lp2841
(dp2842
Vlinktype
p2843
Vfulltext
p2844
sVtype
p2845
Vurl
p2846
sVvalue
p2847
Vhttp://recordsearch.naa.gov.au/scripts/SearchOld.asp?O=PSI2&Number=8926373
p2848
sa(dp2849
Vlinktype
p2850
Vthumbnail
p2851
sVtype
p2852
Vurl
p2853
sVvalue
p2854
Vhttp://recordsearch.naa.gov.au/scripts/SearchOld.asp?O=IMS2&S=1&Number=8926373
p2855
sasVtype
p2856
(lp2857
VPhotograph
p2858
asVid
p2859
V161438439
p2860
sa(dp2861
Vtitle
p2862
VAn Australian college believes recreation trips help the studies of its overseas students. Sydney Technical College recently arranged for students from Singapore, Malaya, North Borneo and Hong Kong to visit Taronga Park Zoo. Von Lok Shu, of Brunei, strokes a koala at Taronga Park Zoo, Sydney [photographic image] / photographer, J Fitzpatrick. 1 photographic negative: b&w, acetate
p2863
sVurl
p2864
V/work/161471677
p2865
sVtroveUrl
p2866
Vhttp://trove.nla.gov.au/work/161471677
p2867
sVversionCount
p2868
I1
sVholdingsCount
p2869
I1
sVissued
p2870
I1960
sVrelevance
p2871
(dp2872
Vscore
p2873
V1.0
p2874
sVvalue
p2875
Vlikely to be relevant
p2876
ssVidentifier
p2877
(lp2878
(dp2879
Vlinktype
p2880
Vfulltext
p2881
sVtype
p2882
Vurl
p2883
sVvalue
p2884
Vhttp://recordsearch.naa.gov.au/scripts/SearchOld.asp?O=PSI2&Number=8926323
p2885
sa(dp2886
Vlinktype
p2887
Vthumbnail
p2888
sVtype
p2889
Vurl
p2890
sVvalue
p2891
Vhttp://recordsearch.naa.gov.au/scripts/SearchOld.asp?O=IMS2&S=1&Number=8926323
p2892
sasVtype
p2893
(lp2894
VPhotograph
p2895
asVid
p2896
V161471677
p2897
sa(dp2898
Vtitle
p2899
VTITLE: Immigration - Overseas Dignitaries - J. MacFadden, Intergovernmental Committee for European Migration (ICEM). Deputy Director visits Sydney - After an overnight flight from Hong Kong to Sydney, ICEM Deputy Director Joseph McFadden rushed direct from the airport at Mascot to call on elderly White Russian Refugees even before he had reached his Sydney hotel. I was very anxious to see these old people, particularly since they were living in a special home provided by the Australian Council of Churches from International funds..CATEGORY: photograph FORMAT: b&w negative TYPE: cellulose acetate STATUS: preservation material
p2900
sVurl
p2901
V/work/161521675
p2902
sVtroveUrl
p2903
Vhttp://trove.nla.gov.au/work/161521675
p2904
sVversionCount
p2905
I1
sVholdingsCount
p2906
I1
sVissued
p2907
I1963
sVrelevance
p2908
(dp2909
Vscore
p2910
V1.0
p2911
sVvalue
p2912
Vlikely to be relevant
p2913
ssVidentifier
p2914
(lp2915
(dp2916
Vlinktype
p2917
Vfulltext
p2918
sVtype
p2919
Vurl
p2920
sVvalue
p2921
Vhttp://recordsearch.naa.gov.au/scripts/SearchOld.asp?O=PSI2&Number=8112591
p2922
sa(dp2923
Vlinktype
p2924
Vthumbnail
p2925
sVtype
p2926
Vurl
p2927
sVvalue
p2928
Vhttp://recordsearch.naa.gov.au/scripts/SearchOld.asp?O=IMS2&S=1&Number=8112591
p2929
sasVtype
p2930
(lp2931
VPhotograph
p2932
asVid
p2933
V161521675
p2934
sa(dp2935
Vtitle
p2936
VTITLE: Immigration - Overseas Dignitaries - Felix Schnyder, United Nations High Commissioner for Refugees in Sydney. Australia's decision to immediately consider the admission of a number of severly handicapped refugees was most gratifying, the United Nations High Commissioner for Refugees, Mr Felix Schnyder, said on the eve of his departure from Canberra, ACT. Mr Schnyder pays his respects, with caution, to an emu at Koala Park in Sydney CATEGORY: photograph FORMAT: b&w negative TYPE: cellulose acetate STATUS: preservation material
p2937
sVurl
p2938
V/work/161555031
p2939
sVtroveUrl
p2940
Vhttp://trove.nla.gov.au/work/161555031
p2941
sVversionCount
p2942
I1
sVholdingsCount
p2943
I1
sVissued
p2944
I1963
sVrelevance
p2945
(dp2946
Vscore
p2947
V1.0
p2948
sVvalue
p2949
Vlikely to be relevant
p2950
ssVidentifier
p2951
(lp2952
(dp2953
Vlinktype
p2954
Vfulltext
p2955
sVtype
p2956
Vurl
p2957
sVvalue
p2958
Vhttp://recordsearch.naa.gov.au/scripts/SearchOld.asp?O=PSI2&Number=8112541
p2959
sa(dp2960
Vlinktype
p2961
Vthumbnail
p2962
sVtype
p2963
Vurl
p2964
sVvalue
p2965
Vhttp://recordsearch.naa.gov.au/scripts/SearchOld.asp?O=IMS2&S=1&Number=8112541
p2966
sasVtype
p2967
(lp2968
VPhotograph
p2969
asVid
p2970
V161555031
p2971
sa(dp2972
Vtitle
p2973
VTITLE: At the Gascoyne Trading Company in Carnarvon, north of Perth, WA, 2 Agriculture Department Officers spot check goods for quality CATEGORY: photograph PRINCIPAL CREDIT: photographer R Woldendorp FORMAT: b&w negative TYPE: cellulose acetate STATUS: preservation material
p2974
sVurl
p2975
V/work/161335211
p2976
sVtroveUrl
p2977
Vhttp://trove.nla.gov.au/work/161335211
p2978
sVversionCount
p2979
I1
sVholdingsCount
p2980
I1
sVissued
p2981
I1964
sVrelevance
p2982
(dp2983
Vscore
p2984
V1.0
p2985
sVvalue
p2986
Vlikely to be relevant
p2987
ssVidentifier
p2988
(lp2989
(dp2990
Vlinktype
p2991
Vfulltext
p2992
sVtype
p2993
Vurl
p2994
sVvalue
p2995
Vhttp://recordsearch.naa.gov.au/scripts/SearchOld.asp?O=PSI2&Number=11962773
p2996
sa(dp2997
Vlinktype
p2998
Vthumbnail
p2999
sVtype
p3000
Vurl
p3001
sVvalue
p3002
Vhttp://recordsearch.naa.gov.au/scripts/SearchOld.asp?O=IMS2&S=1&Number=11962773
p3003
sasVtype
p3004
(lp3005
VPhotograph
p3006
asVid
p3007
V161335211
p3008
sa(dp3009
Vtitle
p3010
VTITLE: Transport - Road - Beef Roads - The Julia Creek-Normanton Road, three miles from the Julia Creek-Cloncurry turnoff, is one of the so called 'beef roads', a far ranging network being constructed in the north of Queensland, Western Australia and the Northern Territory CATEGORY: Photograph PRINCIPAL CREDIT: Australian News and Information Bureau FORMAT: b&w negative TYPE: cellulose acetate STATUS: preservation material
p3011
sVurl
p3012
V/work/161361019
p3013
sVtroveUrl
p3014
Vhttp://trove.nla.gov.au/work/161361019
p3015
sVversionCount
p3016
I1
sVholdingsCount
p3017
I1
sVissued
p3018
I1966
sVrelevance
p3019
(dp3020
Vscore
p3021
V1.0
p3022
sVvalue
p3023
Vlikely to be relevant
p3024
ssVidentifier
p3025
(lp3026
(dp3027
Vlinktype
p3028
Vfulltext
p3029
sVtype
p3030
Vurl
p3031
sVvalue
p3032
Vhttp://recordsearch.naa.gov.au/scripts/SearchOld.asp?O=PSI2&Number=11962756
p3033
sa(dp3034
Vlinktype
p3035
Vthumbnail
p3036
sVtype
p3037
Vurl
p3038
sVvalue
p3039
Vhttp://recordsearch.naa.gov.au/scripts/SearchOld.asp?O=IMS2&S=1&Number=11962756
p3040
sasVtype
p3041
(lp3042
VPhotograph
p3043
asVid
p3044
V161361019
p3045
sa(dp3046
Vtitle
p3047
VTITLE: Transport - Road - Sydney's (New South Wales) latest expressway takes shape - Close to the northern end of the famous Sydney Harbour Bridge, the tranquility of the peaceful suburb of North Sydney is being shattered as a new expressway takes the place of houses CATEGORY: Photograph PRINCIPAL CREDIT: Australian News and Information Bureau, photographer J Fitzpatrick FORMAT: b&w negative TYPE: cellulose acetate STATUS: preservation material
p3048
sVurl
p3049
V/work/161362015
p3050
sVtroveUrl
p3051
Vhttp://trove.nla.gov.au/work/161362015
p3052
sVversionCount
p3053
I1
sVholdingsCount
p3054
I1
sVissued
p3055
I1966
sVrelevance
p3056
(dp3057
Vscore
p3058
V1.0
p3059
sVvalue
p3060
Vlikely to be relevant
p3061
ssVidentifier
p3062
(lp3063
(dp3064
Vlinktype
p3065
Vfulltext
p3066
sVtype
p3067
Vurl
p3068
sVvalue
p3069
Vhttp://recordsearch.naa.gov.au/scripts/SearchOld.asp?O=PSI2&Number=11962758
p3070
sa(dp3071
Vlinktype
p3072
Vthumbnail
p3073
sVtype
p3074
Vurl
p3075
sVvalue
p3076
Vhttp://recordsearch.naa.gov.au/scripts/SearchOld.asp?O=IMS2&S=1&Number=11962758
p3077
sasVtype
p3078
(lp3079
VPhotograph
p3080
asVid
p3081
V161362015
p3082
sa(dp3083
Vtitle
p3084
VTITLE: Transport - Road - Beef Roads - Dirt tracks of Australia's north are being transformed into high quality roads, the so called 'beef roads', a far ranging network being constructed in the north of Queensland, Western Australia and the Northern Territory, Winton, Queensland CATEGORY: Photograph PRINCIPAL CREDIT: Australian News and Information Bureau FORMAT: b&w negative TYPE: cellulose acetate STATUS: preservation material
p3085
sVurl
p3086
V/work/161376021
p3087
sVtroveUrl
p3088
Vhttp://trove.nla.gov.au/work/161376021
p3089
sVversionCount
p3090
I1
sVholdingsCount
p3091
I1
sVissued
p3092
I1966
sVrelevance
p3093
(dp3094
Vscore
p3095
V1.0
p3096
sVvalue
p3097
Vlikely to be relevant
p3098
ssVidentifier
p3099
(lp3100
(dp3101
Vlinktype
p3102
Vfulltext
p3103
sVtype
p3104
Vurl
p3105
sVvalue
p3106
Vhttp://recordsearch.naa.gov.au/scripts/SearchOld.asp?O=PSI2&Number=11962755
p3107
sa(dp3108
Vlinktype
p3109
Vthumbnail
p3110
sVtype
p3111
Vurl
p3112
sVvalue
p3113
Vhttp://recordsearch.naa.gov.au/scripts/SearchOld.asp?O=IMS2&S=1&Number=11962755
p3114
sasVtype
p3115
(lp3116
VPhotograph
p3117
asVid
p3118
V161376021
p3119
sa(dp3120
Vtitle
p3121
VTITLE: Australia develops a unique heavy duty low loader road transport unit CATEGORY: photograph FORMAT: b&w negative TYPE: cellulose acetate STATUS: preservation material
p3122
sVurl
p3123
V/work/161420065
p3124
sVtroveUrl
p3125
Vhttp://trove.nla.gov.au/work/161420065
p3126
sVversionCount
p3127
I1
sVholdingsCount
p3128
I1
sVissued
p3129
I1959
sVrelevance
p3130
(dp3131
Vscore
p3132
V1.0
p3133
sVvalue
p3134
Vlikely to be relevant
p3135
ssVidentifier
p3136
(lp3137
(dp3138
Vlinktype
p3139
Vfulltext
p3140
sVtype
p3141
Vurl
p3142
sVvalue
p3143
Vhttp://recordsearch.naa.gov.au/scripts/SearchOld.asp?O=PSI2&Number=11962740
p3144
sa(dp3145
Vlinktype
p3146
Vthumbnail
p3147
sVtype
p3148
Vurl
p3149
sVvalue
p3150
Vhttp://recordsearch.naa.gov.au/scripts/SearchOld.asp?O=IMS2&S=1&Number=11962740
p3151
sasVtype
p3152
(lp3153
VPhotograph
p3154
asVid
p3155
V161420065
p3156
sa(dp3157
Vtitle
p3158
VTITLE: Australia develops a unique heavy duty low loader road transport unit CATEGORY: photograph FORMAT: b&w negative TYPE: cellulose acetate STATUS: preservation material
p3159
sVurl
p3160
V/work/161493383
p3161
sVtroveUrl
p3162
Vhttp://trove.nla.gov.au/work/161493383
p3163
sVversionCount
p3164
I1
sVholdingsCount
p3165
I1
sVissued
p3166
I1959
sVrelevance
p3167
(dp3168
Vscore
p3169
V1.0
p3170
sVvalue
p3171
Vlikely to be relevant
p3172
ssVidentifier
p3173
(lp3174
(dp3175
Vlinktype
p3176
Vfulltext
p3177
sVtype
p3178
Vurl
p3179
sVvalue
p3180
Vhttp://recordsearch.naa.gov.au/scripts/SearchOld.asp?O=PSI2&Number=11962738
p3181
sa(dp3182
Vlinktype
p3183
Vthumbnail
p3184
sVtype
p3185
Vurl
p3186
sVvalue
p3187
Vhttp://recordsearch.naa.gov.au/scripts/SearchOld.asp?O=IMS2&S=1&Number=11962738
p3188
sasVtype
p3189
(lp3190
VPhotograph
p3191
asVid
p3192
V161493383
p3193
sa(dp3194
Vtitle
p3195
VTransport - Sea - Loading wool for overseas, Melbourne [photographic image] / photographer, D Stubbs. 1 photographic negative: b&w, acetate
p3196
sVurl
p3197
V/work/161530107
p3198
sVtroveUrl
p3199
Vhttp://trove.nla.gov.au/work/161530107
p3200
sVversionCount
p3201
I1
sVholdingsCount
p3202
I1
sVissued
p3203
I1945
sVrelevance
p3204
(dp3205
Vscore
p3206
V1.0
p3207
sVvalue
p3208
Vlikely to be relevant
p3209
ssVidentifier
p3210
(lp3211
(dp3212
Vlinktype
p3213
Vfulltext
p3214
sVtype
p3215
Vurl
p3216
sVvalue
p3217
Vhttp://recordsearch.naa.gov.au/scripts/SearchOld.asp?O=PSI2&Number=11963524
p3218
sa(dp3219
Vlinktype
p3220
Vthumbnail
p3221
sVtype
p3222
Vurl
p3223
sVvalue
p3224
Vhttp://recordsearch.naa.gov.au/scripts/SearchOld.asp?O=IMS2&S=1&Number=11963524
p3225
sasVtype
p3226
(lp3227
VPhotograph
p3228
asVid
p3229
V161530107
p3230
sa(dp3231
Vtitle
p3232
VTransport - Road - New NT number plate
p3233
sVurl
p3234
V/work/161536533
p3235
sVtroveUrl
p3236
Vhttp://trove.nla.gov.au/work/161536533
p3237
sVversionCount
p3238
I1
sVholdingsCount
p3239
I1
sVissued
p3240
I1980
sVrelevance
p3241
(dp3242
Vscore
p3243
V1.0
p3244
sVvalue
p3245
Vlikely to be relevant
p3246
ssVidentifier
p3247
(lp3248
(dp3249
Vlinktype
p3250
Vfulltext
p3251
sVtype
p3252
Vurl
p3253
sVvalue
p3254
Vhttp://recordsearch.naa.gov.au/scripts/SearchOld.asp?O=PSI2&Number=11963270
p3255
sa(dp3256
Vlinktype
p3257
Vthumbnail
p3258
sVtype
p3259
Vurl
p3260
sVvalue
p3261
Vhttp://recordsearch.naa.gov.au/scripts/SearchOld.asp?O=IMS2&S=1&Number=11963270
p3262
sasVtype
p3263
(lp3264
VPhotograph
p3265
asVid
p3266
V161536533
p3267
sa(dp3268
Vtitle
p3269
VPersonalities - Bob Hawke - Visit to White House
p3270
sVurl
p3271
V/work/168984431
p3272
sVtroveUrl
p3273
Vhttp://trove.nla.gov.au/work/168984431
p3274
sVversionCount
p3275
I1
sVholdingsCount
p3276
I1
sVissued
p3277
I1985
sVrelevance
p3278
(dp3279
Vscore
p3280
V1.0
p3281
sVvalue
p3282
Vlikely to be relevant
p3283
ssVidentifier
p3284
(lp3285
(dp3286
Vlinktype
p3287
Vfulltext
p3288
sVtype
p3289
Vurl
p3290
sVvalue
p3291
Vhttp://recordsearch.naa.gov.au/scripts/SearchOld.asp?O=PSI2&Number=11654565
p3292
sa(dp3293
Vlinktype
p3294
Vthumbnail
p3295
sVtype
p3296
Vurl
p3297
sVvalue
p3298
Vhttp://recordsearch.naa.gov.au/scripts/SearchOld.asp?O=IMS2&S=1&Number=11654565
p3299
sasVtype
p3300
(lp3301
VPhotograph
p3302
asVid
p3303
V168984431
p3304
sa(dp3305
Vtitle
p3306
VRoyal Yacht entered Australia's large dry dock - The RMS GOTHIC entered the Captain Cook Graving Dock in Sydney Harbour with the aid of two diesel-powered mobile cranes [photographic image] / photographer, J Fitzpatrick. 1 photographic negative: b&w, acetate
p3307
sVurl
p3308
V/work/161430703
p3309
sVtroveUrl
p3310
Vhttp://trove.nla.gov.au/work/161430703
p3311
sVversionCount
p3312
I1
sVholdingsCount
p3313
I1
sVissued
p3314
I1952
sVrelevance
p3315
(dp3316
Vscore
p3317
V1.0
p3318
sVvalue
p3319
Vlikely to be relevant
p3320
ssVidentifier
p3321
(lp3322
(dp3323
Vlinktype
p3324
Vfulltext
p3325
sVtype
p3326
Vurl
p3327
sVvalue
p3328
Vhttp://recordsearch.naa.gov.au/scripts/SearchOld.asp?O=PSI2&Number=11963592
p3329
sa(dp3330
Vlinktype
p3331
Vthumbnail
p3332
sVtype
p3333
Vurl
p3334
sVvalue
p3335
Vhttp://recordsearch.naa.gov.au/scripts/SearchOld.asp?O=IMS2&S=1&Number=11963592
p3336
sasVtype
p3337
(lp3338
VPhotograph
p3339
asVid
p3340
V161430703
p3341
sa(dp3342
Vtitle
p3343
VTITLE: Immigration - Department of Immigration officers - A group of seven Dutch emigrant families in Sydney, New South Wales, have embarked on a unique home building scheme which will provide them with modern new home inside twelve months without a penny of advance cash. They signed up to devote their week-ends to communal effort in helping to build the homes, until each has contributed at least 400 hours of labour. There was a picnic atmosphere on the site of the new homes when Dr Haveman and representatives of the Netherlands Embassy in Australia and friends of the migrants gathered for the ceremony planned to mark the beginning of the scheme CATEGORY: photograph FORMAT: b&w negative TYPE: cellulose acetate STATUS: preservation material
p3344
sVurl
p3345
V/work/161484399
p3346
sVtroveUrl
p3347
Vhttp://trove.nla.gov.au/work/161484399
p3348
sVversionCount
p3349
I1
sVholdingsCount
p3350
I1
sVissued
p3351
I1960
sVrelevance
p3352
(dp3353
Vscore
p3354
V1.0
p3355
sVvalue
p3356
Vlikely to be relevant
p3357
ssVidentifier
p3358
(lp3359
(dp3360
Vlinktype
p3361
Vfulltext
p3362
sVtype
p3363
Vurl
p3364
sVvalue
p3365
Vhttp://recordsearch.naa.gov.au/scripts/SearchOld.asp?O=PSI2&Number=8112481
p3366
sa(dp3367
Vlinktype
p3368
Vthumbnail
p3369
sVtype
p3370
Vurl
p3371
sVvalue
p3372
Vhttp://recordsearch.naa.gov.au/scripts/SearchOld.asp?O=IMS2&S=1&Number=8112481
p3373
sasVtype
p3374
(lp3375
VPhotograph
p3376
asVid
p3377
V161484399
p3378
sa(dp3379
Vtitle
p3380
VTITLE: Immigration - The United Nations High Commissioner for Refugees, Mr Felix Schnyder, arrives at Sydney Airport from New Zealand on June the 1st CATEGORY: photograph FORMAT: b&w negative TYPE: cellulose acetate STATUS: preservation material
p3381
sVurl
p3382
V/work/161822891
p3383
sVtroveUrl
p3384
Vhttp://trove.nla.gov.au/work/161822891
p3385
sVversionCount
p3386
I1
sVholdingsCount
p3387
I1
sVissued
p3388
I1963
sVrelevance
p3389
(dp3390
Vscore
p3391
V1.0
p3392
sVvalue
p3393
Vlikely to be relevant
p3394
ssVidentifier
p3395
(lp3396
(dp3397
Vlinktype
p3398
Vfulltext
p3399
sVtype
p3400
Vurl
p3401
sVvalue
p3402
Vhttp://recordsearch.naa.gov.au/scripts/SearchOld.asp?O=PSI2&Number=8112562
p3403
sa(dp3404
Vlinktype
p3405
Vthumbnail
p3406
sVtype
p3407
Vurl
p3408
sVvalue
p3409
Vhttp://recordsearch.naa.gov.au/scripts/SearchOld.asp?O=IMS2&S=1&Number=8112562
p3410
sasVtype
p3411
(lp3412
VPhotograph
p3413
asVid
p3414
V161822891
p3415
sa(dp3416
Vtitle
p3417
VTITLE: Immigration - Overseas Dignitaries - Australia's decision to immediately consider the admission of a number of severely handicapped refugees was most gratifying, the United Nations High Commissioner for Refugees, Mr Felix Schnyder, said on the eve of his departure form Canberra, Australia's capital. Mr Schnyder with the Secretary of the Department of Immigration, Mr P R Heydon, right, and the former Secretary of the Department, Sir Tasman Heyas CATEGORY: photograph FORMAT: b&w negative TYPE: cellulose acetate STATUS: preservation material
p3418
sVurl
p3419
V/work/161388658
p3420
sVtroveUrl
p3421
Vhttp://trove.nla.gov.au/work/161388658
p3422
sVversionCount
p3423
I1
sVholdingsCount
p3424
I1
sVissued
p3425
I1963
sVrelevance
p3426
(dp3427
Vscore
p3428
V1.0
p3429
sVvalue
p3430
Vlikely to be relevant
p3431
ssVidentifier
p3432
(lp3433
(dp3434
Vlinktype
p3435
Vfulltext
p3436
sVtype
p3437
Vurl
p3438
sVvalue
p3439
Vhttp://recordsearch.naa.gov.au/scripts/SearchOld.asp?O=PSI2&Number=8112577
p3440
sa(dp3441
Vlinktype
p3442
Vthumbnail
p3443
sVtype
p3444
Vurl
p3445
sVvalue
p3446
Vhttp://recordsearch.naa.gov.au/scripts/SearchOld.asp?O=IMS2&S=1&Number=8112577
p3447
sasVtype
p3448
(lp3449
VPhotograph
p3450
asVid
p3451
V161388658
p3452
sa(dp3453
Vtitle
p3454
VAustralia is supplying the Philippines with a number of modern machines used in the tanning industry, under the Colombo Plan. The first machine to be shipped will be a 24-inch oscillating-cylinder buffing machine, manufactured by Johnson & Sons (Engineering), of Botany, Sydney. A technician screws a tablet on to the 24-inch oscillating-cylinder buffing machine indicating that it is a gift from Australia under the Colombo Plan [photographic image] / photographer, J Fitzpatrick. 1 photographic negative: b&w, acetate
p3455
sVurl
p3456
V/work/161405188
p3457
sVtroveUrl
p3458
Vhttp://trove.nla.gov.au/work/161405188
p3459
sVversionCount
p3460
I1
sVholdingsCount
p3461
I1
sVissued
p3462
I1960
sVrelevance
p3463
(dp3464
Vscore
p3465
V1.0
p3466
sVvalue
p3467
Vlikely to be relevant
p3468
ssVidentifier
p3469
(lp3470
(dp3471
Vlinktype
p3472
Vfulltext
p3473
sVtype
p3474
Vurl
p3475
sVvalue
p3476
Vhttp://recordsearch.naa.gov.au/scripts/SearchOld.asp?O=PSI2&Number=8926341
p3477
sa(dp3478
Vlinktype
p3479
Vthumbnail
p3480
sVtype
p3481
Vurl
p3482
sVvalue
p3483
Vhttp://recordsearch.naa.gov.au/scripts/SearchOld.asp?O=IMS2&S=1&Number=8926341
p3484
sasVtype
p3485
(lp3486
VPhotograph
p3487
asVid
p3488
V161405188
p3489
sa(dp3490
Vtitle
p3491
VThe Indian High Commissioner for Australia His Excellency Shir Samarendra Nath Sen, paid an official vist to the State of Victoria. He was accompanied by his wife, Shrimati Sen. During a visit to the University of Melbourne, the High commissioner, (left), and Shrimati Sen, called on the Vice-Chancellor, Sir George Paton [photographic image] / photographer, Cliff Bottomley. 1 photographic negative: b&w, acetate
p3492
sVurl
p3493
V/work/161444268
p3494
sVtroveUrl
p3495
Vhttp://trove.nla.gov.au/work/161444268
p3496
sVversionCount
p3497
I1
sVholdingsCount
p3498
I1
sVissued
p3499
I1960
sVrelevance
p3500
(dp3501
Vscore
p3502
V1.0
p3503
sVvalue
p3504
Vlikely to be relevant
p3505
ssVidentifier
p3506
(lp3507
(dp3508
Vlinktype
p3509
Vfulltext
p3510
sVtype
p3511
Vurl
p3512
sVvalue
p3513
Vhttp://recordsearch.naa.gov.au/scripts/SearchOld.asp?O=PSI2&Number=8926346
p3514
sa(dp3515
Vlinktype
p3516
Vthumbnail
p3517
sVtype
p3518
Vurl
p3519
sVvalue
p3520
Vhttp://recordsearch.naa.gov.au/scripts/SearchOld.asp?O=IMS2&S=1&Number=8926346
p3521
sasVtype
p3522
(lp3523
VPhotograph
p3524
asVid
p3525
V161444268
p3526
sa(dp3527
Vtitle
p3528
VUmar Katab, his wife Yami and their two children Imam and Tuty. The only Indonesian student family in QLD left Brisbane recently. The happy group at their farewell party, from left to right were Cedric Wade and Heather Guy, Umar, Yami and Katab and Tuty and John Wade, of Ascot. Standing at the rear is Mr S D Tooth, a member of the Queensland Legislative Assembly [photographic image]. 1 photographic negative: b&w, acetate
p3529
sVurl
p3530
V/work/161472704
p3531
sVtroveUrl
p3532
Vhttp://trove.nla.gov.au/work/161472704
p3533
sVversionCount
p3534
I1
sVholdingsCount
p3535
I1
sVissued
p3536
I1960
sVrelevance
p3537
(dp3538
Vscore
p3539
V1.0
p3540
sVvalue
p3541
Vlikely to be relevant
p3542
ssVidentifier
p3543
(lp3544
(dp3545
Vlinktype
p3546
Vfulltext
p3547
sVtype
p3548
Vurl
p3549
sVvalue
p3550
Vhttp://recordsearch.naa.gov.au/scripts/SearchOld.asp?O=PSI2&Number=8926366
p3551
sa(dp3552
Vlinktype
p3553
Vthumbnail
p3554
sVtype
p3555
Vurl
p3556
sVvalue
p3557
Vhttp://recordsearch.naa.gov.au/scripts/SearchOld.asp?O=IMS2&S=1&Number=8926366
p3558
sasVtype
p3559
(lp3560
VPhotograph
p3561
asVid
p3562
V161472704
p3563
sa(dp3564
Vtitle
p3565
VTITLE: Immigration - Parents or guardians of migrants can now fly to Australia for half price, made possible by the Australian Government - Mrs Lea Versluis CATEGORY: Photograph PRINCIPAL CREDIT: Department of Immigration and Multicultural and Indigenous Affairs (DIMIA) FORMAT: b&w negative TYPE: cellulose acetate STATUS: preservation material
p3566
sVurl
p3567
V/work/161807398
p3568
sVtroveUrl
p3569
Vhttp://trove.nla.gov.au/work/161807398
p3570
sVversionCount
p3571
I1
sVholdingsCount
p3572
I1
sVissued
p3573
I1968
sVrelevance
p3574
(dp3575
Vscore
p3576
V1.0
p3577
sVvalue
p3578
Vlikely to be relevant
p3579
ssVidentifier
p3580
(lp3581
(dp3582
Vlinktype
p3583
Vfulltext
p3584
sVtype
p3585
Vurl
p3586
sVvalue
p3587
Vhttp://recordsearch.naa.gov.au/scripts/SearchOld.asp?O=PSI2&Number=30836385
p3588
sa(dp3589
Vlinktype
p3590
Vthumbnail
p3591
sVtype
p3592
Vurl
p3593
sVvalue
p3594
Vhttp://recordsearch.naa.gov.au/scripts/SearchOld.asp?O=IMS2&S=1&Number=30836385
p3595
sasVtype
p3596
(lp3597
VPhotograph
p3598
asVid
p3599
V161807398
p3600
sa(dp3601
Vtitle
p3602
VTransport - Road - Police monitor traffic by TV, Sydney
p3603
sVurl
p3604
V/work/161453286
p3605
sVtroveUrl
p3606
Vhttp://trove.nla.gov.au/work/161453286
p3607
sVversionCount
p3608
I1
sVholdingsCount
p3609
I1
sVissued
p3610
I1964
sVrelevance
p3611
(dp3612
Vscore
p3613
V1.0
p3614
sVvalue
p3615
Vlikely to be relevant
p3616
ssVidentifier
p3617
(lp3618
(dp3619
Vlinktype
p3620
Vfulltext
p3621
sVtype
p3622
Vurl
p3623
sVvalue
p3624
Vhttp://recordsearch.naa.gov.au/scripts/SearchOld.asp?O=PSI2&Number=11962772
p3625
sa(dp3626
Vlinktype
p3627
Vthumbnail
p3628
sVtype
p3629
Vurl
p3630
sVvalue
p3631
Vhttp://recordsearch.naa.gov.au/scripts/SearchOld.asp?O=IMS2&S=1&Number=11962772
p3632
sasVtype
p3633
(lp3634
VPhotograph
p3635
asVid
p3636
V161453286
p3637
sa(dp3638
Vtitle
p3639
VTransport - Road - New NT number plate
p3640
sVurl
p3641
V/work/161457944
p3642
sVtroveUrl
p3643
Vhttp://trove.nla.gov.au/work/161457944
p3644
sVversionCount
p3645
I1
sVholdingsCount
p3646
I1
sVissued
p3647
I1980
sVrelevance
p3648
(dp3649
Vscore
p3650
V1.0
p3651
sVvalue
p3652
Vlikely to be relevant
p3653
ssVidentifier
p3654
(lp3655
(dp3656
Vlinktype
p3657
Vfulltext
p3658
sVtype
p3659
Vurl
p3660
sVvalue
p3661
Vhttp://recordsearch.naa.gov.au/scripts/SearchOld.asp?O=PSI2&Number=11963097
p3662
sa(dp3663
Vlinktype
p3664
Vthumbnail
p3665
sVtype
p3666
Vurl
p3667
sVvalue
p3668
Vhttp://recordsearch.naa.gov.au/scripts/SearchOld.asp?O=IMS2&S=1&Number=11963097
p3669
sasVtype
p3670
(lp3671
VPhotograph
p3672
asVid
p3673
V161457944
p3674
sa(dp3675
Vtitle
p3676
VTITLE: Festivals and celebrations - A road train was part of the Bang Tail Muster Festival in Alice Springs, NT CATEGORY: photograph PRINCIPAL CREDIT: photographer Neil Murray FORMAT: b&w negative TYPE: cellulose acetate STATUS: preservation material
p3677
sVurl
p3678
V/work/161463980
p3679
sVtroveUrl
p3680
Vhttp://trove.nla.gov.au/work/161463980
p3681
sVversionCount
p3682
I1
sVholdingsCount
p3683
I1
sVissued
p3684
I1959
sVrelevance
p3685
(dp3686
Vscore
p3687
V1.0
p3688
sVvalue
p3689
Vlikely to be relevant
p3690
ssVidentifier
p3691
(lp3692
(dp3693
Vlinktype
p3694
Vfulltext
p3695
sVtype
p3696
Vurl
p3697
sVvalue
p3698
Vhttp://recordsearch.naa.gov.au/scripts/SearchOld.asp?O=PSI2&Number=11962741
p3699
sa(dp3700
Vlinktype
p3701
Vthumbnail
p3702
sVtype
p3703
Vurl
p3704
sVvalue
p3705
Vhttp://recordsearch.naa.gov.au/scripts/SearchOld.asp?O=IMS2&S=1&Number=11962741
p3706
sasVtype
p3707
(lp3708
VPhotograph
p3709
asVid
p3710
V161463980
p3711
sasVnext
p3712
V/result?q=+&sortby=relevance&encoding=json&l-availability=y&reclevel=brief&n=100&zone=picture&s=380694
p3713
sVs
p3714
V380594
p3715
sVtotal
p3716
V5601076
p3717
sVn
p3718
V100
p3719
ssVname
p3720
Vpicture
p3721
sass.