(dp0
Vresponse
p1
(dp2
Vquery
p3
V
p4
sVzone
p5
(lp6
(dp7
Vrecords
p8
(dp9
Vnext
p10
V/result?q=+&n=0&encoding=json&zone=picture&s=0
p11
sVs
p12
V0
p13
sVtotal
p14
V7901072
p15
sVn
p16
g13
ssVname
p17
Vpicture
p18
sa(dp19
Vrecords
p20
(dp21
Vnext
p22
V/result?q=+&n=0&encoding=json&zone=list&s=0
p23
sg12
g13
sVtotal
p24
V33250
p25
sg16
g13
ssVname
p26
Vlist
p27
sa(dp28
Vrecords
p29
(dp30
Vnext
p31
V/result?q=+&n=0&encoding=json&zone=article&s=0
p32
sg12
g13
sVtotal
p33
V155120837
p34
sg16
g13
ssVname
p35
Varticle
p36
sa(dp37
Vrecords
p38
(dp39
Vnext
p40
V/result?q=+&n=0&encoding=json&zone=people&s=0
p41
sg12
g13
sVtotal
p42
V924620
p43
sg16
g13
ssVname
p44
Vpeople
p45
sa(dp46
Vrecords
p47
(dp48
Vnext
p49
V/result?q=+&n=0&encoding=json&zone=book&s=0
p50
sg12
g13
sVtotal
p51
V18546445
p52
sg16
g13
ssVname
p53
Vbook
p54
sa(dp55
Vrecords
p56
(dp57
Vnext
p58
V/result?q=+&n=0&encoding=json&zone=music&s=0
p59
sg12
g13
sVtotal
p60
V3414771
p61
sg16
g13
ssVname
p62
Vmusic
p63
sa(dp64
Vrecords
p65
(dp66
Vnext
p67
V/result?q=+&n=0&encoding=json&zone=map&s=0
p68
sg12
g13
sVtotal
p69
V580692
p70
sg16
g13
ssVname
p71
Vmap
p72
sa(dp73
Vrecords
p74
(dp75
Vnext
p76
V/result?q=+&n=0&encoding=json&zone=collection&s=0
p77
sg12
g13
sVtotal
p78
V557221
p79
sg16
g13
ssVname
p80
Vcollection
p81
sa(dp82
Vrecords
p83
(dp84
Vnext
p85
V/result?q=+&n=0&encoding=json&zone=newspaper&s=1
p86
sg12
g13
sVtotal
p87
V124462660
p88
sVarticle
p89
(lp90
(dp91
Vcategory
p92
VArticle
p93
sVtitle
p94
(dp95
Vid
p96
V6
p97
sVvalue
p98
VThe Perth Gazette and Western Australian Journal (WA : 1833 - 1847)
p99
ssVurl
p100
V/newspaper/638837
p101
sVtroveUrl
p102
Vhttp://trove.nla.gov.au/ndp/del/article/638837
p103
sVheading
p104
VIMPORTS PER WESTMORELAND.
p105
sVsnippet
p106
V12 barrels, 3 cases, 30 hogsheads, D. Scott; 40 hogsheads, 25 puncheons, 35 tierces, 12 chests, 160 barrels, 90 kegs, 82 boxes, 67 sacks oats, 65 packages, 28 cases, 21 bars iron, L. &amp; W. Samson; ...
p107
sVrelevance
p108
(dp109
Vscore
p110
V1.0
p111
sVvalue
p112
Vlikely to be relevant
p113
ssVpageSequence
p114
I2
sVdate
p115
V1840-01-04
p116
sVid
p117
V638837
p118
sVpage
p119
I2
sasg16
V1
p120
ssVname
p121
Vnewspaper
p122
sass.